ARM GAS  /tmp/cciSlyUQ.s 			page 1


   1              		.arch armv8.1-m.main
   2              		.arch_extension dsp
   3              		.arch_extension fp
   4              		.arch_extension fp.dp
   5              		.arch_extension mve
   6              		.eabi_attribute 28, 1
   7              		.eabi_attribute 20, 1
   8              		.eabi_attribute 21, 1
   9              		.eabi_attribute 23, 3
  10              		.eabi_attribute 24, 1
  11              		.eabi_attribute 25, 1
  12              		.eabi_attribute 26, 1
  13              		.eabi_attribute 30, 2
  14              		.eabi_attribute 34, 1
  15              		.eabi_attribute 38, 1
  16              		.eabi_attribute 18, 4
  17              		.file	"bsp_sdmmc2.c"
  18              		.text
  19              	.Ltext0:
  20              		.cfi_sections	.debug_frame
  21              		.section	.text.bsp_sdmmc2_init,"ax",%progbits
  22              		.align	1
  23              		.p2align 2,,3
  24              		.global	bsp_sdmmc2_init
  25              		.arch armv8.1-m.main
  26              		.arch_extension dsp
  27              		.arch_extension fp
  28              		.arch_extension fp.dp
  29              		.arch_extension mve
  30              		.syntax unified
  31              		.thumb
  32              		.thumb_func
  33              		.fpu fpv5-d16
  35              	bsp_sdmmc2_init:
  36              	.LFB811:
  37              		.file 1 "App/src/bsp_sdmmc2.c"
   1:App/src/bsp_sdmmc2.c **** /**
   2:App/src/bsp_sdmmc2.c ****   ******************************************************************************
   3:App/src/bsp_sdmmc2.c ****   * @file    bsp_sdmmc2.c
   4:App/src/bsp_sdmmc2.c ****   * @brief   SDMMC2 microSD 驱动实现
   5:App/src/bsp_sdmmc2.c ****   * @author  Lingxi Team
   6:App/src/bsp_sdmmc2.c ****   * @version v3.2
   7:App/src/bsp_sdmmc2.c ****   * @date    2026-05-15
   8:App/src/bsp_sdmmc2.c ****   ******************************************************************************
   9:App/src/bsp_sdmmc2.c ****   * @attention
  10:App/src/bsp_sdmmc2.c ****   * - SDMMC2 原生控制器，4-bit 模式
  11:App/src/bsp_sdmmc2.c ****   * - 支持 SD/SDHC/SDXC
  12:App/src/bsp_sdmmc2.c ****   ******************************************************************************
  13:App/src/bsp_sdmmc2.c ****   */
  14:App/src/bsp_sdmmc2.c **** 
  15:App/src/bsp_sdmmc2.c **** #include "bsp_sdmmc2.h"
  16:App/src/bsp_sdmmc2.c **** #include "stm32n6xx_hal_sd.h"
  17:App/src/bsp_sdmmc2.c **** 
  18:App/src/bsp_sdmmc2.c **** /* =============================================================================
  19:App/src/bsp_sdmmc2.c ****  * 私有变量
  20:App/src/bsp_sdmmc2.c ****  * ==========================================================================*/
  21:App/src/bsp_sdmmc2.c **** static SD_HandleTypeDef hsd2;
ARM GAS  /tmp/cciSlyUQ.s 			page 2


  22:App/src/bsp_sdmmc2.c **** static volatile uint8_t s_sdmmc2_initialized = 0;
  23:App/src/bsp_sdmmc2.c **** static volatile uint8_t s_sdmmc2_card_present = 0;
  24:App/src/bsp_sdmmc2.c **** 
  25:App/src/bsp_sdmmc2.c **** /* =============================================================================
  26:App/src/bsp_sdmmc2.c ****  * 私有函数声明
  27:App/src/bsp_sdmmc2.c ****  * ==========================================================================*/
  28:App/src/bsp_sdmmc2.c **** static lingxi_err_t sdmmc2_card_init(void);
  29:App/src/bsp_sdmmc2.c **** static void sdmmc2_irq_handler(void);
  30:App/src/bsp_sdmmc2.c **** 
  31:App/src/bsp_sdmmc2.c **** /* =============================================================================
  32:App/src/bsp_sdmmc2.c ****  * 函数实现
  33:App/src/bsp_sdmmc2.c ****  * ==========================================================================*/
  34:App/src/bsp_sdmmc2.c **** 
  35:App/src/bsp_sdmmc2.c **** /**
  36:App/src/bsp_sdmmc2.c ****  * @brief  初始化 SDMMC2
  37:App/src/bsp_sdmmc2.c ****  */
  38:App/src/bsp_sdmmc2.c **** lingxi_err_t bsp_sdmmc2_init(void)
  39:App/src/bsp_sdmmc2.c **** {
  38              		.loc 1 39 1 view -0
  39              		.cfi_startproc
  40              		@ args = 0, pretend = 0, frame = 8
  41              		@ frame_needed = 0, uses_anonymous_args = 0
  40:App/src/bsp_sdmmc2.c ****     HAL_StatusTypeDef status;
  42              		.loc 1 40 5 view .LVU1
  41:App/src/bsp_sdmmc2.c **** 
  42:App/src/bsp_sdmmc2.c ****     /* 检查卡是否插入 */
  43:App/src/bsp_sdmmc2.c ****     if (!bsp_sdmmc2_is_present()) {
  43              		.loc 1 43 5 view .LVU2
  44              	.LBB14:
  45              	.LBI14:
  44:App/src/bsp_sdmmc2.c ****         LX_ERR_PRINT("SDMMC2: no card detected");
  45:App/src/bsp_sdmmc2.c ****         return LINGXI_ERR_IO;
  46:App/src/bsp_sdmmc2.c ****     }
  47:App/src/bsp_sdmmc2.c **** 
  48:App/src/bsp_sdmmc2.c ****     /* 启动时钟 */
  49:App/src/bsp_sdmmc2.c ****     __HAL_RCC_SDMMC2_CLK_ENABLE();
  50:App/src/bsp_sdmmc2.c ****     __HAL_RCC_SDMMC2_FORCE_RESET();
  51:App/src/bsp_sdmmc2.c ****     __HAL_RCC_SDMMC2_RELEASE_RESET();
  52:App/src/bsp_sdmmc2.c **** 
  53:App/src/bsp_sdmmc2.c ****     /* 配置 SDMMC2 */
  54:App/src/bsp_sdmmc2.c ****     hsd2.Instance = SDMMC2_PERIPH;
  55:App/src/bsp_sdmmc2.c ****     hsd2.Init.ClockEdge = SDMMC_CLOCK_EDGE_RISING;
  56:App/src/bsp_sdmmc2.c ****     hsd2.Init.ClockPowerSave = SDMMC_CLOCK_POWER_SAVE_DISABLE;
  57:App/src/bsp_sdmmc2.c ****     hsd2.Init.BusWide = SDMMC_BUS_WIDE_4B;
  58:App/src/bsp_sdmmc2.c ****     hsd2.Init.HardwareFlowControl = SDMMC_HARDWARE_FLOW_CONTROL_DISABLE;
  59:App/src/bsp_sdmmc2.c ****     hsd2.Init.ClockDiv = 2;  /* 200MHz / (2+2) = 50MHz */
  60:App/src/bsp_sdmmc2.c **** 
  61:App/src/bsp_sdmmc2.c ****     status = HAL_SD_Init(&hsd2);
  62:App/src/bsp_sdmmc2.c ****     if (status != HAL_OK) {
  63:App/src/bsp_sdmmc2.c ****         LX_ERR_PRINT("SDMMC2 HAL_SD_Init failed: %d", status);
  64:App/src/bsp_sdmmc2.c ****         return LINGXI_ERR_IO;
  65:App/src/bsp_sdmmc2.c ****     }
  66:App/src/bsp_sdmmc2.c **** 
  67:App/src/bsp_sdmmc2.c ****     /* 切换到 4-bit 模式 */
  68:App/src/bsp_sdmmc2.c ****     status = HAL_SD_ConfigWideBusOperation(&hsd2, SDMMC_BUS_WIDE_4B);
  69:App/src/bsp_sdmmc2.c ****     if (status != HAL_OK) {
  70:App/src/bsp_sdmmc2.c ****         LX_ERR_PRINT("SDMMC2 wide bus config failed: %d", status);
ARM GAS  /tmp/cciSlyUQ.s 			page 3


  71:App/src/bsp_sdmmc2.c ****         HAL_SD_DeInit(&hsd2);
  72:App/src/bsp_sdmmc2.c ****         return LINGXI_ERR_IO;
  73:App/src/bsp_sdmmc2.c ****     }
  74:App/src/bsp_sdmmc2.c **** 
  75:App/src/bsp_sdmmc2.c ****     s_sdmmc2_initialized = 1;
  76:App/src/bsp_sdmmc2.c ****     s_sdmmc2_card_present = 1;
  77:App/src/bsp_sdmmc2.c **** 
  78:App/src/bsp_sdmmc2.c ****     LX_DEBUG_PRINT("SDMMC2 initialized, clock=%lu Hz", HAL_SD_GetCardState(&hsd2));
  79:App/src/bsp_sdmmc2.c ****     return LINGXI_OK;
  80:App/src/bsp_sdmmc2.c **** }
  81:App/src/bsp_sdmmc2.c **** 
  82:App/src/bsp_sdmmc2.c **** /**
  83:App/src/bsp_sdmmc2.c ****  * @brief  检测卡是否插入
  84:App/src/bsp_sdmmc2.c ****  */
  85:App/src/bsp_sdmmc2.c **** bool bsp_sdmmc2_is_present(void)
  46              		.loc 1 85 6 view .LVU3
  47              	.LBB15:
  86:App/src/bsp_sdmmc2.c **** {
  87:App/src/bsp_sdmmc2.c ****     return (HAL_GPIO_ReadPin(SDMMC2_CD_GPIO_PORT, SDMMC2_CD_PIN) == GPIO_PIN_RESET);
  48              		.loc 1 87 5 view .LVU4
  49              	.LBE15:
  50              	.LBE14:
  39:App/src/bsp_sdmmc2.c ****     HAL_StatusTypeDef status;
  51              		.loc 1 39 1 is_stmt 0 view .LVU5
  52 0000 F0B5     		push	{r4, r5, r6, r7, lr}
  53              		.cfi_def_cfa_offset 20
  54              		.cfi_offset 4, -20
  55              		.cfi_offset 5, -16
  56              		.cfi_offset 6, -12
  57              		.cfi_offset 7, -8
  58              		.cfi_offset 14, -4
  59              	.LBB18:
  60              	.LBB16:
  61              		.loc 1 87 13 view .LVU6
  62 0002 0821     		movs	r1, #8
  63              	.LBE16:
  64              	.LBE18:
  39:App/src/bsp_sdmmc2.c ****     HAL_StatusTypeDef status;
  65              		.loc 1 39 1 view .LVU7
  66 0004 83B0     		sub	sp, sp, #12
  67              		.cfi_def_cfa_offset 32
  68              	.LBB19:
  69              	.LBB17:
  70              		.loc 1 87 13 view .LVU8
  71 0006 1948     		ldr	r0, .L10
  72 0008 FFF7FEFF 		bl	HAL_GPIO_ReadPin
  73              	.LVL0:
  74              	.LBE17:
  75              	.LBE19:
  43:App/src/bsp_sdmmc2.c ****         LX_ERR_PRINT("SDMMC2: no card detected");
  76              		.loc 1 43 8 view .LVU9
  77 000c 50BB     		cbnz	r0, .L7
  49:App/src/bsp_sdmmc2.c ****     __HAL_RCC_SDMMC2_FORCE_RESET();
  78              		.loc 1 49 5 is_stmt 1 view .LVU10
  79              	.LVL1:
  80              	.LBB20:
  81              	.LBI20:
ARM GAS  /tmp/cciSlyUQ.s 			page 4


  82              		.file 2 "Drivers/STM32N6xx_HAL_Driver/Inc/stm32n6xx_ll_bus.h"
   1:Drivers/STM32N6xx_HAL_Driver/Inc/stm32n6xx_ll_bus.h **** /**
   2:Drivers/STM32N6xx_HAL_Driver/Inc/stm32n6xx_ll_bus.h ****   ******************************************************************************
   3:Drivers/STM32N6xx_HAL_Driver/Inc/stm32n6xx_ll_bus.h ****   * @file    stm32n6xx_ll_bus.h
   4:Drivers/STM32N6xx_HAL_Driver/Inc/stm32n6xx_ll_bus.h ****   * @author  MCD Application Team
   5:Drivers/STM32N6xx_HAL_Driver/Inc/stm32n6xx_ll_bus.h ****   * @brief   Header file of BUS LL module.
   6:Drivers/STM32N6xx_HAL_Driver/Inc/stm32n6xx_ll_bus.h ****   ******************************************************************************
   7:Drivers/STM32N6xx_HAL_Driver/Inc/stm32n6xx_ll_bus.h ****   * @attention
   8:Drivers/STM32N6xx_HAL_Driver/Inc/stm32n6xx_ll_bus.h ****   *
   9:Drivers/STM32N6xx_HAL_Driver/Inc/stm32n6xx_ll_bus.h ****   * Copyright (c) 2023 STMicroelectronics.
  10:Drivers/STM32N6xx_HAL_Driver/Inc/stm32n6xx_ll_bus.h ****   * All rights reserved.
  11:Drivers/STM32N6xx_HAL_Driver/Inc/stm32n6xx_ll_bus.h ****   *
  12:Drivers/STM32N6xx_HAL_Driver/Inc/stm32n6xx_ll_bus.h ****   * This software is licensed under terms that can be found in the LICENSE file
  13:Drivers/STM32N6xx_HAL_Driver/Inc/stm32n6xx_ll_bus.h ****   * in the root directory of this software component.
  14:Drivers/STM32N6xx_HAL_Driver/Inc/stm32n6xx_ll_bus.h ****   * If no LICENSE file comes with this software, it is provided AS-IS.
  15:Drivers/STM32N6xx_HAL_Driver/Inc/stm32n6xx_ll_bus.h ****   *
  16:Drivers/STM32N6xx_HAL_Driver/Inc/stm32n6xx_ll_bus.h ****   ******************************************************************************
  17:Drivers/STM32N6xx_HAL_Driver/Inc/stm32n6xx_ll_bus.h ****   @verbatim
  18:Drivers/STM32N6xx_HAL_Driver/Inc/stm32n6xx_ll_bus.h ****                       ##### RCC Limitations #####
  19:Drivers/STM32N6xx_HAL_Driver/Inc/stm32n6xx_ll_bus.h ****   ==============================================================================
  20:Drivers/STM32N6xx_HAL_Driver/Inc/stm32n6xx_ll_bus.h ****     [..]
  21:Drivers/STM32N6xx_HAL_Driver/Inc/stm32n6xx_ll_bus.h ****       A delay between an RCC peripheral clock enable and the effective peripheral
  22:Drivers/STM32N6xx_HAL_Driver/Inc/stm32n6xx_ll_bus.h ****       enabling should be taken into account in order to manage the peripheral read/write
  23:Drivers/STM32N6xx_HAL_Driver/Inc/stm32n6xx_ll_bus.h ****       from/to registers.
  24:Drivers/STM32N6xx_HAL_Driver/Inc/stm32n6xx_ll_bus.h ****       (+) This delay depends on the peripheral mapping.
  25:Drivers/STM32N6xx_HAL_Driver/Inc/stm32n6xx_ll_bus.h ****         (++) AHB & APB peripherals, 1 dummy read is necessary
  26:Drivers/STM32N6xx_HAL_Driver/Inc/stm32n6xx_ll_bus.h **** 
  27:Drivers/STM32N6xx_HAL_Driver/Inc/stm32n6xx_ll_bus.h ****     [..]
  28:Drivers/STM32N6xx_HAL_Driver/Inc/stm32n6xx_ll_bus.h ****       Workarounds:
  29:Drivers/STM32N6xx_HAL_Driver/Inc/stm32n6xx_ll_bus.h ****       (#) For AHB & APB peripherals, a dummy read to the peripheral register has been
  30:Drivers/STM32N6xx_HAL_Driver/Inc/stm32n6xx_ll_bus.h ****           inserted in each LL_{BUS}_GRP{x}_EnableClock() function.
  31:Drivers/STM32N6xx_HAL_Driver/Inc/stm32n6xx_ll_bus.h **** 
  32:Drivers/STM32N6xx_HAL_Driver/Inc/stm32n6xx_ll_bus.h ****   @endverbatim
  33:Drivers/STM32N6xx_HAL_Driver/Inc/stm32n6xx_ll_bus.h ****   ******************************************************************************
  34:Drivers/STM32N6xx_HAL_Driver/Inc/stm32n6xx_ll_bus.h ****   */
  35:Drivers/STM32N6xx_HAL_Driver/Inc/stm32n6xx_ll_bus.h **** 
  36:Drivers/STM32N6xx_HAL_Driver/Inc/stm32n6xx_ll_bus.h **** /* Define to prevent recursive inclusion -------------------------------------*/
  37:Drivers/STM32N6xx_HAL_Driver/Inc/stm32n6xx_ll_bus.h **** #ifndef STM32N6xx_LL_BUS_H
  38:Drivers/STM32N6xx_HAL_Driver/Inc/stm32n6xx_ll_bus.h **** #define STM32N6xx_LL_BUS_H
  39:Drivers/STM32N6xx_HAL_Driver/Inc/stm32n6xx_ll_bus.h **** 
  40:Drivers/STM32N6xx_HAL_Driver/Inc/stm32n6xx_ll_bus.h **** #ifdef __cplusplus
  41:Drivers/STM32N6xx_HAL_Driver/Inc/stm32n6xx_ll_bus.h **** extern "C" {
  42:Drivers/STM32N6xx_HAL_Driver/Inc/stm32n6xx_ll_bus.h **** #endif
  43:Drivers/STM32N6xx_HAL_Driver/Inc/stm32n6xx_ll_bus.h **** 
  44:Drivers/STM32N6xx_HAL_Driver/Inc/stm32n6xx_ll_bus.h **** /* Includes ------------------------------------------------------------------*/
  45:Drivers/STM32N6xx_HAL_Driver/Inc/stm32n6xx_ll_bus.h **** #include "stm32n6xx.h"
  46:Drivers/STM32N6xx_HAL_Driver/Inc/stm32n6xx_ll_bus.h **** 
  47:Drivers/STM32N6xx_HAL_Driver/Inc/stm32n6xx_ll_bus.h **** /** @addtogroup STM32N6xx_LL_Driver
  48:Drivers/STM32N6xx_HAL_Driver/Inc/stm32n6xx_ll_bus.h ****   * @{
  49:Drivers/STM32N6xx_HAL_Driver/Inc/stm32n6xx_ll_bus.h ****   */
  50:Drivers/STM32N6xx_HAL_Driver/Inc/stm32n6xx_ll_bus.h **** #if defined(RCC)
  51:Drivers/STM32N6xx_HAL_Driver/Inc/stm32n6xx_ll_bus.h **** 
  52:Drivers/STM32N6xx_HAL_Driver/Inc/stm32n6xx_ll_bus.h **** /** @defgroup BUS_LL BUS
  53:Drivers/STM32N6xx_HAL_Driver/Inc/stm32n6xx_ll_bus.h ****   * @{
  54:Drivers/STM32N6xx_HAL_Driver/Inc/stm32n6xx_ll_bus.h ****   */
  55:Drivers/STM32N6xx_HAL_Driver/Inc/stm32n6xx_ll_bus.h **** 
  56:Drivers/STM32N6xx_HAL_Driver/Inc/stm32n6xx_ll_bus.h **** /* Private variables ---------------------------------------------------------*/
ARM GAS  /tmp/cciSlyUQ.s 			page 5


  57:Drivers/STM32N6xx_HAL_Driver/Inc/stm32n6xx_ll_bus.h **** 
  58:Drivers/STM32N6xx_HAL_Driver/Inc/stm32n6xx_ll_bus.h **** /* Private constants ---------------------------------------------------------*/
  59:Drivers/STM32N6xx_HAL_Driver/Inc/stm32n6xx_ll_bus.h **** 
  60:Drivers/STM32N6xx_HAL_Driver/Inc/stm32n6xx_ll_bus.h **** /* Private macros ------------------------------------------------------------*/
  61:Drivers/STM32N6xx_HAL_Driver/Inc/stm32n6xx_ll_bus.h **** 
  62:Drivers/STM32N6xx_HAL_Driver/Inc/stm32n6xx_ll_bus.h **** /* Exported types ------------------------------------------------------------*/
  63:Drivers/STM32N6xx_HAL_Driver/Inc/stm32n6xx_ll_bus.h **** 
  64:Drivers/STM32N6xx_HAL_Driver/Inc/stm32n6xx_ll_bus.h **** /* Exported constants --------------------------------------------------------*/
  65:Drivers/STM32N6xx_HAL_Driver/Inc/stm32n6xx_ll_bus.h **** /** @defgroup BUS_LL_Exported_Constants BUS Exported Constants
  66:Drivers/STM32N6xx_HAL_Driver/Inc/stm32n6xx_ll_bus.h ****   * @{
  67:Drivers/STM32N6xx_HAL_Driver/Inc/stm32n6xx_ll_bus.h ****   */
  68:Drivers/STM32N6xx_HAL_Driver/Inc/stm32n6xx_ll_bus.h **** 
  69:Drivers/STM32N6xx_HAL_Driver/Inc/stm32n6xx_ll_bus.h **** /** @defgroup BUS_LL_EC_AXI  AXI
  70:Drivers/STM32N6xx_HAL_Driver/Inc/stm32n6xx_ll_bus.h ****   * @{
  71:Drivers/STM32N6xx_HAL_Driver/Inc/stm32n6xx_ll_bus.h ****   */
  72:Drivers/STM32N6xx_HAL_Driver/Inc/stm32n6xx_ll_bus.h **** #define LL_ACLKN                           RCC_BUSENR_ACLKNEN
  73:Drivers/STM32N6xx_HAL_Driver/Inc/stm32n6xx_ll_bus.h **** #define LL_ACLKNC                          RCC_BUSENR_ACLKNCEN
  74:Drivers/STM32N6xx_HAL_Driver/Inc/stm32n6xx_ll_bus.h **** #define LL_AHBM                            RCC_BUSENR_AHBMEN
  75:Drivers/STM32N6xx_HAL_Driver/Inc/stm32n6xx_ll_bus.h **** #define LL_AHB1                            RCC_BUSENR_AHB1EN
  76:Drivers/STM32N6xx_HAL_Driver/Inc/stm32n6xx_ll_bus.h **** #define LL_AHB2                            RCC_BUSENR_AHB2EN
  77:Drivers/STM32N6xx_HAL_Driver/Inc/stm32n6xx_ll_bus.h **** #define LL_AHB3                            RCC_BUSENR_AHB3EN
  78:Drivers/STM32N6xx_HAL_Driver/Inc/stm32n6xx_ll_bus.h **** #define LL_AHB4                            RCC_BUSENR_AHB4EN
  79:Drivers/STM32N6xx_HAL_Driver/Inc/stm32n6xx_ll_bus.h **** #define LL_AHB5                            RCC_BUSENR_AHB5EN
  80:Drivers/STM32N6xx_HAL_Driver/Inc/stm32n6xx_ll_bus.h **** #define LL_APB1                            RCC_BUSENR_APB1EN
  81:Drivers/STM32N6xx_HAL_Driver/Inc/stm32n6xx_ll_bus.h **** #define LL_APB2                            RCC_BUSENR_APB2EN
  82:Drivers/STM32N6xx_HAL_Driver/Inc/stm32n6xx_ll_bus.h **** #define LL_APB3                            RCC_BUSENR_APB3EN
  83:Drivers/STM32N6xx_HAL_Driver/Inc/stm32n6xx_ll_bus.h **** #define LL_APB4                            RCC_BUSENR_APB4EN
  84:Drivers/STM32N6xx_HAL_Driver/Inc/stm32n6xx_ll_bus.h **** #define LL_APB5                            RCC_BUSENR_APB5EN
  85:Drivers/STM32N6xx_HAL_Driver/Inc/stm32n6xx_ll_bus.h **** /**
  86:Drivers/STM32N6xx_HAL_Driver/Inc/stm32n6xx_ll_bus.h ****   * @}
  87:Drivers/STM32N6xx_HAL_Driver/Inc/stm32n6xx_ll_bus.h ****   */
  88:Drivers/STM32N6xx_HAL_Driver/Inc/stm32n6xx_ll_bus.h **** 
  89:Drivers/STM32N6xx_HAL_Driver/Inc/stm32n6xx_ll_bus.h **** /** @defgroup BUS_LL_EC_MEM  MEM
  90:Drivers/STM32N6xx_HAL_Driver/Inc/stm32n6xx_ll_bus.h ****   * @{
  91:Drivers/STM32N6xx_HAL_Driver/Inc/stm32n6xx_ll_bus.h ****   */
  92:Drivers/STM32N6xx_HAL_Driver/Inc/stm32n6xx_ll_bus.h **** #define LL_MEM_AXISRAM1                    RCC_MEMENR_AXISRAM1EN
  93:Drivers/STM32N6xx_HAL_Driver/Inc/stm32n6xx_ll_bus.h **** #define LL_MEM_AXISRAM2                    RCC_MEMENR_AXISRAM2EN
  94:Drivers/STM32N6xx_HAL_Driver/Inc/stm32n6xx_ll_bus.h **** #define LL_MEM_AXISRAM3                    RCC_MEMENR_AXISRAM3EN
  95:Drivers/STM32N6xx_HAL_Driver/Inc/stm32n6xx_ll_bus.h **** #define LL_MEM_AXISRAM4                    RCC_MEMENR_AXISRAM4EN
  96:Drivers/STM32N6xx_HAL_Driver/Inc/stm32n6xx_ll_bus.h **** #define LL_MEM_AXISRAM5                    RCC_MEMENR_AXISRAM5EN
  97:Drivers/STM32N6xx_HAL_Driver/Inc/stm32n6xx_ll_bus.h **** #define LL_MEM_AXISRAM6                    RCC_MEMENR_AXISRAM6EN
  98:Drivers/STM32N6xx_HAL_Driver/Inc/stm32n6xx_ll_bus.h **** #define LL_MEM_AHBSRAM1                    RCC_MEMENR_AHBSRAM1EN
  99:Drivers/STM32N6xx_HAL_Driver/Inc/stm32n6xx_ll_bus.h **** #define LL_MEM_AHBSRAM2                    RCC_MEMENR_AHBSRAM2EN
 100:Drivers/STM32N6xx_HAL_Driver/Inc/stm32n6xx_ll_bus.h **** #define LL_MEM_BKPSRAM                     RCC_MEMENR_BKPSRAMEN
 101:Drivers/STM32N6xx_HAL_Driver/Inc/stm32n6xx_ll_bus.h **** #define LL_MEM_FLEXRAM                     RCC_MEMENR_FLEXRAMEN
 102:Drivers/STM32N6xx_HAL_Driver/Inc/stm32n6xx_ll_bus.h **** #define LL_MEM_CACHEAXIRAM                 RCC_MEMENR_CACHEAXIRAMEN
 103:Drivers/STM32N6xx_HAL_Driver/Inc/stm32n6xx_ll_bus.h **** #define LL_MEM_VENCRAM                     RCC_MEMENR_VENCRAMEN
 104:Drivers/STM32N6xx_HAL_Driver/Inc/stm32n6xx_ll_bus.h **** #define LL_MEM_BOOTROM                     RCC_MEMENR_BOOTROMEN
 105:Drivers/STM32N6xx_HAL_Driver/Inc/stm32n6xx_ll_bus.h **** /**
 106:Drivers/STM32N6xx_HAL_Driver/Inc/stm32n6xx_ll_bus.h ****   * @}
 107:Drivers/STM32N6xx_HAL_Driver/Inc/stm32n6xx_ll_bus.h ****   */
 108:Drivers/STM32N6xx_HAL_Driver/Inc/stm32n6xx_ll_bus.h **** 
 109:Drivers/STM32N6xx_HAL_Driver/Inc/stm32n6xx_ll_bus.h **** /** @defgroup BUS_LL_EC_AHB1_GRP1_PERIPH  AHB1 GRP1 PERIPH
 110:Drivers/STM32N6xx_HAL_Driver/Inc/stm32n6xx_ll_bus.h ****   * @{
 111:Drivers/STM32N6xx_HAL_Driver/Inc/stm32n6xx_ll_bus.h ****   */
 112:Drivers/STM32N6xx_HAL_Driver/Inc/stm32n6xx_ll_bus.h **** #define LL_AHB1_GRP1_PERIPH_ADC12          RCC_AHB1ENR_ADC12EN
 113:Drivers/STM32N6xx_HAL_Driver/Inc/stm32n6xx_ll_bus.h **** #define LL_AHB1_GRP1_PERIPH_GPDMA1         RCC_AHB1ENR_GPDMA1EN
ARM GAS  /tmp/cciSlyUQ.s 			page 6


 114:Drivers/STM32N6xx_HAL_Driver/Inc/stm32n6xx_ll_bus.h **** #define LL_AHB1_GRP1_PERIPH_ALL            (LL_AHB1_GRP1_PERIPH_ADC12 | LL_AHB1_GRP1_PERIPH_GPDMA1)
 115:Drivers/STM32N6xx_HAL_Driver/Inc/stm32n6xx_ll_bus.h **** /**
 116:Drivers/STM32N6xx_HAL_Driver/Inc/stm32n6xx_ll_bus.h ****   * @}
 117:Drivers/STM32N6xx_HAL_Driver/Inc/stm32n6xx_ll_bus.h ****   */
 118:Drivers/STM32N6xx_HAL_Driver/Inc/stm32n6xx_ll_bus.h **** 
 119:Drivers/STM32N6xx_HAL_Driver/Inc/stm32n6xx_ll_bus.h **** /** @defgroup BUS_LL_EC_AHB2_GRP1_PERIPH  AHB2 GRP1 PERIPH
 120:Drivers/STM32N6xx_HAL_Driver/Inc/stm32n6xx_ll_bus.h ****   * @{
 121:Drivers/STM32N6xx_HAL_Driver/Inc/stm32n6xx_ll_bus.h ****   */
 122:Drivers/STM32N6xx_HAL_Driver/Inc/stm32n6xx_ll_bus.h **** #define LL_AHB2_GRP1_PERIPH_ADF1           RCC_AHB2ENR_ADF1EN
 123:Drivers/STM32N6xx_HAL_Driver/Inc/stm32n6xx_ll_bus.h **** #define LL_AHB2_GRP1_PERIPH_MDF1           RCC_AHB2ENR_MDF1EN
 124:Drivers/STM32N6xx_HAL_Driver/Inc/stm32n6xx_ll_bus.h **** #define LL_AHB2_GRP1_PERIPH_RAMCFG         RCC_AHB2ENR_RAMCFGEN
 125:Drivers/STM32N6xx_HAL_Driver/Inc/stm32n6xx_ll_bus.h **** #define LL_AHB2_GRP1_PERIPH_ALL            (LL_AHB2_GRP1_PERIPH_ADF1 | LL_AHB2_GRP1_PERIPH_MDF1 | \
 126:Drivers/STM32N6xx_HAL_Driver/Inc/stm32n6xx_ll_bus.h ****                                             LL_AHB2_GRP1_PERIPH_RAMCFG)
 127:Drivers/STM32N6xx_HAL_Driver/Inc/stm32n6xx_ll_bus.h **** /**
 128:Drivers/STM32N6xx_HAL_Driver/Inc/stm32n6xx_ll_bus.h ****   * @}
 129:Drivers/STM32N6xx_HAL_Driver/Inc/stm32n6xx_ll_bus.h ****   */
 130:Drivers/STM32N6xx_HAL_Driver/Inc/stm32n6xx_ll_bus.h **** 
 131:Drivers/STM32N6xx_HAL_Driver/Inc/stm32n6xx_ll_bus.h **** /** @defgroup BUS_LL_EC_AHB3_GRP1_PERIPH  AHB3 GRP1 PERIPH
 132:Drivers/STM32N6xx_HAL_Driver/Inc/stm32n6xx_ll_bus.h ****   * @{
 133:Drivers/STM32N6xx_HAL_Driver/Inc/stm32n6xx_ll_bus.h ****   */
 134:Drivers/STM32N6xx_HAL_Driver/Inc/stm32n6xx_ll_bus.h **** #if defined(CRYP)
 135:Drivers/STM32N6xx_HAL_Driver/Inc/stm32n6xx_ll_bus.h **** #define LL_AHB3_GRP1_PERIPH_CRYP           RCC_AHB3ENR_CRYPEN
 136:Drivers/STM32N6xx_HAL_Driver/Inc/stm32n6xx_ll_bus.h **** #else
 137:Drivers/STM32N6xx_HAL_Driver/Inc/stm32n6xx_ll_bus.h **** #define LL_AHB3_GRP1_PERIPH_CRYP
 138:Drivers/STM32N6xx_HAL_Driver/Inc/stm32n6xx_ll_bus.h **** #endif /* CRYP */
 139:Drivers/STM32N6xx_HAL_Driver/Inc/stm32n6xx_ll_bus.h **** #define LL_AHB3_GRP1_PERIPH_HASH           RCC_AHB3ENR_HASHEN
 140:Drivers/STM32N6xx_HAL_Driver/Inc/stm32n6xx_ll_bus.h **** #define LL_AHB3_GRP1_PERIPH_IAC            RCC_AHB3ENR_IACEN
 141:Drivers/STM32N6xx_HAL_Driver/Inc/stm32n6xx_ll_bus.h **** #if defined(PKA)
 142:Drivers/STM32N6xx_HAL_Driver/Inc/stm32n6xx_ll_bus.h **** #define LL_AHB3_GRP1_PERIPH_PKA            RCC_AHB3ENR_PKAEN
 143:Drivers/STM32N6xx_HAL_Driver/Inc/stm32n6xx_ll_bus.h **** #else
 144:Drivers/STM32N6xx_HAL_Driver/Inc/stm32n6xx_ll_bus.h **** #define LL_AHB3_GRP1_PERIPH_PKA
 145:Drivers/STM32N6xx_HAL_Driver/Inc/stm32n6xx_ll_bus.h **** #endif /* PKA */
 146:Drivers/STM32N6xx_HAL_Driver/Inc/stm32n6xx_ll_bus.h **** #define LL_AHB3_GRP1_PERIPH_RIFSC          RCC_AHB3ENR_RIFSCEN
 147:Drivers/STM32N6xx_HAL_Driver/Inc/stm32n6xx_ll_bus.h **** #define LL_AHB3_GRP1_PERIPH_RISAF          RCC_AHB3ENR_RISAFEN
 148:Drivers/STM32N6xx_HAL_Driver/Inc/stm32n6xx_ll_bus.h **** #define LL_AHB3_GRP1_PERIPH_RNG            RCC_AHB3ENR_RNGEN
 149:Drivers/STM32N6xx_HAL_Driver/Inc/stm32n6xx_ll_bus.h **** #if defined(SAES)
 150:Drivers/STM32N6xx_HAL_Driver/Inc/stm32n6xx_ll_bus.h **** #define LL_AHB3_GRP1_PERIPH_SAES           RCC_AHB3ENR_SAESEN
 151:Drivers/STM32N6xx_HAL_Driver/Inc/stm32n6xx_ll_bus.h **** #else
 152:Drivers/STM32N6xx_HAL_Driver/Inc/stm32n6xx_ll_bus.h **** #define LL_AHB3_GRP1_PERIPH_SAES
 153:Drivers/STM32N6xx_HAL_Driver/Inc/stm32n6xx_ll_bus.h **** #endif /* SAES */
 154:Drivers/STM32N6xx_HAL_Driver/Inc/stm32n6xx_ll_bus.h **** #define LL_AHB3_GRP1_PERIPH_ALL            (LL_AHB3_GRP1_PERIPH_CRYP  | LL_AHB3_GRP1_PERIPH_HASH  |
 155:Drivers/STM32N6xx_HAL_Driver/Inc/stm32n6xx_ll_bus.h ****                                             LL_AHB3_GRP1_PERIPH_IAC   | LL_AHB3_GRP1_PERIPH_PKA   |
 156:Drivers/STM32N6xx_HAL_Driver/Inc/stm32n6xx_ll_bus.h ****                                             LL_AHB3_GRP1_PERIPH_RIFSC | LL_AHB3_GRP1_PERIPH_RISAF |
 157:Drivers/STM32N6xx_HAL_Driver/Inc/stm32n6xx_ll_bus.h ****                                             LL_AHB3_GRP1_PERIPH_RNG   | LL_AHB3_GRP1_PERIPH_SAES)
 158:Drivers/STM32N6xx_HAL_Driver/Inc/stm32n6xx_ll_bus.h **** /**
 159:Drivers/STM32N6xx_HAL_Driver/Inc/stm32n6xx_ll_bus.h ****   * @}
 160:Drivers/STM32N6xx_HAL_Driver/Inc/stm32n6xx_ll_bus.h ****   */
 161:Drivers/STM32N6xx_HAL_Driver/Inc/stm32n6xx_ll_bus.h **** 
 162:Drivers/STM32N6xx_HAL_Driver/Inc/stm32n6xx_ll_bus.h **** /** @defgroup BUS_LL_EC_AHB4_GRP1_PERIPH  AHB4 GRP1 PERIPH
 163:Drivers/STM32N6xx_HAL_Driver/Inc/stm32n6xx_ll_bus.h ****   * @{
 164:Drivers/STM32N6xx_HAL_Driver/Inc/stm32n6xx_ll_bus.h ****   */
 165:Drivers/STM32N6xx_HAL_Driver/Inc/stm32n6xx_ll_bus.h **** #define LL_AHB4_GRP1_PERIPH_CRC            RCC_AHB4ENR_CRCEN
 166:Drivers/STM32N6xx_HAL_Driver/Inc/stm32n6xx_ll_bus.h **** #define LL_AHB4_GRP1_PERIPH_GPIOA          RCC_AHB4ENR_GPIOAEN
 167:Drivers/STM32N6xx_HAL_Driver/Inc/stm32n6xx_ll_bus.h **** #define LL_AHB4_GRP1_PERIPH_GPIOB          RCC_AHB4ENR_GPIOBEN
 168:Drivers/STM32N6xx_HAL_Driver/Inc/stm32n6xx_ll_bus.h **** #define LL_AHB4_GRP1_PERIPH_GPIOC          RCC_AHB4ENR_GPIOCEN
 169:Drivers/STM32N6xx_HAL_Driver/Inc/stm32n6xx_ll_bus.h **** #define LL_AHB4_GRP1_PERIPH_GPIOD          RCC_AHB4ENR_GPIODEN
 170:Drivers/STM32N6xx_HAL_Driver/Inc/stm32n6xx_ll_bus.h **** #define LL_AHB4_GRP1_PERIPH_GPIOE          RCC_AHB4ENR_GPIOEEN
ARM GAS  /tmp/cciSlyUQ.s 			page 7


 171:Drivers/STM32N6xx_HAL_Driver/Inc/stm32n6xx_ll_bus.h **** #define LL_AHB4_GRP1_PERIPH_GPIOF          RCC_AHB4ENR_GPIOFEN
 172:Drivers/STM32N6xx_HAL_Driver/Inc/stm32n6xx_ll_bus.h **** #define LL_AHB4_GRP1_PERIPH_GPIOG          RCC_AHB4ENR_GPIOGEN
 173:Drivers/STM32N6xx_HAL_Driver/Inc/stm32n6xx_ll_bus.h **** #define LL_AHB4_GRP1_PERIPH_GPIOH          RCC_AHB4ENR_GPIOHEN
 174:Drivers/STM32N6xx_HAL_Driver/Inc/stm32n6xx_ll_bus.h **** #define LL_AHB4_GRP1_PERIPH_GPION          RCC_AHB4ENR_GPIONEN
 175:Drivers/STM32N6xx_HAL_Driver/Inc/stm32n6xx_ll_bus.h **** #define LL_AHB4_GRP1_PERIPH_GPIOO          RCC_AHB4ENR_GPIOOEN
 176:Drivers/STM32N6xx_HAL_Driver/Inc/stm32n6xx_ll_bus.h **** #define LL_AHB4_GRP1_PERIPH_GPIOP          RCC_AHB4ENR_GPIOPEN
 177:Drivers/STM32N6xx_HAL_Driver/Inc/stm32n6xx_ll_bus.h **** #define LL_AHB4_GRP1_PERIPH_GPIOQ          RCC_AHB4ENR_GPIOQEN
 178:Drivers/STM32N6xx_HAL_Driver/Inc/stm32n6xx_ll_bus.h **** #define LL_AHB4_GRP1_PERIPH_PWR            RCC_AHB4ENR_PWREN
 179:Drivers/STM32N6xx_HAL_Driver/Inc/stm32n6xx_ll_bus.h **** #define LL_AHB4_GRP1_PERIPH_ALL            (LL_AHB4_GRP1_PERIPH_CRC   | LL_AHB4_GRP1_PERIPH_GPIOA |
 180:Drivers/STM32N6xx_HAL_Driver/Inc/stm32n6xx_ll_bus.h ****                                             LL_AHB4_GRP1_PERIPH_GPIOB | LL_AHB4_GRP1_PERIPH_GPIOC |
 181:Drivers/STM32N6xx_HAL_Driver/Inc/stm32n6xx_ll_bus.h ****                                             LL_AHB4_GRP1_PERIPH_GPIOD | LL_AHB4_GRP1_PERIPH_GPIOE |
 182:Drivers/STM32N6xx_HAL_Driver/Inc/stm32n6xx_ll_bus.h ****                                             LL_AHB4_GRP1_PERIPH_GPIOF | LL_AHB4_GRP1_PERIPH_GPIOG |
 183:Drivers/STM32N6xx_HAL_Driver/Inc/stm32n6xx_ll_bus.h ****                                             LL_AHB4_GRP1_PERIPH_GPIOH | LL_AHB4_GRP1_PERIPH_GPION |
 184:Drivers/STM32N6xx_HAL_Driver/Inc/stm32n6xx_ll_bus.h ****                                             LL_AHB4_GRP1_PERIPH_GPIOO | LL_AHB4_GRP1_PERIPH_GPIOP |
 185:Drivers/STM32N6xx_HAL_Driver/Inc/stm32n6xx_ll_bus.h ****                                             LL_AHB4_GRP1_PERIPH_GPIOQ | LL_AHB4_GRP1_PERIPH_PWR)
 186:Drivers/STM32N6xx_HAL_Driver/Inc/stm32n6xx_ll_bus.h **** /**
 187:Drivers/STM32N6xx_HAL_Driver/Inc/stm32n6xx_ll_bus.h ****   * @}
 188:Drivers/STM32N6xx_HAL_Driver/Inc/stm32n6xx_ll_bus.h ****   */
 189:Drivers/STM32N6xx_HAL_Driver/Inc/stm32n6xx_ll_bus.h **** 
 190:Drivers/STM32N6xx_HAL_Driver/Inc/stm32n6xx_ll_bus.h **** /** @defgroup BUS_LL_EC_AHB5_GRP1_PERIPH  AHB5 GRP1 PERIPH
 191:Drivers/STM32N6xx_HAL_Driver/Inc/stm32n6xx_ll_bus.h ****   * @{
 192:Drivers/STM32N6xx_HAL_Driver/Inc/stm32n6xx_ll_bus.h ****   */
 193:Drivers/STM32N6xx_HAL_Driver/Inc/stm32n6xx_ll_bus.h **** #define LL_AHB5_GRP1_PERIPH_DMA2D             RCC_AHB5ENR_DMA2DEN
 194:Drivers/STM32N6xx_HAL_Driver/Inc/stm32n6xx_ll_bus.h **** #define LL_AHB5_GRP1_PERIPH_ETH1              RCC_AHB5ENR_ETH1EN
 195:Drivers/STM32N6xx_HAL_Driver/Inc/stm32n6xx_ll_bus.h **** #define LL_AHB5_GRP1_PERIPH_ETH1MAC           RCC_AHB5ENR_ETH1MACEN
 196:Drivers/STM32N6xx_HAL_Driver/Inc/stm32n6xx_ll_bus.h **** #define LL_AHB5_GRP1_PERIPH_ETH1TX            RCC_AHB5ENR_ETH1TXEN
 197:Drivers/STM32N6xx_HAL_Driver/Inc/stm32n6xx_ll_bus.h **** #define LL_AHB5_GRP1_PERIPH_ETH1RX            RCC_AHB5ENR_ETH1RXEN
 198:Drivers/STM32N6xx_HAL_Driver/Inc/stm32n6xx_ll_bus.h **** #define LL_AHB5_GRP1_PERIPH_FMC               RCC_AHB5ENR_FMCEN
 199:Drivers/STM32N6xx_HAL_Driver/Inc/stm32n6xx_ll_bus.h **** #define LL_AHB5_GRP1_PERIPH_GFXMMU            RCC_AHB5ENR_GFXMMUEN
 200:Drivers/STM32N6xx_HAL_Driver/Inc/stm32n6xx_ll_bus.h **** #define LL_AHB5_GRP1_PERIPH_GPU2D             RCC_AHB5ENR_GPU2DEN
 201:Drivers/STM32N6xx_HAL_Driver/Inc/stm32n6xx_ll_bus.h **** #define LL_AHB5_GRP1_PERIPH_HPDMA1            RCC_AHB5ENR_HPDMA1EN
 202:Drivers/STM32N6xx_HAL_Driver/Inc/stm32n6xx_ll_bus.h **** #define LL_AHB5_GRP1_PERIPH_XSPI1             RCC_AHB5ENR_XSPI1EN
 203:Drivers/STM32N6xx_HAL_Driver/Inc/stm32n6xx_ll_bus.h **** #define LL_AHB5_GRP1_PERIPH_XSPI2             RCC_AHB5ENR_XSPI2EN
 204:Drivers/STM32N6xx_HAL_Driver/Inc/stm32n6xx_ll_bus.h **** #define LL_AHB5_GRP1_PERIPH_XSPI3             RCC_AHB5ENR_XSPI3EN
 205:Drivers/STM32N6xx_HAL_Driver/Inc/stm32n6xx_ll_bus.h **** #define LL_AHB5_GRP1_PERIPH_XSPIM             RCC_AHB5ENR_XSPIMEN
 206:Drivers/STM32N6xx_HAL_Driver/Inc/stm32n6xx_ll_bus.h **** #define LL_AHB5_GRP1_PERIPH_JPEG              RCC_AHB5ENR_JPEGEN
 207:Drivers/STM32N6xx_HAL_Driver/Inc/stm32n6xx_ll_bus.h **** #define LL_AHB5_GRP1_PERIPH_MCE1              RCC_AHB5ENR_MCE1EN
 208:Drivers/STM32N6xx_HAL_Driver/Inc/stm32n6xx_ll_bus.h **** #define LL_AHB5_GRP1_PERIPH_MCE2              RCC_AHB5ENR_MCE2EN
 209:Drivers/STM32N6xx_HAL_Driver/Inc/stm32n6xx_ll_bus.h **** #define LL_AHB5_GRP1_PERIPH_MCE3              RCC_AHB5ENR_MCE3EN
 210:Drivers/STM32N6xx_HAL_Driver/Inc/stm32n6xx_ll_bus.h **** #define LL_AHB5_GRP1_PERIPH_MCE4              RCC_AHB5ENR_MCE4EN
 211:Drivers/STM32N6xx_HAL_Driver/Inc/stm32n6xx_ll_bus.h **** #define LL_AHB5_GRP1_PERIPH_CACHEAXI          RCC_AHB5ENR_CACHEAXIEN
 212:Drivers/STM32N6xx_HAL_Driver/Inc/stm32n6xx_ll_bus.h **** #define LL_AHB5_GRP1_PERIPH_NPU               RCC_AHB5ENR_NPUEN
 213:Drivers/STM32N6xx_HAL_Driver/Inc/stm32n6xx_ll_bus.h **** #define LL_AHB5_GRP1_PERIPH_OTG1              RCC_AHB5ENR_OTG1EN
 214:Drivers/STM32N6xx_HAL_Driver/Inc/stm32n6xx_ll_bus.h **** #define LL_AHB5_GRP1_PERIPH_OTG2              RCC_AHB5ENR_OTG2EN
 215:Drivers/STM32N6xx_HAL_Driver/Inc/stm32n6xx_ll_bus.h **** #define LL_AHB5_GRP1_PERIPH_OTGPHY1           RCC_AHB5ENR_OTGPHY1EN
 216:Drivers/STM32N6xx_HAL_Driver/Inc/stm32n6xx_ll_bus.h **** #define LL_AHB5_GRP1_PERIPH_OTGPHY2           RCC_AHB5ENR_OTGPHY2EN
 217:Drivers/STM32N6xx_HAL_Driver/Inc/stm32n6xx_ll_bus.h **** #define LL_AHB5_GRP1_PERIPH_OTG1PHYCTL        RCC_AHB5RSTR_OTG1PHYCTLRST
 218:Drivers/STM32N6xx_HAL_Driver/Inc/stm32n6xx_ll_bus.h **** #define LL_AHB5_GRP1_PERIPH_OTG2PHYCTL        RCC_AHB5RSTR_OTG2PHYCTLRST
 219:Drivers/STM32N6xx_HAL_Driver/Inc/stm32n6xx_ll_bus.h **** #define LL_AHB5_GRP1_PERIPH_PSSI              RCC_AHB5ENR_PSSIEN
 220:Drivers/STM32N6xx_HAL_Driver/Inc/stm32n6xx_ll_bus.h **** #define LL_AHB5_GRP1_PERIPH_SDMMC1            RCC_AHB5ENR_SDMMC1EN
 221:Drivers/STM32N6xx_HAL_Driver/Inc/stm32n6xx_ll_bus.h **** #define LL_AHB5_GRP1_PERIPH_SDMMC2            RCC_AHB5ENR_SDMMC2EN
 222:Drivers/STM32N6xx_HAL_Driver/Inc/stm32n6xx_ll_bus.h **** #define LL_AHB5_GRP1_PERIPH_ALL            (LL_AHB5_GRP1_PERIPH_DMA2D    | LL_AHB5_GRP1_PERIPH_ETH1
 223:Drivers/STM32N6xx_HAL_Driver/Inc/stm32n6xx_ll_bus.h ****                                             LL_AHB5_GRP1_PERIPH_ETH1MAC  | LL_AHB5_GRP1_PERIPH_ETH1
 224:Drivers/STM32N6xx_HAL_Driver/Inc/stm32n6xx_ll_bus.h ****                                             LL_AHB5_GRP1_PERIPH_ETH1RX   | LL_AHB5_GRP1_PERIPH_FMC 
 225:Drivers/STM32N6xx_HAL_Driver/Inc/stm32n6xx_ll_bus.h ****                                             LL_AHB5_GRP1_PERIPH_GFXMMU   | LL_AHB5_GRP1_PERIPH_GPU2
 226:Drivers/STM32N6xx_HAL_Driver/Inc/stm32n6xx_ll_bus.h ****                                             LL_AHB5_GRP1_PERIPH_HPDMA1   | LL_AHB5_GRP1_PERIPH_XSPI
 227:Drivers/STM32N6xx_HAL_Driver/Inc/stm32n6xx_ll_bus.h ****                                             LL_AHB5_GRP1_PERIPH_XSPI2    | LL_AHB5_GRP1_PERIPH_XSPI
ARM GAS  /tmp/cciSlyUQ.s 			page 8


 228:Drivers/STM32N6xx_HAL_Driver/Inc/stm32n6xx_ll_bus.h ****                                             LL_AHB5_GRP1_PERIPH_XSPIM    | LL_AHB5_GRP1_PERIPH_JPEG
 229:Drivers/STM32N6xx_HAL_Driver/Inc/stm32n6xx_ll_bus.h ****                                             LL_AHB5_GRP1_PERIPH_MCE1     | LL_AHB5_GRP1_PERIPH_MCE2
 230:Drivers/STM32N6xx_HAL_Driver/Inc/stm32n6xx_ll_bus.h ****                                             LL_AHB5_GRP1_PERIPH_MCE3     | LL_AHB5_GRP1_PERIPH_MCE4
 231:Drivers/STM32N6xx_HAL_Driver/Inc/stm32n6xx_ll_bus.h ****                                             LL_AHB5_GRP1_PERIPH_CACHEAXI | LL_AHB5_GRP1_PERIPH_NPU 
 232:Drivers/STM32N6xx_HAL_Driver/Inc/stm32n6xx_ll_bus.h ****                                             LL_AHB5_GRP1_PERIPH_OTG1     | LL_AHB5_GRP1_PERIPH_OTG2
 233:Drivers/STM32N6xx_HAL_Driver/Inc/stm32n6xx_ll_bus.h ****                                             LL_AHB5_GRP1_PERIPH_OTGPHY1  | LL_AHB5_GRP1_PERIPH_OTGP
 234:Drivers/STM32N6xx_HAL_Driver/Inc/stm32n6xx_ll_bus.h ****                                             LL_AHB5_GRP1_PERIPH_PSSI     | LL_AHB5_GRP1_PERIPH_SDMM
 235:Drivers/STM32N6xx_HAL_Driver/Inc/stm32n6xx_ll_bus.h ****                                             LL_AHB5_GRP1_PERIPH_SDMMC2)
 236:Drivers/STM32N6xx_HAL_Driver/Inc/stm32n6xx_ll_bus.h **** /**
 237:Drivers/STM32N6xx_HAL_Driver/Inc/stm32n6xx_ll_bus.h ****   * @}
 238:Drivers/STM32N6xx_HAL_Driver/Inc/stm32n6xx_ll_bus.h ****   */
 239:Drivers/STM32N6xx_HAL_Driver/Inc/stm32n6xx_ll_bus.h **** 
 240:Drivers/STM32N6xx_HAL_Driver/Inc/stm32n6xx_ll_bus.h **** /** @defgroup BUS_LL_EC_APB1_GRP1_PERIPH  APB1 GRP1 PERIPH
 241:Drivers/STM32N6xx_HAL_Driver/Inc/stm32n6xx_ll_bus.h ****   * @{
 242:Drivers/STM32N6xx_HAL_Driver/Inc/stm32n6xx_ll_bus.h ****   */
 243:Drivers/STM32N6xx_HAL_Driver/Inc/stm32n6xx_ll_bus.h **** #define LL_APB1_GRP1_PERIPH_I2C1           RCC_APB1ENR1_I2C1EN
 244:Drivers/STM32N6xx_HAL_Driver/Inc/stm32n6xx_ll_bus.h **** #define LL_APB1_GRP1_PERIPH_I2C2           RCC_APB1ENR1_I2C2EN
 245:Drivers/STM32N6xx_HAL_Driver/Inc/stm32n6xx_ll_bus.h **** #define LL_APB1_GRP1_PERIPH_I2C3           RCC_APB1ENR1_I2C3EN
 246:Drivers/STM32N6xx_HAL_Driver/Inc/stm32n6xx_ll_bus.h **** #define LL_APB1_GRP1_PERIPH_I3C1           RCC_APB1ENR1_I3C1EN
 247:Drivers/STM32N6xx_HAL_Driver/Inc/stm32n6xx_ll_bus.h **** #define LL_APB1_GRP1_PERIPH_I3C2           RCC_APB1ENR1_I3C2EN
 248:Drivers/STM32N6xx_HAL_Driver/Inc/stm32n6xx_ll_bus.h **** #define LL_APB1_GRP1_PERIPH_LPTIM1         RCC_APB1ENR1_LPTIM1EN
 249:Drivers/STM32N6xx_HAL_Driver/Inc/stm32n6xx_ll_bus.h **** #define LL_APB1_GRP1_PERIPH_SPDIFRX1       RCC_APB1ENR1_SPDIFRX1EN
 250:Drivers/STM32N6xx_HAL_Driver/Inc/stm32n6xx_ll_bus.h **** #define LL_APB1_GRP1_PERIPH_SPI2           RCC_APB1ENR1_SPI2EN
 251:Drivers/STM32N6xx_HAL_Driver/Inc/stm32n6xx_ll_bus.h **** #define LL_APB1_GRP1_PERIPH_SPI3           RCC_APB1ENR1_SPI3EN
 252:Drivers/STM32N6xx_HAL_Driver/Inc/stm32n6xx_ll_bus.h **** #define LL_APB1_GRP1_PERIPH_TIM2           RCC_APB1ENR1_TIM2EN
 253:Drivers/STM32N6xx_HAL_Driver/Inc/stm32n6xx_ll_bus.h **** #define LL_APB1_GRP1_PERIPH_TIM3           RCC_APB1ENR1_TIM3EN
 254:Drivers/STM32N6xx_HAL_Driver/Inc/stm32n6xx_ll_bus.h **** #define LL_APB1_GRP1_PERIPH_TIM4           RCC_APB1ENR1_TIM4EN
 255:Drivers/STM32N6xx_HAL_Driver/Inc/stm32n6xx_ll_bus.h **** #define LL_APB1_GRP1_PERIPH_TIM5           RCC_APB1ENR1_TIM5EN
 256:Drivers/STM32N6xx_HAL_Driver/Inc/stm32n6xx_ll_bus.h **** #define LL_APB1_GRP1_PERIPH_TIM6           RCC_APB1ENR1_TIM6EN
 257:Drivers/STM32N6xx_HAL_Driver/Inc/stm32n6xx_ll_bus.h **** #define LL_APB1_GRP1_PERIPH_TIM7           RCC_APB1ENR1_TIM7EN
 258:Drivers/STM32N6xx_HAL_Driver/Inc/stm32n6xx_ll_bus.h **** #define LL_APB1_GRP1_PERIPH_TIM10          RCC_APB1ENR1_TIM10EN
 259:Drivers/STM32N6xx_HAL_Driver/Inc/stm32n6xx_ll_bus.h **** #define LL_APB1_GRP1_PERIPH_TIM11          RCC_APB1ENR1_TIM11EN
 260:Drivers/STM32N6xx_HAL_Driver/Inc/stm32n6xx_ll_bus.h **** #define LL_APB1_GRP1_PERIPH_TIM12          RCC_APB1ENR1_TIM12EN
 261:Drivers/STM32N6xx_HAL_Driver/Inc/stm32n6xx_ll_bus.h **** #define LL_APB1_GRP1_PERIPH_TIM13          RCC_APB1ENR1_TIM13EN
 262:Drivers/STM32N6xx_HAL_Driver/Inc/stm32n6xx_ll_bus.h **** #define LL_APB1_GRP1_PERIPH_TIM14          RCC_APB1ENR1_TIM14EN
 263:Drivers/STM32N6xx_HAL_Driver/Inc/stm32n6xx_ll_bus.h **** #define LL_APB1_GRP1_PERIPH_USART2         RCC_APB1ENR1_USART2EN
 264:Drivers/STM32N6xx_HAL_Driver/Inc/stm32n6xx_ll_bus.h **** #define LL_APB1_GRP1_PERIPH_USART3         RCC_APB1ENR1_USART3EN
 265:Drivers/STM32N6xx_HAL_Driver/Inc/stm32n6xx_ll_bus.h **** #define LL_APB1_GRP1_PERIPH_UART4          RCC_APB1ENR1_UART4EN
 266:Drivers/STM32N6xx_HAL_Driver/Inc/stm32n6xx_ll_bus.h **** #define LL_APB1_GRP1_PERIPH_UART5          RCC_APB1ENR1_UART5EN
 267:Drivers/STM32N6xx_HAL_Driver/Inc/stm32n6xx_ll_bus.h **** #define LL_APB1_GRP1_PERIPH_UART7          RCC_APB1ENR1_UART7EN
 268:Drivers/STM32N6xx_HAL_Driver/Inc/stm32n6xx_ll_bus.h **** #define LL_APB1_GRP1_PERIPH_UART8          RCC_APB1ENR1_UART8EN
 269:Drivers/STM32N6xx_HAL_Driver/Inc/stm32n6xx_ll_bus.h **** #define LL_APB1_GRP1_PERIPH_WWDG           RCC_APB1ENR1_WWDGEN
 270:Drivers/STM32N6xx_HAL_Driver/Inc/stm32n6xx_ll_bus.h **** #define LL_APB1_GRP1_PERIPH_ALL            (LL_APB1_GRP1_PERIPH_I2C1     | LL_APB1_GRP1_PERIPH_I2C2
 271:Drivers/STM32N6xx_HAL_Driver/Inc/stm32n6xx_ll_bus.h ****                                             LL_APB1_GRP1_PERIPH_I2C3     | LL_APB1_GRP1_PERIPH_I3C1
 272:Drivers/STM32N6xx_HAL_Driver/Inc/stm32n6xx_ll_bus.h ****                                             LL_APB1_GRP1_PERIPH_I3C2     | LL_APB1_GRP1_PERIPH_LPTI
 273:Drivers/STM32N6xx_HAL_Driver/Inc/stm32n6xx_ll_bus.h ****                                             LL_APB1_GRP1_PERIPH_SPDIFRX1 | LL_APB1_GRP1_PERIPH_SPI2
 274:Drivers/STM32N6xx_HAL_Driver/Inc/stm32n6xx_ll_bus.h ****                                             LL_APB1_GRP1_PERIPH_SPI3     | LL_APB1_GRP1_PERIPH_TIM2
 275:Drivers/STM32N6xx_HAL_Driver/Inc/stm32n6xx_ll_bus.h ****                                             LL_APB1_GRP1_PERIPH_TIM3     | LL_APB1_GRP1_PERIPH_TIM4
 276:Drivers/STM32N6xx_HAL_Driver/Inc/stm32n6xx_ll_bus.h ****                                             LL_APB1_GRP1_PERIPH_TIM5     | LL_APB1_GRP1_PERIPH_TIM6
 277:Drivers/STM32N6xx_HAL_Driver/Inc/stm32n6xx_ll_bus.h ****                                             LL_APB1_GRP1_PERIPH_TIM7     | LL_APB1_GRP1_PERIPH_TIM1
 278:Drivers/STM32N6xx_HAL_Driver/Inc/stm32n6xx_ll_bus.h ****                                             LL_APB1_GRP1_PERIPH_TIM11    | LL_APB1_GRP1_PERIPH_TIM1
 279:Drivers/STM32N6xx_HAL_Driver/Inc/stm32n6xx_ll_bus.h ****                                             LL_APB1_GRP1_PERIPH_TIM13    | LL_APB1_GRP1_PERIPH_TIM1
 280:Drivers/STM32N6xx_HAL_Driver/Inc/stm32n6xx_ll_bus.h ****                                             LL_APB1_GRP1_PERIPH_USART2   | LL_APB1_GRP1_PERIPH_USAR
 281:Drivers/STM32N6xx_HAL_Driver/Inc/stm32n6xx_ll_bus.h ****                                             LL_APB1_GRP1_PERIPH_UART4    | LL_APB1_GRP1_PERIPH_UART
 282:Drivers/STM32N6xx_HAL_Driver/Inc/stm32n6xx_ll_bus.h ****                                             LL_APB1_GRP1_PERIPH_UART7    | LL_APB1_GRP1_PERIPH_UART
 283:Drivers/STM32N6xx_HAL_Driver/Inc/stm32n6xx_ll_bus.h ****                                             LL_APB1_GRP1_PERIPH_WWDG)
 284:Drivers/STM32N6xx_HAL_Driver/Inc/stm32n6xx_ll_bus.h **** /**
ARM GAS  /tmp/cciSlyUQ.s 			page 9


 285:Drivers/STM32N6xx_HAL_Driver/Inc/stm32n6xx_ll_bus.h ****   * @}
 286:Drivers/STM32N6xx_HAL_Driver/Inc/stm32n6xx_ll_bus.h ****   */
 287:Drivers/STM32N6xx_HAL_Driver/Inc/stm32n6xx_ll_bus.h **** 
 288:Drivers/STM32N6xx_HAL_Driver/Inc/stm32n6xx_ll_bus.h **** /** @defgroup BUS_LL_EC_APB1_GRP2_PERIPH  APB1 GRP2 PERIPH
 289:Drivers/STM32N6xx_HAL_Driver/Inc/stm32n6xx_ll_bus.h ****   * @{
 290:Drivers/STM32N6xx_HAL_Driver/Inc/stm32n6xx_ll_bus.h ****   */
 291:Drivers/STM32N6xx_HAL_Driver/Inc/stm32n6xx_ll_bus.h **** #define LL_APB1_GRP2_PERIPH_FDCAN          RCC_APB1ENR2_FDCANEN
 292:Drivers/STM32N6xx_HAL_Driver/Inc/stm32n6xx_ll_bus.h **** #define LL_APB1_GRP2_PERIPH_MDIOS          RCC_APB1ENR2_MDIOSEN
 293:Drivers/STM32N6xx_HAL_Driver/Inc/stm32n6xx_ll_bus.h **** #define LL_APB1_GRP2_PERIPH_UCPD1          RCC_APB1ENR2_UCPD1EN
 294:Drivers/STM32N6xx_HAL_Driver/Inc/stm32n6xx_ll_bus.h **** #define LL_APB1_GRP2_PERIPH_ALL            (LL_APB1_GRP2_PERIPH_FDCAN | LL_APB1_GRP2_PERIPH_MDIOS |
 295:Drivers/STM32N6xx_HAL_Driver/Inc/stm32n6xx_ll_bus.h ****                                             LL_APB1_GRP2_PERIPH_UCPD1)
 296:Drivers/STM32N6xx_HAL_Driver/Inc/stm32n6xx_ll_bus.h **** /**
 297:Drivers/STM32N6xx_HAL_Driver/Inc/stm32n6xx_ll_bus.h ****   * @}
 298:Drivers/STM32N6xx_HAL_Driver/Inc/stm32n6xx_ll_bus.h ****   */
 299:Drivers/STM32N6xx_HAL_Driver/Inc/stm32n6xx_ll_bus.h **** 
 300:Drivers/STM32N6xx_HAL_Driver/Inc/stm32n6xx_ll_bus.h **** /** @defgroup BUS_LL_EC_APB2_GRP1_PERIPH  APB2 GRP1 PERIPH
 301:Drivers/STM32N6xx_HAL_Driver/Inc/stm32n6xx_ll_bus.h ****   * @{
 302:Drivers/STM32N6xx_HAL_Driver/Inc/stm32n6xx_ll_bus.h ****   */
 303:Drivers/STM32N6xx_HAL_Driver/Inc/stm32n6xx_ll_bus.h **** #define LL_APB2_GRP1_PERIPH_SAI1           RCC_APB2ENR_SAI1EN
 304:Drivers/STM32N6xx_HAL_Driver/Inc/stm32n6xx_ll_bus.h **** #define LL_APB2_GRP1_PERIPH_SAI2           RCC_APB2ENR_SAI2EN
 305:Drivers/STM32N6xx_HAL_Driver/Inc/stm32n6xx_ll_bus.h **** #define LL_APB2_GRP1_PERIPH_SPI1           RCC_APB2ENR_SPI1EN
 306:Drivers/STM32N6xx_HAL_Driver/Inc/stm32n6xx_ll_bus.h **** #define LL_APB2_GRP1_PERIPH_SPI4           RCC_APB2ENR_SPI4EN
 307:Drivers/STM32N6xx_HAL_Driver/Inc/stm32n6xx_ll_bus.h **** #define LL_APB2_GRP1_PERIPH_SPI5           RCC_APB2ENR_SPI5EN
 308:Drivers/STM32N6xx_HAL_Driver/Inc/stm32n6xx_ll_bus.h **** #define LL_APB2_GRP1_PERIPH_TIM1           RCC_APB2ENR_TIM1EN
 309:Drivers/STM32N6xx_HAL_Driver/Inc/stm32n6xx_ll_bus.h **** #define LL_APB2_GRP1_PERIPH_TIM8           RCC_APB2ENR_TIM8EN
 310:Drivers/STM32N6xx_HAL_Driver/Inc/stm32n6xx_ll_bus.h **** #define LL_APB2_GRP1_PERIPH_TIM9           RCC_APB2ENR_TIM9EN
 311:Drivers/STM32N6xx_HAL_Driver/Inc/stm32n6xx_ll_bus.h **** #define LL_APB2_GRP1_PERIPH_TIM15          RCC_APB2ENR_TIM15EN
 312:Drivers/STM32N6xx_HAL_Driver/Inc/stm32n6xx_ll_bus.h **** #define LL_APB2_GRP1_PERIPH_TIM16          RCC_APB2ENR_TIM16EN
 313:Drivers/STM32N6xx_HAL_Driver/Inc/stm32n6xx_ll_bus.h **** #define LL_APB2_GRP1_PERIPH_TIM17          RCC_APB2ENR_TIM17EN
 314:Drivers/STM32N6xx_HAL_Driver/Inc/stm32n6xx_ll_bus.h **** #define LL_APB2_GRP1_PERIPH_TIM18          RCC_APB2ENR_TIM18EN
 315:Drivers/STM32N6xx_HAL_Driver/Inc/stm32n6xx_ll_bus.h **** #define LL_APB2_GRP1_PERIPH_USART1         RCC_APB2ENR_USART1EN
 316:Drivers/STM32N6xx_HAL_Driver/Inc/stm32n6xx_ll_bus.h **** #define LL_APB2_GRP1_PERIPH_USART6         RCC_APB2ENR_USART6EN
 317:Drivers/STM32N6xx_HAL_Driver/Inc/stm32n6xx_ll_bus.h **** #define LL_APB2_GRP1_PERIPH_UART9          RCC_APB2ENR_UART9EN
 318:Drivers/STM32N6xx_HAL_Driver/Inc/stm32n6xx_ll_bus.h **** #define LL_APB2_GRP1_PERIPH_USART10        RCC_APB2ENR_USART10EN
 319:Drivers/STM32N6xx_HAL_Driver/Inc/stm32n6xx_ll_bus.h **** #define LL_APB2_GRP1_PERIPH_ALL            (LL_APB2_GRP1_PERIPH_SAI1   | LL_APB2_GRP1_PERIPH_SAI2  
 320:Drivers/STM32N6xx_HAL_Driver/Inc/stm32n6xx_ll_bus.h ****                                             LL_APB2_GRP1_PERIPH_SPI1   | LL_APB2_GRP1_PERIPH_SPI4  
 321:Drivers/STM32N6xx_HAL_Driver/Inc/stm32n6xx_ll_bus.h ****                                             LL_APB2_GRP1_PERIPH_SPI5   | LL_APB2_GRP1_PERIPH_TIM1  
 322:Drivers/STM32N6xx_HAL_Driver/Inc/stm32n6xx_ll_bus.h ****                                             LL_APB2_GRP1_PERIPH_TIM8   | LL_APB2_GRP1_PERIPH_TIM9  
 323:Drivers/STM32N6xx_HAL_Driver/Inc/stm32n6xx_ll_bus.h ****                                             LL_APB2_GRP1_PERIPH_TIM15  | LL_APB2_GRP1_PERIPH_TIM16 
 324:Drivers/STM32N6xx_HAL_Driver/Inc/stm32n6xx_ll_bus.h ****                                             LL_APB2_GRP1_PERIPH_TIM17  | LL_APB2_GRP1_PERIPH_TIM18 
 325:Drivers/STM32N6xx_HAL_Driver/Inc/stm32n6xx_ll_bus.h ****                                             LL_APB2_GRP1_PERIPH_USART1 | LL_APB2_GRP1_PERIPH_USART6
 326:Drivers/STM32N6xx_HAL_Driver/Inc/stm32n6xx_ll_bus.h ****                                             LL_APB2_GRP1_PERIPH_UART9  | LL_APB2_GRP1_PERIPH_USART1
 327:Drivers/STM32N6xx_HAL_Driver/Inc/stm32n6xx_ll_bus.h **** /**
 328:Drivers/STM32N6xx_HAL_Driver/Inc/stm32n6xx_ll_bus.h ****   * @}
 329:Drivers/STM32N6xx_HAL_Driver/Inc/stm32n6xx_ll_bus.h ****   */
 330:Drivers/STM32N6xx_HAL_Driver/Inc/stm32n6xx_ll_bus.h **** 
 331:Drivers/STM32N6xx_HAL_Driver/Inc/stm32n6xx_ll_bus.h **** /** @defgroup BUS_LL_EC_APB4_GRP1_PERIPH  APB4 GRP1 PERIPH
 332:Drivers/STM32N6xx_HAL_Driver/Inc/stm32n6xx_ll_bus.h ****   * @{
 333:Drivers/STM32N6xx_HAL_Driver/Inc/stm32n6xx_ll_bus.h ****   */
 334:Drivers/STM32N6xx_HAL_Driver/Inc/stm32n6xx_ll_bus.h **** #define LL_APB4_GRP1_PERIPH_HDP            RCC_APB4ENR1_HDPEN
 335:Drivers/STM32N6xx_HAL_Driver/Inc/stm32n6xx_ll_bus.h **** #define LL_APB4_GRP1_PERIPH_I2C4           RCC_APB4ENR1_I2C4EN
 336:Drivers/STM32N6xx_HAL_Driver/Inc/stm32n6xx_ll_bus.h **** #define LL_APB4_GRP1_PERIPH_LPTIM2         RCC_APB4ENR1_LPTIM2EN
 337:Drivers/STM32N6xx_HAL_Driver/Inc/stm32n6xx_ll_bus.h **** #define LL_APB4_GRP1_PERIPH_LPTIM3         RCC_APB4ENR1_LPTIM3EN
 338:Drivers/STM32N6xx_HAL_Driver/Inc/stm32n6xx_ll_bus.h **** #define LL_APB4_GRP1_PERIPH_LPTIM4         RCC_APB4ENR1_LPTIM4EN
 339:Drivers/STM32N6xx_HAL_Driver/Inc/stm32n6xx_ll_bus.h **** #define LL_APB4_GRP1_PERIPH_LPTIM5         RCC_APB4ENR1_LPTIM5EN
 340:Drivers/STM32N6xx_HAL_Driver/Inc/stm32n6xx_ll_bus.h **** #define LL_APB4_GRP1_PERIPH_LPUART1        RCC_APB4ENR1_LPUART1EN
 341:Drivers/STM32N6xx_HAL_Driver/Inc/stm32n6xx_ll_bus.h **** #define LL_APB4_GRP1_PERIPH_RTC            RCC_APB4ENR1_RTCEN
ARM GAS  /tmp/cciSlyUQ.s 			page 10


 342:Drivers/STM32N6xx_HAL_Driver/Inc/stm32n6xx_ll_bus.h **** #define LL_APB4_GRP1_PERIPH_RTCAPB         RCC_APB4ENR1_RTCAPBEN
 343:Drivers/STM32N6xx_HAL_Driver/Inc/stm32n6xx_ll_bus.h **** #define LL_APB4_GRP1_PERIPH_SPI6           RCC_APB4ENR1_SPI6EN
 344:Drivers/STM32N6xx_HAL_Driver/Inc/stm32n6xx_ll_bus.h **** #define LL_APB4_GRP1_PERIPH_VREFBUF        RCC_APB4ENR1_VREFBUFEN
 345:Drivers/STM32N6xx_HAL_Driver/Inc/stm32n6xx_ll_bus.h **** #define LL_APB4_GRP1_PERIPH_ALL            (LL_APB4_GRP1_PERIPH_HDP     | LL_APB4_GRP1_PERIPH_I2C4 
 346:Drivers/STM32N6xx_HAL_Driver/Inc/stm32n6xx_ll_bus.h ****                                             LL_APB4_GRP1_PERIPH_LPTIM2  | LL_APB4_GRP1_PERIPH_LPTIM
 347:Drivers/STM32N6xx_HAL_Driver/Inc/stm32n6xx_ll_bus.h ****                                             LL_APB4_GRP1_PERIPH_LPTIM4  | LL_APB4_GRP1_PERIPH_LPTIM
 348:Drivers/STM32N6xx_HAL_Driver/Inc/stm32n6xx_ll_bus.h ****                                             LL_APB4_GRP1_PERIPH_LPUART1 | LL_APB4_GRP1_PERIPH_RTC  
 349:Drivers/STM32N6xx_HAL_Driver/Inc/stm32n6xx_ll_bus.h ****                                             LL_APB4_GRP1_PERIPH_RTCAPB  | LL_APB4_GRP1_PERIPH_SPI6 
 350:Drivers/STM32N6xx_HAL_Driver/Inc/stm32n6xx_ll_bus.h ****                                             LL_APB4_GRP1_PERIPH_VREFBUF)
 351:Drivers/STM32N6xx_HAL_Driver/Inc/stm32n6xx_ll_bus.h **** /**
 352:Drivers/STM32N6xx_HAL_Driver/Inc/stm32n6xx_ll_bus.h ****   * @}
 353:Drivers/STM32N6xx_HAL_Driver/Inc/stm32n6xx_ll_bus.h ****   */
 354:Drivers/STM32N6xx_HAL_Driver/Inc/stm32n6xx_ll_bus.h **** 
 355:Drivers/STM32N6xx_HAL_Driver/Inc/stm32n6xx_ll_bus.h **** /** @defgroup BUS_LL_EC_APB4_GRP2_PERIPH  APB4 GRP2 PERIPH
 356:Drivers/STM32N6xx_HAL_Driver/Inc/stm32n6xx_ll_bus.h ****   * @{
 357:Drivers/STM32N6xx_HAL_Driver/Inc/stm32n6xx_ll_bus.h ****   */
 358:Drivers/STM32N6xx_HAL_Driver/Inc/stm32n6xx_ll_bus.h **** #define LL_APB4_GRP2_PERIPH_BSEC           RCC_APB4ENR2_BSECEN
 359:Drivers/STM32N6xx_HAL_Driver/Inc/stm32n6xx_ll_bus.h **** #define LL_APB4_GRP2_PERIPH_DTS            RCC_APB4ENR2_DTSEN
 360:Drivers/STM32N6xx_HAL_Driver/Inc/stm32n6xx_ll_bus.h **** #define LL_APB4_GRP2_PERIPH_SYSCFG         RCC_APB4ENR2_SYSCFGEN
 361:Drivers/STM32N6xx_HAL_Driver/Inc/stm32n6xx_ll_bus.h **** #define LL_APB4_GRP2_PERIPH_ALL            (LL_APB4_GRP2_PERIPH_BSEC | LL_APB4_GRP2_PERIPH_DTS | \
 362:Drivers/STM32N6xx_HAL_Driver/Inc/stm32n6xx_ll_bus.h ****                                             LL_APB4_GRP2_PERIPH_SYSCFG)
 363:Drivers/STM32N6xx_HAL_Driver/Inc/stm32n6xx_ll_bus.h **** /**
 364:Drivers/STM32N6xx_HAL_Driver/Inc/stm32n6xx_ll_bus.h ****   * @}
 365:Drivers/STM32N6xx_HAL_Driver/Inc/stm32n6xx_ll_bus.h ****   */
 366:Drivers/STM32N6xx_HAL_Driver/Inc/stm32n6xx_ll_bus.h **** 
 367:Drivers/STM32N6xx_HAL_Driver/Inc/stm32n6xx_ll_bus.h **** /** @defgroup BUS_LL_EC_APB5_GRP1_PERIPH  APB5 GRP1 PERIPH
 368:Drivers/STM32N6xx_HAL_Driver/Inc/stm32n6xx_ll_bus.h ****   * @{
 369:Drivers/STM32N6xx_HAL_Driver/Inc/stm32n6xx_ll_bus.h ****   */
 370:Drivers/STM32N6xx_HAL_Driver/Inc/stm32n6xx_ll_bus.h **** #define LL_APB5_GRP1_PERIPH_CSI            RCC_APB5ENR_CSIEN
 371:Drivers/STM32N6xx_HAL_Driver/Inc/stm32n6xx_ll_bus.h **** #define LL_APB5_GRP1_PERIPH_DCMIPP         RCC_APB5ENR_DCMIPPEN
 372:Drivers/STM32N6xx_HAL_Driver/Inc/stm32n6xx_ll_bus.h **** #define LL_APB5_GRP1_PERIPH_GFXTIM         RCC_APB5ENR_GFXTIMEN
 373:Drivers/STM32N6xx_HAL_Driver/Inc/stm32n6xx_ll_bus.h **** #define LL_APB5_GRP1_PERIPH_LTDC           RCC_APB5ENR_LTDCEN
 374:Drivers/STM32N6xx_HAL_Driver/Inc/stm32n6xx_ll_bus.h **** #if defined(VENC)
 375:Drivers/STM32N6xx_HAL_Driver/Inc/stm32n6xx_ll_bus.h **** #define LL_APB5_GRP1_PERIPH_VENC           RCC_APB5ENR_VENCEN
 376:Drivers/STM32N6xx_HAL_Driver/Inc/stm32n6xx_ll_bus.h **** #else
 377:Drivers/STM32N6xx_HAL_Driver/Inc/stm32n6xx_ll_bus.h **** #define LL_APB5_GRP1_PERIPH_VENC
 378:Drivers/STM32N6xx_HAL_Driver/Inc/stm32n6xx_ll_bus.h **** #endif /* VENC */
 379:Drivers/STM32N6xx_HAL_Driver/Inc/stm32n6xx_ll_bus.h **** #define LL_APB5_GRP1_PERIPH_ALL            (LL_APB5_GRP1_PERIPH_CSI    | LL_APB5_GRP1_PERIPH_DCMIPP
 380:Drivers/STM32N6xx_HAL_Driver/Inc/stm32n6xx_ll_bus.h ****                                             LL_APB5_GRP1_PERIPH_GFXTIM | LL_APB5_GRP1_PERIPH_LTDC  
 381:Drivers/STM32N6xx_HAL_Driver/Inc/stm32n6xx_ll_bus.h ****                                             LL_APB5_GRP1_PERIPH_VENC)
 382:Drivers/STM32N6xx_HAL_Driver/Inc/stm32n6xx_ll_bus.h **** /**
 383:Drivers/STM32N6xx_HAL_Driver/Inc/stm32n6xx_ll_bus.h ****   * @}
 384:Drivers/STM32N6xx_HAL_Driver/Inc/stm32n6xx_ll_bus.h ****   */
 385:Drivers/STM32N6xx_HAL_Driver/Inc/stm32n6xx_ll_bus.h **** 
 386:Drivers/STM32N6xx_HAL_Driver/Inc/stm32n6xx_ll_bus.h **** /** @defgroup BUS_LL_EC_MISC  MISC
 387:Drivers/STM32N6xx_HAL_Driver/Inc/stm32n6xx_ll_bus.h ****   * @{
 388:Drivers/STM32N6xx_HAL_Driver/Inc/stm32n6xx_ll_bus.h ****   */
 389:Drivers/STM32N6xx_HAL_Driver/Inc/stm32n6xx_ll_bus.h **** #define LL_DBG                             RCC_MISCENR_DBGEN
 390:Drivers/STM32N6xx_HAL_Driver/Inc/stm32n6xx_ll_bus.h **** #define LL_MCO1                            RCC_MISCENR_MCO1EN
 391:Drivers/STM32N6xx_HAL_Driver/Inc/stm32n6xx_ll_bus.h **** #define LL_MCO2                            RCC_MISCENR_MCO2EN
 392:Drivers/STM32N6xx_HAL_Driver/Inc/stm32n6xx_ll_bus.h **** #define LL_XSPIPHYCOMP                     RCC_MISCENR_XSPIPHYCOMPEN
 393:Drivers/STM32N6xx_HAL_Driver/Inc/stm32n6xx_ll_bus.h **** #define LL_XSPIPHY1                        RCC_MISCRSTR_XSPIPHY1RST
 394:Drivers/STM32N6xx_HAL_Driver/Inc/stm32n6xx_ll_bus.h **** #define LL_XSPIPHY2                        RCC_MISCRSTR_XSPIPHY2RST
 395:Drivers/STM32N6xx_HAL_Driver/Inc/stm32n6xx_ll_bus.h **** #define LL_PER                             RCC_MISCENR_PEREN
 396:Drivers/STM32N6xx_HAL_Driver/Inc/stm32n6xx_ll_bus.h **** #define LL_SDMMC1DLL                       RCC_MISCRSTR_SDMMC1DLLRST
 397:Drivers/STM32N6xx_HAL_Driver/Inc/stm32n6xx_ll_bus.h **** #define LL_SDMMC2DLL                       RCC_MISCRSTR_SDMMC2DLLRST
 398:Drivers/STM32N6xx_HAL_Driver/Inc/stm32n6xx_ll_bus.h **** /**
ARM GAS  /tmp/cciSlyUQ.s 			page 11


 399:Drivers/STM32N6xx_HAL_Driver/Inc/stm32n6xx_ll_bus.h ****   * @}
 400:Drivers/STM32N6xx_HAL_Driver/Inc/stm32n6xx_ll_bus.h ****   */
 401:Drivers/STM32N6xx_HAL_Driver/Inc/stm32n6xx_ll_bus.h **** 
 402:Drivers/STM32N6xx_HAL_Driver/Inc/stm32n6xx_ll_bus.h **** /**
 403:Drivers/STM32N6xx_HAL_Driver/Inc/stm32n6xx_ll_bus.h ****   * @}
 404:Drivers/STM32N6xx_HAL_Driver/Inc/stm32n6xx_ll_bus.h ****   */
 405:Drivers/STM32N6xx_HAL_Driver/Inc/stm32n6xx_ll_bus.h **** 
 406:Drivers/STM32N6xx_HAL_Driver/Inc/stm32n6xx_ll_bus.h **** /* Exported macros -----------------------------------------------------------*/
 407:Drivers/STM32N6xx_HAL_Driver/Inc/stm32n6xx_ll_bus.h **** 
 408:Drivers/STM32N6xx_HAL_Driver/Inc/stm32n6xx_ll_bus.h **** /* Exported functions --------------------------------------------------------*/
 409:Drivers/STM32N6xx_HAL_Driver/Inc/stm32n6xx_ll_bus.h **** 
 410:Drivers/STM32N6xx_HAL_Driver/Inc/stm32n6xx_ll_bus.h **** /** @defgroup BUS_LL_Exported_Functions BUS Exported Functions
 411:Drivers/STM32N6xx_HAL_Driver/Inc/stm32n6xx_ll_bus.h ****   * @{
 412:Drivers/STM32N6xx_HAL_Driver/Inc/stm32n6xx_ll_bus.h ****   */
 413:Drivers/STM32N6xx_HAL_Driver/Inc/stm32n6xx_ll_bus.h **** 
 414:Drivers/STM32N6xx_HAL_Driver/Inc/stm32n6xx_ll_bus.h **** /** @defgroup BUS_LL_EF_BUS BUS
 415:Drivers/STM32N6xx_HAL_Driver/Inc/stm32n6xx_ll_bus.h ****   * @{
 416:Drivers/STM32N6xx_HAL_Driver/Inc/stm32n6xx_ll_bus.h ****   */
 417:Drivers/STM32N6xx_HAL_Driver/Inc/stm32n6xx_ll_bus.h **** 
 418:Drivers/STM32N6xx_HAL_Driver/Inc/stm32n6xx_ll_bus.h **** /**
 419:Drivers/STM32N6xx_HAL_Driver/Inc/stm32n6xx_ll_bus.h ****   * @brief  Enable AXI bus clock.
 420:Drivers/STM32N6xx_HAL_Driver/Inc/stm32n6xx_ll_bus.h ****   * @rmtoll BUSENSR      ACLKNENS      LL_BUS_EnableClock\n
 421:Drivers/STM32N6xx_HAL_Driver/Inc/stm32n6xx_ll_bus.h ****   *         BUSENSR      ACLKNCENS     LL_BUS_EnableClock\n
 422:Drivers/STM32N6xx_HAL_Driver/Inc/stm32n6xx_ll_bus.h ****   *         BUSENSR      AHBMENS       LL_BUS_EnableClock\n
 423:Drivers/STM32N6xx_HAL_Driver/Inc/stm32n6xx_ll_bus.h ****   *         BUSENSR      AHB1ENS       LL_BUS_EnableClock\n
 424:Drivers/STM32N6xx_HAL_Driver/Inc/stm32n6xx_ll_bus.h ****   *         BUSENSR      AHB2ENS       LL_BUS_EnableClock\n
 425:Drivers/STM32N6xx_HAL_Driver/Inc/stm32n6xx_ll_bus.h ****   *         BUSENSR      AHB3ENS       LL_BUS_EnableClock\n
 426:Drivers/STM32N6xx_HAL_Driver/Inc/stm32n6xx_ll_bus.h ****   *         BUSENSR      AHB4ENS       LL_BUS_EnableClock\n
 427:Drivers/STM32N6xx_HAL_Driver/Inc/stm32n6xx_ll_bus.h ****   *         BUSENSR      AHB5ENS       LL_BUS_EnableClock\n
 428:Drivers/STM32N6xx_HAL_Driver/Inc/stm32n6xx_ll_bus.h ****   *         BUSENSR      APB1ENS       LL_BUS_EnableClock\n
 429:Drivers/STM32N6xx_HAL_Driver/Inc/stm32n6xx_ll_bus.h ****   *         BUSENSR      APB2ENS       LL_BUS_EnableClock\n
 430:Drivers/STM32N6xx_HAL_Driver/Inc/stm32n6xx_ll_bus.h ****   *         BUSENSR      APB3ENS       LL_BUS_EnableClock\n
 431:Drivers/STM32N6xx_HAL_Driver/Inc/stm32n6xx_ll_bus.h ****   *         BUSENSR      APB4ENS       LL_BUS_EnableClock\n
 432:Drivers/STM32N6xx_HAL_Driver/Inc/stm32n6xx_ll_bus.h ****   *         BUSENSR      APB5ENS       LL_BUS_EnableClock
 433:Drivers/STM32N6xx_HAL_Driver/Inc/stm32n6xx_ll_bus.h ****   * @param  Bus This parameter can be a combination of the following values:
 434:Drivers/STM32N6xx_HAL_Driver/Inc/stm32n6xx_ll_bus.h ****   *         @arg @ref LL_ACLKN
 435:Drivers/STM32N6xx_HAL_Driver/Inc/stm32n6xx_ll_bus.h ****   *         @arg @ref LL_ACLKNC
 436:Drivers/STM32N6xx_HAL_Driver/Inc/stm32n6xx_ll_bus.h ****   *         @arg @ref LL_AHBM
 437:Drivers/STM32N6xx_HAL_Driver/Inc/stm32n6xx_ll_bus.h ****   *         @arg @ref LL_AHB1
 438:Drivers/STM32N6xx_HAL_Driver/Inc/stm32n6xx_ll_bus.h ****   *         @arg @ref LL_AHB2
 439:Drivers/STM32N6xx_HAL_Driver/Inc/stm32n6xx_ll_bus.h ****   *         @arg @ref LL_AHB3
 440:Drivers/STM32N6xx_HAL_Driver/Inc/stm32n6xx_ll_bus.h ****   *         @arg @ref LL_AHB4
 441:Drivers/STM32N6xx_HAL_Driver/Inc/stm32n6xx_ll_bus.h ****   *         @arg @ref LL_AHB5
 442:Drivers/STM32N6xx_HAL_Driver/Inc/stm32n6xx_ll_bus.h ****   *         @arg @ref LL_APB1
 443:Drivers/STM32N6xx_HAL_Driver/Inc/stm32n6xx_ll_bus.h ****   *         @arg @ref LL_APB2
 444:Drivers/STM32N6xx_HAL_Driver/Inc/stm32n6xx_ll_bus.h ****   *         @arg @ref LL_APB3
 445:Drivers/STM32N6xx_HAL_Driver/Inc/stm32n6xx_ll_bus.h ****   *         @arg @ref LL_APB4
 446:Drivers/STM32N6xx_HAL_Driver/Inc/stm32n6xx_ll_bus.h ****   *         @arg @ref LL_APB5
 447:Drivers/STM32N6xx_HAL_Driver/Inc/stm32n6xx_ll_bus.h ****   * @retval None
 448:Drivers/STM32N6xx_HAL_Driver/Inc/stm32n6xx_ll_bus.h ****   */
 449:Drivers/STM32N6xx_HAL_Driver/Inc/stm32n6xx_ll_bus.h **** __STATIC_INLINE void LL_BUS_EnableClock(uint32_t Bus)
 450:Drivers/STM32N6xx_HAL_Driver/Inc/stm32n6xx_ll_bus.h **** {
 451:Drivers/STM32N6xx_HAL_Driver/Inc/stm32n6xx_ll_bus.h ****   __IO uint32_t tmpreg;
 452:Drivers/STM32N6xx_HAL_Driver/Inc/stm32n6xx_ll_bus.h ****   WRITE_REG(RCC->BUSENSR, Bus);
 453:Drivers/STM32N6xx_HAL_Driver/Inc/stm32n6xx_ll_bus.h ****   /* Delay after an RCC bus clock enabling */
 454:Drivers/STM32N6xx_HAL_Driver/Inc/stm32n6xx_ll_bus.h ****   tmpreg = READ_REG(RCC->BUSENR);
 455:Drivers/STM32N6xx_HAL_Driver/Inc/stm32n6xx_ll_bus.h ****   (void)tmpreg;
ARM GAS  /tmp/cciSlyUQ.s 			page 12


 456:Drivers/STM32N6xx_HAL_Driver/Inc/stm32n6xx_ll_bus.h **** }
 457:Drivers/STM32N6xx_HAL_Driver/Inc/stm32n6xx_ll_bus.h **** 
 458:Drivers/STM32N6xx_HAL_Driver/Inc/stm32n6xx_ll_bus.h **** /**
 459:Drivers/STM32N6xx_HAL_Driver/Inc/stm32n6xx_ll_bus.h ****   * @brief  Check if AXI bus clock is enabled or not
 460:Drivers/STM32N6xx_HAL_Driver/Inc/stm32n6xx_ll_bus.h ****   * @rmtoll BUSENR       ACLKNEN       LL_BUS_IsEnabledClock\n
 461:Drivers/STM32N6xx_HAL_Driver/Inc/stm32n6xx_ll_bus.h ****   *         BUSENR       ACLKNCEN      LL_BUS_IsEnabledClock\n
 462:Drivers/STM32N6xx_HAL_Driver/Inc/stm32n6xx_ll_bus.h ****   *         BUSENR       AHBMEN        LL_BUS_IsEnabledClock\n
 463:Drivers/STM32N6xx_HAL_Driver/Inc/stm32n6xx_ll_bus.h ****   *         BUSENR       AHB1EN        LL_BUS_IsEnabledClock\n
 464:Drivers/STM32N6xx_HAL_Driver/Inc/stm32n6xx_ll_bus.h ****   *         BUSENR       AHB2EN        LL_BUS_IsEnabledClock\n
 465:Drivers/STM32N6xx_HAL_Driver/Inc/stm32n6xx_ll_bus.h ****   *         BUSENR       AHB3EN        LL_BUS_IsEnabledClock\n
 466:Drivers/STM32N6xx_HAL_Driver/Inc/stm32n6xx_ll_bus.h ****   *         BUSENR       AHB4EN        LL_BUS_IsEnabledClock\n
 467:Drivers/STM32N6xx_HAL_Driver/Inc/stm32n6xx_ll_bus.h ****   *         BUSENR       AHB5EN        LL_BUS_IsEnabledClock\n
 468:Drivers/STM32N6xx_HAL_Driver/Inc/stm32n6xx_ll_bus.h ****   *         BUSENR       APB1EN        LL_BUS_IsEnabledClock\n
 469:Drivers/STM32N6xx_HAL_Driver/Inc/stm32n6xx_ll_bus.h ****   *         BUSENR       APB2EN        LL_BUS_IsEnabledClock\n
 470:Drivers/STM32N6xx_HAL_Driver/Inc/stm32n6xx_ll_bus.h ****   *         BUSENR       APB3EN        LL_BUS_IsEnabledClock\n
 471:Drivers/STM32N6xx_HAL_Driver/Inc/stm32n6xx_ll_bus.h ****   *         BUSENR       APB4EN        LL_BUS_IsEnabledClock\n
 472:Drivers/STM32N6xx_HAL_Driver/Inc/stm32n6xx_ll_bus.h ****   *         BUSENR       APB5EN        LL_BUS_IsEnabledClock
 473:Drivers/STM32N6xx_HAL_Driver/Inc/stm32n6xx_ll_bus.h ****   * @param  Bus This parameter can be a combination of the following values:
 474:Drivers/STM32N6xx_HAL_Driver/Inc/stm32n6xx_ll_bus.h ****   *         @arg @ref LL_ACLKN
 475:Drivers/STM32N6xx_HAL_Driver/Inc/stm32n6xx_ll_bus.h ****   *         @arg @ref LL_ACLKNC
 476:Drivers/STM32N6xx_HAL_Driver/Inc/stm32n6xx_ll_bus.h ****   *         @arg @ref LL_AHBM
 477:Drivers/STM32N6xx_HAL_Driver/Inc/stm32n6xx_ll_bus.h ****   *         @arg @ref LL_AHB1
 478:Drivers/STM32N6xx_HAL_Driver/Inc/stm32n6xx_ll_bus.h ****   *         @arg @ref LL_AHB2
 479:Drivers/STM32N6xx_HAL_Driver/Inc/stm32n6xx_ll_bus.h ****   *         @arg @ref LL_AHB3
 480:Drivers/STM32N6xx_HAL_Driver/Inc/stm32n6xx_ll_bus.h ****   *         @arg @ref LL_AHB4
 481:Drivers/STM32N6xx_HAL_Driver/Inc/stm32n6xx_ll_bus.h ****   *         @arg @ref LL_AHB5
 482:Drivers/STM32N6xx_HAL_Driver/Inc/stm32n6xx_ll_bus.h ****   *         @arg @ref LL_APB1
 483:Drivers/STM32N6xx_HAL_Driver/Inc/stm32n6xx_ll_bus.h ****   *         @arg @ref LL_APB2
 484:Drivers/STM32N6xx_HAL_Driver/Inc/stm32n6xx_ll_bus.h ****   *         @arg @ref LL_APB3
 485:Drivers/STM32N6xx_HAL_Driver/Inc/stm32n6xx_ll_bus.h ****   *         @arg @ref LL_APB4
 486:Drivers/STM32N6xx_HAL_Driver/Inc/stm32n6xx_ll_bus.h ****   *         @arg @ref LL_APB5
 487:Drivers/STM32N6xx_HAL_Driver/Inc/stm32n6xx_ll_bus.h ****   * @retval uint32_t
 488:Drivers/STM32N6xx_HAL_Driver/Inc/stm32n6xx_ll_bus.h ****   */
 489:Drivers/STM32N6xx_HAL_Driver/Inc/stm32n6xx_ll_bus.h **** __STATIC_INLINE uint32_t LL_BUS_IsEnabledClock(uint32_t Bus)
 490:Drivers/STM32N6xx_HAL_Driver/Inc/stm32n6xx_ll_bus.h **** {
 491:Drivers/STM32N6xx_HAL_Driver/Inc/stm32n6xx_ll_bus.h ****   return ((READ_BIT(RCC->BUSENR, Bus) == Bus) ? 1UL : 0UL);
 492:Drivers/STM32N6xx_HAL_Driver/Inc/stm32n6xx_ll_bus.h **** }
 493:Drivers/STM32N6xx_HAL_Driver/Inc/stm32n6xx_ll_bus.h **** 
 494:Drivers/STM32N6xx_HAL_Driver/Inc/stm32n6xx_ll_bus.h **** /**
 495:Drivers/STM32N6xx_HAL_Driver/Inc/stm32n6xx_ll_bus.h ****   * @brief  Disable AXI bus clock.
 496:Drivers/STM32N6xx_HAL_Driver/Inc/stm32n6xx_ll_bus.h ****   * @rmtoll BUSENCR      ACLKNENC      LL_BUS_DisableClock\n
 497:Drivers/STM32N6xx_HAL_Driver/Inc/stm32n6xx_ll_bus.h ****   *         BUSENCR      ACLKNCENC     LL_BUS_DisableClock\n
 498:Drivers/STM32N6xx_HAL_Driver/Inc/stm32n6xx_ll_bus.h ****   *         BUSENCR      AHBMENC       LL_BUS_DisableClock\n
 499:Drivers/STM32N6xx_HAL_Driver/Inc/stm32n6xx_ll_bus.h ****   *         BUSENCR      AHB1ENC       LL_BUS_DisableClock\n
 500:Drivers/STM32N6xx_HAL_Driver/Inc/stm32n6xx_ll_bus.h ****   *         BUSENCR      AHB2ENC       LL_BUS_DisableClock\n
 501:Drivers/STM32N6xx_HAL_Driver/Inc/stm32n6xx_ll_bus.h ****   *         BUSENCR      AHB3ENC       LL_BUS_DisableClock\n
 502:Drivers/STM32N6xx_HAL_Driver/Inc/stm32n6xx_ll_bus.h ****   *         BUSENCR      AHB4ENC       LL_BUS_DisableClock\n
 503:Drivers/STM32N6xx_HAL_Driver/Inc/stm32n6xx_ll_bus.h ****   *         BUSENCR      AHB5ENC       LL_BUS_DisableClock\n
 504:Drivers/STM32N6xx_HAL_Driver/Inc/stm32n6xx_ll_bus.h ****   *         BUSENCR      APB1ENC       LL_BUS_DisableClock\n
 505:Drivers/STM32N6xx_HAL_Driver/Inc/stm32n6xx_ll_bus.h ****   *         BUSENCR      APB2ENC       LL_BUS_DisableClock\n
 506:Drivers/STM32N6xx_HAL_Driver/Inc/stm32n6xx_ll_bus.h ****   *         BUSENCR      APB3ENC       LL_BUS_DisableClock\n
 507:Drivers/STM32N6xx_HAL_Driver/Inc/stm32n6xx_ll_bus.h ****   *         BUSENCR      APB4ENC       LL_BUS_DisableClock\n
 508:Drivers/STM32N6xx_HAL_Driver/Inc/stm32n6xx_ll_bus.h ****   *         BUSENCR      APB5ENC       LL_BUS_DisableClock
 509:Drivers/STM32N6xx_HAL_Driver/Inc/stm32n6xx_ll_bus.h ****   * @param  Bus This parameter can be a combination of the following values:
 510:Drivers/STM32N6xx_HAL_Driver/Inc/stm32n6xx_ll_bus.h ****   *         @arg @ref LL_ACLKN
 511:Drivers/STM32N6xx_HAL_Driver/Inc/stm32n6xx_ll_bus.h ****   *         @arg @ref LL_ACLKNC
 512:Drivers/STM32N6xx_HAL_Driver/Inc/stm32n6xx_ll_bus.h ****   *         @arg @ref LL_AHBM
ARM GAS  /tmp/cciSlyUQ.s 			page 13


 513:Drivers/STM32N6xx_HAL_Driver/Inc/stm32n6xx_ll_bus.h ****   *         @arg @ref LL_AHB1
 514:Drivers/STM32N6xx_HAL_Driver/Inc/stm32n6xx_ll_bus.h ****   *         @arg @ref LL_AHB2
 515:Drivers/STM32N6xx_HAL_Driver/Inc/stm32n6xx_ll_bus.h ****   *         @arg @ref LL_AHB3
 516:Drivers/STM32N6xx_HAL_Driver/Inc/stm32n6xx_ll_bus.h ****   *         @arg @ref LL_AHB4
 517:Drivers/STM32N6xx_HAL_Driver/Inc/stm32n6xx_ll_bus.h ****   *         @arg @ref LL_AHB5
 518:Drivers/STM32N6xx_HAL_Driver/Inc/stm32n6xx_ll_bus.h ****   *         @arg @ref LL_APB1
 519:Drivers/STM32N6xx_HAL_Driver/Inc/stm32n6xx_ll_bus.h ****   *         @arg @ref LL_APB2
 520:Drivers/STM32N6xx_HAL_Driver/Inc/stm32n6xx_ll_bus.h ****   *         @arg @ref LL_APB3
 521:Drivers/STM32N6xx_HAL_Driver/Inc/stm32n6xx_ll_bus.h ****   *         @arg @ref LL_APB4
 522:Drivers/STM32N6xx_HAL_Driver/Inc/stm32n6xx_ll_bus.h ****   *         @arg @ref LL_APB5
 523:Drivers/STM32N6xx_HAL_Driver/Inc/stm32n6xx_ll_bus.h ****   * @retval None
 524:Drivers/STM32N6xx_HAL_Driver/Inc/stm32n6xx_ll_bus.h ****   */
 525:Drivers/STM32N6xx_HAL_Driver/Inc/stm32n6xx_ll_bus.h **** __STATIC_INLINE void LL_BUS_DisableClock(uint32_t Bus)
 526:Drivers/STM32N6xx_HAL_Driver/Inc/stm32n6xx_ll_bus.h **** {
 527:Drivers/STM32N6xx_HAL_Driver/Inc/stm32n6xx_ll_bus.h ****   WRITE_REG(RCC->BUSENCR, Bus);
 528:Drivers/STM32N6xx_HAL_Driver/Inc/stm32n6xx_ll_bus.h **** }
 529:Drivers/STM32N6xx_HAL_Driver/Inc/stm32n6xx_ll_bus.h **** 
 530:Drivers/STM32N6xx_HAL_Driver/Inc/stm32n6xx_ll_bus.h **** /**
 531:Drivers/STM32N6xx_HAL_Driver/Inc/stm32n6xx_ll_bus.h ****   * @brief  Enable AXI bus clock during Low Power mode.
 532:Drivers/STM32N6xx_HAL_Driver/Inc/stm32n6xx_ll_bus.h ****   * @rmtoll BUSLPENSR    ACLKNLPENS    LL_BUS_EnableClockLowPower\n
 533:Drivers/STM32N6xx_HAL_Driver/Inc/stm32n6xx_ll_bus.h ****   *         BUSLPENSR    ACLKNCLPENS   LL_BUS_EnableClockLowPower\n
 534:Drivers/STM32N6xx_HAL_Driver/Inc/stm32n6xx_ll_bus.h ****   *         BUSLPENSR    AHBMLPENS     LL_BUS_EnableClockLowPower\n
 535:Drivers/STM32N6xx_HAL_Driver/Inc/stm32n6xx_ll_bus.h ****   *         BUSLPENSR    AHB1LPENS     LL_BUS_EnableClockLowPower\n
 536:Drivers/STM32N6xx_HAL_Driver/Inc/stm32n6xx_ll_bus.h ****   *         BUSLPENSR    AHB2LPENS     LL_BUS_EnableClockLowPower\n
 537:Drivers/STM32N6xx_HAL_Driver/Inc/stm32n6xx_ll_bus.h ****   *         BUSLPENSR    AHB3LPENS     LL_BUS_EnableClockLowPower\n
 538:Drivers/STM32N6xx_HAL_Driver/Inc/stm32n6xx_ll_bus.h ****   *         BUSLPENSR    AHB4LPENS     LL_BUS_EnableClockLowPower\n
 539:Drivers/STM32N6xx_HAL_Driver/Inc/stm32n6xx_ll_bus.h ****   *         BUSLPENSR    AHB5LPENS     LL_BUS_EnableClockLowPower\n
 540:Drivers/STM32N6xx_HAL_Driver/Inc/stm32n6xx_ll_bus.h ****   *         BUSLPENSR    APB1LPENS     LL_BUS_EnableClockLowPower\n
 541:Drivers/STM32N6xx_HAL_Driver/Inc/stm32n6xx_ll_bus.h ****   *         BUSLPENSR    APB2LPENS     LL_BUS_EnableClockLowPower\n
 542:Drivers/STM32N6xx_HAL_Driver/Inc/stm32n6xx_ll_bus.h ****   *         BUSLPENSR    APB3LPENS     LL_BUS_EnableClockLowPower\n
 543:Drivers/STM32N6xx_HAL_Driver/Inc/stm32n6xx_ll_bus.h ****   *         BUSLPENSR    APB4LPENS     LL_BUS_EnableClockLowPower\n
 544:Drivers/STM32N6xx_HAL_Driver/Inc/stm32n6xx_ll_bus.h ****   *         BUSLPENSR    APB5LPENS     LL_BUS_EnableClockLowPower
 545:Drivers/STM32N6xx_HAL_Driver/Inc/stm32n6xx_ll_bus.h ****   * @param  Bus This parameter can be a combination of the following values:
 546:Drivers/STM32N6xx_HAL_Driver/Inc/stm32n6xx_ll_bus.h ****   *         @arg @ref LL_ACLKN
 547:Drivers/STM32N6xx_HAL_Driver/Inc/stm32n6xx_ll_bus.h ****   *         @arg @ref LL_ACLKNC
 548:Drivers/STM32N6xx_HAL_Driver/Inc/stm32n6xx_ll_bus.h ****   *         @arg @ref LL_AHBM
 549:Drivers/STM32N6xx_HAL_Driver/Inc/stm32n6xx_ll_bus.h ****   *         @arg @ref LL_AHB1
 550:Drivers/STM32N6xx_HAL_Driver/Inc/stm32n6xx_ll_bus.h ****   *         @arg @ref LL_AHB2
 551:Drivers/STM32N6xx_HAL_Driver/Inc/stm32n6xx_ll_bus.h ****   *         @arg @ref LL_AHB3
 552:Drivers/STM32N6xx_HAL_Driver/Inc/stm32n6xx_ll_bus.h ****   *         @arg @ref LL_AHB4
 553:Drivers/STM32N6xx_HAL_Driver/Inc/stm32n6xx_ll_bus.h ****   *         @arg @ref LL_AHB5
 554:Drivers/STM32N6xx_HAL_Driver/Inc/stm32n6xx_ll_bus.h ****   *         @arg @ref LL_APB1
 555:Drivers/STM32N6xx_HAL_Driver/Inc/stm32n6xx_ll_bus.h ****   *         @arg @ref LL_APB2
 556:Drivers/STM32N6xx_HAL_Driver/Inc/stm32n6xx_ll_bus.h ****   *         @arg @ref LL_APB3
 557:Drivers/STM32N6xx_HAL_Driver/Inc/stm32n6xx_ll_bus.h ****   *         @arg @ref LL_APB4
 558:Drivers/STM32N6xx_HAL_Driver/Inc/stm32n6xx_ll_bus.h ****   *         @arg @ref LL_APB5
 559:Drivers/STM32N6xx_HAL_Driver/Inc/stm32n6xx_ll_bus.h ****   * @retval None
 560:Drivers/STM32N6xx_HAL_Driver/Inc/stm32n6xx_ll_bus.h ****   */
 561:Drivers/STM32N6xx_HAL_Driver/Inc/stm32n6xx_ll_bus.h **** __STATIC_INLINE void LL_BUS_EnableClockLowPower(uint32_t Bus)
 562:Drivers/STM32N6xx_HAL_Driver/Inc/stm32n6xx_ll_bus.h **** {
 563:Drivers/STM32N6xx_HAL_Driver/Inc/stm32n6xx_ll_bus.h ****   __IO uint32_t tmpreg;
 564:Drivers/STM32N6xx_HAL_Driver/Inc/stm32n6xx_ll_bus.h ****   WRITE_REG(RCC->BUSLPENSR, Bus);
 565:Drivers/STM32N6xx_HAL_Driver/Inc/stm32n6xx_ll_bus.h ****   /* Delay after an RCC bus clock enabling */
 566:Drivers/STM32N6xx_HAL_Driver/Inc/stm32n6xx_ll_bus.h ****   tmpreg = READ_REG(RCC->BUSLPENR);
 567:Drivers/STM32N6xx_HAL_Driver/Inc/stm32n6xx_ll_bus.h ****   (void)tmpreg;
 568:Drivers/STM32N6xx_HAL_Driver/Inc/stm32n6xx_ll_bus.h **** }
 569:Drivers/STM32N6xx_HAL_Driver/Inc/stm32n6xx_ll_bus.h **** 
ARM GAS  /tmp/cciSlyUQ.s 			page 14


 570:Drivers/STM32N6xx_HAL_Driver/Inc/stm32n6xx_ll_bus.h **** /**
 571:Drivers/STM32N6xx_HAL_Driver/Inc/stm32n6xx_ll_bus.h ****   * @brief  Check if AXI bus clock during Low Power mode is enabled or not
 572:Drivers/STM32N6xx_HAL_Driver/Inc/stm32n6xx_ll_bus.h ****   * @rmtoll BUSLPENR       ACLKNLPEN       LL_BUS_IsEnabledClockLowPower\n
 573:Drivers/STM32N6xx_HAL_Driver/Inc/stm32n6xx_ll_bus.h ****   *         BUSLPENR       ACLKNCLPEN      LL_BUS_IsEnabledClockLowPower\n
 574:Drivers/STM32N6xx_HAL_Driver/Inc/stm32n6xx_ll_bus.h ****   *         BUSLPENR       AHBMLPEN        LL_BUS_IsEnabledClockLowPower\n
 575:Drivers/STM32N6xx_HAL_Driver/Inc/stm32n6xx_ll_bus.h ****   *         BUSLPENR       AHB1LPEN        LL_BUS_IsEnabledClockLowPower\n
 576:Drivers/STM32N6xx_HAL_Driver/Inc/stm32n6xx_ll_bus.h ****   *         BUSLPENR       AHB2LPEN        LL_BUS_IsEnabledClockLowPower\n
 577:Drivers/STM32N6xx_HAL_Driver/Inc/stm32n6xx_ll_bus.h ****   *         BUSLPENR       AHB3LPEN        LL_BUS_IsEnabledClockLowPower\n
 578:Drivers/STM32N6xx_HAL_Driver/Inc/stm32n6xx_ll_bus.h ****   *         BUSLPENR       AHB4LPEN        LL_BUS_IsEnabledClockLowPower\n
 579:Drivers/STM32N6xx_HAL_Driver/Inc/stm32n6xx_ll_bus.h ****   *         BUSLPENR       AHB5LPEN        LL_BUS_IsEnabledClockLowPower\n
 580:Drivers/STM32N6xx_HAL_Driver/Inc/stm32n6xx_ll_bus.h ****   *         BUSLPENR       APB1LPEN        LL_BUS_IsEnabledClockLowPower\n
 581:Drivers/STM32N6xx_HAL_Driver/Inc/stm32n6xx_ll_bus.h ****   *         BUSLPENR       APB2LPEN        LL_BUS_IsEnabledClockLowPower\n
 582:Drivers/STM32N6xx_HAL_Driver/Inc/stm32n6xx_ll_bus.h ****   *         BUSLPENR       APB3LPEN        LL_BUS_IsEnabledClockLowPower\n
 583:Drivers/STM32N6xx_HAL_Driver/Inc/stm32n6xx_ll_bus.h ****   *         BUSLPENR       APB4LPEN        LL_BUS_IsEnabledClockLowPower\n
 584:Drivers/STM32N6xx_HAL_Driver/Inc/stm32n6xx_ll_bus.h ****   *         BUSLPENR       APB5LPEN        LL_BUS_IsEnabledClockLowPower
 585:Drivers/STM32N6xx_HAL_Driver/Inc/stm32n6xx_ll_bus.h ****   * @param  Bus This parameter can be a combination of the following values:
 586:Drivers/STM32N6xx_HAL_Driver/Inc/stm32n6xx_ll_bus.h ****   *         @arg @ref LL_ACLKN
 587:Drivers/STM32N6xx_HAL_Driver/Inc/stm32n6xx_ll_bus.h ****   *         @arg @ref LL_ACLKNC
 588:Drivers/STM32N6xx_HAL_Driver/Inc/stm32n6xx_ll_bus.h ****   *         @arg @ref LL_AHBM
 589:Drivers/STM32N6xx_HAL_Driver/Inc/stm32n6xx_ll_bus.h ****   *         @arg @ref LL_AHB1
 590:Drivers/STM32N6xx_HAL_Driver/Inc/stm32n6xx_ll_bus.h ****   *         @arg @ref LL_AHB2
 591:Drivers/STM32N6xx_HAL_Driver/Inc/stm32n6xx_ll_bus.h ****   *         @arg @ref LL_AHB3
 592:Drivers/STM32N6xx_HAL_Driver/Inc/stm32n6xx_ll_bus.h ****   *         @arg @ref LL_AHB4
 593:Drivers/STM32N6xx_HAL_Driver/Inc/stm32n6xx_ll_bus.h ****   *         @arg @ref LL_AHB5
 594:Drivers/STM32N6xx_HAL_Driver/Inc/stm32n6xx_ll_bus.h ****   *         @arg @ref LL_APB1
 595:Drivers/STM32N6xx_HAL_Driver/Inc/stm32n6xx_ll_bus.h ****   *         @arg @ref LL_APB2
 596:Drivers/STM32N6xx_HAL_Driver/Inc/stm32n6xx_ll_bus.h ****   *         @arg @ref LL_APB3
 597:Drivers/STM32N6xx_HAL_Driver/Inc/stm32n6xx_ll_bus.h ****   *         @arg @ref LL_APB4
 598:Drivers/STM32N6xx_HAL_Driver/Inc/stm32n6xx_ll_bus.h ****   *         @arg @ref LL_APB5
 599:Drivers/STM32N6xx_HAL_Driver/Inc/stm32n6xx_ll_bus.h ****   * @retval uint32_t
 600:Drivers/STM32N6xx_HAL_Driver/Inc/stm32n6xx_ll_bus.h ****   */
 601:Drivers/STM32N6xx_HAL_Driver/Inc/stm32n6xx_ll_bus.h **** __STATIC_INLINE uint32_t LL_BUS_IsEnabledClockLowPower(uint32_t Bus)
 602:Drivers/STM32N6xx_HAL_Driver/Inc/stm32n6xx_ll_bus.h **** {
 603:Drivers/STM32N6xx_HAL_Driver/Inc/stm32n6xx_ll_bus.h ****   return ((READ_BIT(RCC->BUSLPENR, Bus) == Bus) ? 1UL : 0UL);
 604:Drivers/STM32N6xx_HAL_Driver/Inc/stm32n6xx_ll_bus.h **** }
 605:Drivers/STM32N6xx_HAL_Driver/Inc/stm32n6xx_ll_bus.h **** 
 606:Drivers/STM32N6xx_HAL_Driver/Inc/stm32n6xx_ll_bus.h **** /**
 607:Drivers/STM32N6xx_HAL_Driver/Inc/stm32n6xx_ll_bus.h ****   * @brief  Disable AXI bus clock during Low Power mode.
 608:Drivers/STM32N6xx_HAL_Driver/Inc/stm32n6xx_ll_bus.h ****   * @rmtoll BUSLPENCR    ACLKNLPENC    LL_BUS_DisableClockLowPower\n
 609:Drivers/STM32N6xx_HAL_Driver/Inc/stm32n6xx_ll_bus.h ****   *         BUSLPENCR    ACLKNCLPENC   LL_BUS_DisableClockLowPower\n
 610:Drivers/STM32N6xx_HAL_Driver/Inc/stm32n6xx_ll_bus.h ****   *         BUSLPENCR    AHBMLPENC     LL_BUS_DisableClockLowPower\n
 611:Drivers/STM32N6xx_HAL_Driver/Inc/stm32n6xx_ll_bus.h ****   *         BUSLPENCR    AHB1LPENC     LL_BUS_DisableClockLowPower\n
 612:Drivers/STM32N6xx_HAL_Driver/Inc/stm32n6xx_ll_bus.h ****   *         BUSLPENCR    AHB2LPENC     LL_BUS_DisableClockLowPower\n
 613:Drivers/STM32N6xx_HAL_Driver/Inc/stm32n6xx_ll_bus.h ****   *         BUSLPENCR    AHB3LPENC     LL_BUS_DisableClockLowPower\n
 614:Drivers/STM32N6xx_HAL_Driver/Inc/stm32n6xx_ll_bus.h ****   *         BUSLPENCR    AHB4LPENC     LL_BUS_DisableClockLowPower\n
 615:Drivers/STM32N6xx_HAL_Driver/Inc/stm32n6xx_ll_bus.h ****   *         BUSLPENCR    AHB5LPENC     LL_BUS_DisableClockLowPower\n
 616:Drivers/STM32N6xx_HAL_Driver/Inc/stm32n6xx_ll_bus.h ****   *         BUSLPENCR    APB1LPENC     LL_BUS_DisableClockLowPower\n
 617:Drivers/STM32N6xx_HAL_Driver/Inc/stm32n6xx_ll_bus.h ****   *         BUSLPENCR    APB2LPENC     LL_BUS_DisableClockLowPower\n
 618:Drivers/STM32N6xx_HAL_Driver/Inc/stm32n6xx_ll_bus.h ****   *         BUSLPENCR    APB3LPENC     LL_BUS_DisableClockLowPower\n
 619:Drivers/STM32N6xx_HAL_Driver/Inc/stm32n6xx_ll_bus.h ****   *         BUSLPENCR    APB4LPENC     LL_BUS_DisableClockLowPower\n
 620:Drivers/STM32N6xx_HAL_Driver/Inc/stm32n6xx_ll_bus.h ****   *         BUSLPENCR    APB5LPENC     LL_BUS_DisableClockLowPower
 621:Drivers/STM32N6xx_HAL_Driver/Inc/stm32n6xx_ll_bus.h ****   * @param  Bus This parameter can be a combination of the following values:
 622:Drivers/STM32N6xx_HAL_Driver/Inc/stm32n6xx_ll_bus.h ****   *         @arg @ref LL_ACLKN
 623:Drivers/STM32N6xx_HAL_Driver/Inc/stm32n6xx_ll_bus.h ****   *         @arg @ref LL_ACLKNC
 624:Drivers/STM32N6xx_HAL_Driver/Inc/stm32n6xx_ll_bus.h ****   *         @arg @ref LL_AHBM
 625:Drivers/STM32N6xx_HAL_Driver/Inc/stm32n6xx_ll_bus.h ****   *         @arg @ref LL_AHB1
 626:Drivers/STM32N6xx_HAL_Driver/Inc/stm32n6xx_ll_bus.h ****   *         @arg @ref LL_AHB2
ARM GAS  /tmp/cciSlyUQ.s 			page 15


 627:Drivers/STM32N6xx_HAL_Driver/Inc/stm32n6xx_ll_bus.h ****   *         @arg @ref LL_AHB3
 628:Drivers/STM32N6xx_HAL_Driver/Inc/stm32n6xx_ll_bus.h ****   *         @arg @ref LL_AHB4
 629:Drivers/STM32N6xx_HAL_Driver/Inc/stm32n6xx_ll_bus.h ****   *         @arg @ref LL_AHB5
 630:Drivers/STM32N6xx_HAL_Driver/Inc/stm32n6xx_ll_bus.h ****   *         @arg @ref LL_APB1
 631:Drivers/STM32N6xx_HAL_Driver/Inc/stm32n6xx_ll_bus.h ****   *         @arg @ref LL_APB2
 632:Drivers/STM32N6xx_HAL_Driver/Inc/stm32n6xx_ll_bus.h ****   *         @arg @ref LL_APB3
 633:Drivers/STM32N6xx_HAL_Driver/Inc/stm32n6xx_ll_bus.h ****   *         @arg @ref LL_APB4
 634:Drivers/STM32N6xx_HAL_Driver/Inc/stm32n6xx_ll_bus.h ****   *         @arg @ref LL_APB5
 635:Drivers/STM32N6xx_HAL_Driver/Inc/stm32n6xx_ll_bus.h ****   * @retval None
 636:Drivers/STM32N6xx_HAL_Driver/Inc/stm32n6xx_ll_bus.h ****   */
 637:Drivers/STM32N6xx_HAL_Driver/Inc/stm32n6xx_ll_bus.h **** __STATIC_INLINE void LL_BUS_DisableClockLowPower(uint32_t Bus)
 638:Drivers/STM32N6xx_HAL_Driver/Inc/stm32n6xx_ll_bus.h **** {
 639:Drivers/STM32N6xx_HAL_Driver/Inc/stm32n6xx_ll_bus.h ****   WRITE_REG(RCC->BUSLPENCR, Bus);
 640:Drivers/STM32N6xx_HAL_Driver/Inc/stm32n6xx_ll_bus.h **** }
 641:Drivers/STM32N6xx_HAL_Driver/Inc/stm32n6xx_ll_bus.h **** 
 642:Drivers/STM32N6xx_HAL_Driver/Inc/stm32n6xx_ll_bus.h **** /**
 643:Drivers/STM32N6xx_HAL_Driver/Inc/stm32n6xx_ll_bus.h ****   * @}
 644:Drivers/STM32N6xx_HAL_Driver/Inc/stm32n6xx_ll_bus.h ****   */
 645:Drivers/STM32N6xx_HAL_Driver/Inc/stm32n6xx_ll_bus.h **** 
 646:Drivers/STM32N6xx_HAL_Driver/Inc/stm32n6xx_ll_bus.h **** /** @defgroup BUS_LL_EF_MEM MEM
 647:Drivers/STM32N6xx_HAL_Driver/Inc/stm32n6xx_ll_bus.h ****   * @{
 648:Drivers/STM32N6xx_HAL_Driver/Inc/stm32n6xx_ll_bus.h ****   */
 649:Drivers/STM32N6xx_HAL_Driver/Inc/stm32n6xx_ll_bus.h **** 
 650:Drivers/STM32N6xx_HAL_Driver/Inc/stm32n6xx_ll_bus.h **** /**
 651:Drivers/STM32N6xx_HAL_Driver/Inc/stm32n6xx_ll_bus.h ****   * @brief  Enable memories clock.
 652:Drivers/STM32N6xx_HAL_Driver/Inc/stm32n6xx_ll_bus.h ****   * @rmtoll MEMENSR      AXISRAM1ENS   LL_MEM_EnableClock\n
 653:Drivers/STM32N6xx_HAL_Driver/Inc/stm32n6xx_ll_bus.h ****   *         MEMENSR      AXISRAM2ENS   LL_MEM_EnableClock\n
 654:Drivers/STM32N6xx_HAL_Driver/Inc/stm32n6xx_ll_bus.h ****   *         MEMENSR      AXISRAM3ENS   LL_MEM_EnableClock\n
 655:Drivers/STM32N6xx_HAL_Driver/Inc/stm32n6xx_ll_bus.h ****   *         MEMENSR      AXISRAM4ENS   LL_MEM_EnableClock\n
 656:Drivers/STM32N6xx_HAL_Driver/Inc/stm32n6xx_ll_bus.h ****   *         MEMENSR      AXISRAM5ENS   LL_MEM_EnableClock\n
 657:Drivers/STM32N6xx_HAL_Driver/Inc/stm32n6xx_ll_bus.h ****   *         MEMENSR      AXISRAM6ENS   LL_MEM_EnableClock\n
 658:Drivers/STM32N6xx_HAL_Driver/Inc/stm32n6xx_ll_bus.h ****   *         MEMENSR      AHBSRAM1ENS   LL_MEM_EnableClock\n
 659:Drivers/STM32N6xx_HAL_Driver/Inc/stm32n6xx_ll_bus.h ****   *         MEMENSR      AHBSRAM2ENS   LL_MEM_EnableClock\n
 660:Drivers/STM32N6xx_HAL_Driver/Inc/stm32n6xx_ll_bus.h ****   *         MEMENSR      BKPSRAMENS    LL_MEM_EnableClock\n
 661:Drivers/STM32N6xx_HAL_Driver/Inc/stm32n6xx_ll_bus.h ****   *         MEMENSR      FLEXRAMENS    LL_MEM_EnableClock\n
 662:Drivers/STM32N6xx_HAL_Driver/Inc/stm32n6xx_ll_bus.h ****   *         MEMENSR      CACHEAXIRAMENS LL_MEM_EnableClock\n
 663:Drivers/STM32N6xx_HAL_Driver/Inc/stm32n6xx_ll_bus.h ****   *         MEMENSR      VENCRAMENS    LL_MEM_EnableClock
 664:Drivers/STM32N6xx_HAL_Driver/Inc/stm32n6xx_ll_bus.h ****   * @param  Memories This parameter can be a combination of the following values:
 665:Drivers/STM32N6xx_HAL_Driver/Inc/stm32n6xx_ll_bus.h ****   *         @arg @ref LL_MEM_AXISRAM1
 666:Drivers/STM32N6xx_HAL_Driver/Inc/stm32n6xx_ll_bus.h ****   *         @arg @ref LL_MEM_AXISRAM2
 667:Drivers/STM32N6xx_HAL_Driver/Inc/stm32n6xx_ll_bus.h ****   *         @arg @ref LL_MEM_AXISRAM3
 668:Drivers/STM32N6xx_HAL_Driver/Inc/stm32n6xx_ll_bus.h ****   *         @arg @ref LL_MEM_AXISRAM4
 669:Drivers/STM32N6xx_HAL_Driver/Inc/stm32n6xx_ll_bus.h ****   *         @arg @ref LL_MEM_AXISRAM5
 670:Drivers/STM32N6xx_HAL_Driver/Inc/stm32n6xx_ll_bus.h ****   *         @arg @ref LL_MEM_AXISRAM6
 671:Drivers/STM32N6xx_HAL_Driver/Inc/stm32n6xx_ll_bus.h ****   *         @arg @ref LL_MEM_AHBSRAM1
 672:Drivers/STM32N6xx_HAL_Driver/Inc/stm32n6xx_ll_bus.h ****   *         @arg @ref LL_MEM_AHBSRAM2
 673:Drivers/STM32N6xx_HAL_Driver/Inc/stm32n6xx_ll_bus.h ****   *         @arg @ref LL_MEM_BKPSRAM
 674:Drivers/STM32N6xx_HAL_Driver/Inc/stm32n6xx_ll_bus.h ****   *         @arg @ref LL_MEM_FLEXRAM
 675:Drivers/STM32N6xx_HAL_Driver/Inc/stm32n6xx_ll_bus.h ****   *         @arg @ref LL_MEM_CACHEAXIRAM
 676:Drivers/STM32N6xx_HAL_Driver/Inc/stm32n6xx_ll_bus.h ****   *         @arg @ref LL_MEM_VENCRAM
 677:Drivers/STM32N6xx_HAL_Driver/Inc/stm32n6xx_ll_bus.h ****   * @retval None
 678:Drivers/STM32N6xx_HAL_Driver/Inc/stm32n6xx_ll_bus.h ****   */
 679:Drivers/STM32N6xx_HAL_Driver/Inc/stm32n6xx_ll_bus.h **** __STATIC_INLINE void LL_MEM_EnableClock(uint32_t Memories)
 680:Drivers/STM32N6xx_HAL_Driver/Inc/stm32n6xx_ll_bus.h **** {
 681:Drivers/STM32N6xx_HAL_Driver/Inc/stm32n6xx_ll_bus.h ****   __IO uint32_t tmpreg;
 682:Drivers/STM32N6xx_HAL_Driver/Inc/stm32n6xx_ll_bus.h ****   WRITE_REG(RCC->MEMENSR, Memories);
 683:Drivers/STM32N6xx_HAL_Driver/Inc/stm32n6xx_ll_bus.h ****   /* Delay after an RCC memories clock enabling */
ARM GAS  /tmp/cciSlyUQ.s 			page 16


 684:Drivers/STM32N6xx_HAL_Driver/Inc/stm32n6xx_ll_bus.h ****   tmpreg = READ_REG(RCC->MEMENR);
 685:Drivers/STM32N6xx_HAL_Driver/Inc/stm32n6xx_ll_bus.h ****   (void)tmpreg;
 686:Drivers/STM32N6xx_HAL_Driver/Inc/stm32n6xx_ll_bus.h **** }
 687:Drivers/STM32N6xx_HAL_Driver/Inc/stm32n6xx_ll_bus.h **** 
 688:Drivers/STM32N6xx_HAL_Driver/Inc/stm32n6xx_ll_bus.h **** /**
 689:Drivers/STM32N6xx_HAL_Driver/Inc/stm32n6xx_ll_bus.h ****   * @brief  Check if memory clock is enabled or not
 690:Drivers/STM32N6xx_HAL_Driver/Inc/stm32n6xx_ll_bus.h ****   * @rmtoll MEMENR       AXISRAM1EN    LL_MEM_IsEnabledClock\n
 691:Drivers/STM32N6xx_HAL_Driver/Inc/stm32n6xx_ll_bus.h ****   *         MEMENR       AXISRAM2EN    LL_MEM_IsEnabledClock\n
 692:Drivers/STM32N6xx_HAL_Driver/Inc/stm32n6xx_ll_bus.h ****   *         MEMENR       AXISRAM3EN    LL_MEM_IsEnabledClock\n
 693:Drivers/STM32N6xx_HAL_Driver/Inc/stm32n6xx_ll_bus.h ****   *         MEMENR       AXISRAM4EN    LL_MEM_IsEnabledClock\n
 694:Drivers/STM32N6xx_HAL_Driver/Inc/stm32n6xx_ll_bus.h ****   *         MEMENR       AXISRAM5EN    LL_MEM_IsEnabledClock\n
 695:Drivers/STM32N6xx_HAL_Driver/Inc/stm32n6xx_ll_bus.h ****   *         MEMENR       AXISRAM6EN    LL_MEM_IsEnabledClock\n
 696:Drivers/STM32N6xx_HAL_Driver/Inc/stm32n6xx_ll_bus.h ****   *         MEMENR       AHBSRAM1EN    LL_MEM_IsEnabledClock\n
 697:Drivers/STM32N6xx_HAL_Driver/Inc/stm32n6xx_ll_bus.h ****   *         MEMENR       AHBSRAM2EN    LL_MEM_IsEnabledClock\n
 698:Drivers/STM32N6xx_HAL_Driver/Inc/stm32n6xx_ll_bus.h ****   *         MEMENR       BKPSRAMEN     LL_MEM_IsEnabledClock\n
 699:Drivers/STM32N6xx_HAL_Driver/Inc/stm32n6xx_ll_bus.h ****   *         MEMENR       FLEXRAMEN     LL_MEM_IsEnabledClock\n
 700:Drivers/STM32N6xx_HAL_Driver/Inc/stm32n6xx_ll_bus.h ****   *         MEMENR       CACHEAXIRAMEN LL_MEM_IsEnabledClock\n
 701:Drivers/STM32N6xx_HAL_Driver/Inc/stm32n6xx_ll_bus.h ****   *         MEMENR       VENCRAMEN     LL_MEM_IsEnabledClock
 702:Drivers/STM32N6xx_HAL_Driver/Inc/stm32n6xx_ll_bus.h ****   * @param  Memories This parameter can be a combination of the following values:
 703:Drivers/STM32N6xx_HAL_Driver/Inc/stm32n6xx_ll_bus.h ****   *         @arg @ref LL_MEM_AXISRAM1
 704:Drivers/STM32N6xx_HAL_Driver/Inc/stm32n6xx_ll_bus.h ****   *         @arg @ref LL_MEM_AXISRAM2
 705:Drivers/STM32N6xx_HAL_Driver/Inc/stm32n6xx_ll_bus.h ****   *         @arg @ref LL_MEM_AXISRAM3
 706:Drivers/STM32N6xx_HAL_Driver/Inc/stm32n6xx_ll_bus.h ****   *         @arg @ref LL_MEM_AXISRAM4
 707:Drivers/STM32N6xx_HAL_Driver/Inc/stm32n6xx_ll_bus.h ****   *         @arg @ref LL_MEM_AXISRAM5
 708:Drivers/STM32N6xx_HAL_Driver/Inc/stm32n6xx_ll_bus.h ****   *         @arg @ref LL_MEM_AXISRAM6
 709:Drivers/STM32N6xx_HAL_Driver/Inc/stm32n6xx_ll_bus.h ****   *         @arg @ref LL_MEM_AHBSRAM1
 710:Drivers/STM32N6xx_HAL_Driver/Inc/stm32n6xx_ll_bus.h ****   *         @arg @ref LL_MEM_AHBSRAM2
 711:Drivers/STM32N6xx_HAL_Driver/Inc/stm32n6xx_ll_bus.h ****   *         @arg @ref LL_MEM_BKPSRAM
 712:Drivers/STM32N6xx_HAL_Driver/Inc/stm32n6xx_ll_bus.h ****   *         @arg @ref LL_MEM_FLEXRAM
 713:Drivers/STM32N6xx_HAL_Driver/Inc/stm32n6xx_ll_bus.h ****   *         @arg @ref LL_MEM_CACHEAXIRAM
 714:Drivers/STM32N6xx_HAL_Driver/Inc/stm32n6xx_ll_bus.h ****   *         @arg @ref LL_MEM_VENCRAM
 715:Drivers/STM32N6xx_HAL_Driver/Inc/stm32n6xx_ll_bus.h ****   * @retval uint32_t
 716:Drivers/STM32N6xx_HAL_Driver/Inc/stm32n6xx_ll_bus.h ****   */
 717:Drivers/STM32N6xx_HAL_Driver/Inc/stm32n6xx_ll_bus.h **** __STATIC_INLINE uint32_t LL_MEM_IsEnabledClock(uint32_t Memories)
 718:Drivers/STM32N6xx_HAL_Driver/Inc/stm32n6xx_ll_bus.h **** {
 719:Drivers/STM32N6xx_HAL_Driver/Inc/stm32n6xx_ll_bus.h ****   return ((READ_BIT(RCC->MEMENR, Memories) == Memories) ? 1UL : 0UL);
 720:Drivers/STM32N6xx_HAL_Driver/Inc/stm32n6xx_ll_bus.h **** }
 721:Drivers/STM32N6xx_HAL_Driver/Inc/stm32n6xx_ll_bus.h **** 
 722:Drivers/STM32N6xx_HAL_Driver/Inc/stm32n6xx_ll_bus.h **** /**
 723:Drivers/STM32N6xx_HAL_Driver/Inc/stm32n6xx_ll_bus.h ****   * @brief  Disable memories clock.
 724:Drivers/STM32N6xx_HAL_Driver/Inc/stm32n6xx_ll_bus.h ****   * @rmtoll MEMENCR      AXISRAM1ENC   LL_MEM_DisableClock\n
 725:Drivers/STM32N6xx_HAL_Driver/Inc/stm32n6xx_ll_bus.h ****   *         MEMENCR      AXISRAM2ENC   LL_MEM_DisableClock\n
 726:Drivers/STM32N6xx_HAL_Driver/Inc/stm32n6xx_ll_bus.h ****   *         MEMENCR      AXISRAM3ENC   LL_MEM_DisableClock\n
 727:Drivers/STM32N6xx_HAL_Driver/Inc/stm32n6xx_ll_bus.h ****   *         MEMENCR      AXISRAM4ENC   LL_MEM_DisableClock\n
 728:Drivers/STM32N6xx_HAL_Driver/Inc/stm32n6xx_ll_bus.h ****   *         MEMENCR      AXISRAM5ENC   LL_MEM_DisableClock\n
 729:Drivers/STM32N6xx_HAL_Driver/Inc/stm32n6xx_ll_bus.h ****   *         MEMENCR      AXISRAM6ENC   LL_MEM_DisableClock\n
 730:Drivers/STM32N6xx_HAL_Driver/Inc/stm32n6xx_ll_bus.h ****   *         MEMENCR      AHBSRAM1ENC   LL_MEM_DisableClock\n
 731:Drivers/STM32N6xx_HAL_Driver/Inc/stm32n6xx_ll_bus.h ****   *         MEMENCR      AHBSRAM2ENC   LL_MEM_DisableClock\n
 732:Drivers/STM32N6xx_HAL_Driver/Inc/stm32n6xx_ll_bus.h ****   *         MEMENCR      BKPSRAMENC    LL_MEM_DisableClock\n
 733:Drivers/STM32N6xx_HAL_Driver/Inc/stm32n6xx_ll_bus.h ****   *         MEMENCR      FLEXRAMENC    LL_MEM_DisableClock\n
 734:Drivers/STM32N6xx_HAL_Driver/Inc/stm32n6xx_ll_bus.h ****   *         MEMENCR      CACHEAXIRAMENC LL_MEM_DisableClock\n
 735:Drivers/STM32N6xx_HAL_Driver/Inc/stm32n6xx_ll_bus.h ****   *         MEMENCR      VENCRAMENC    LL_MEM_DisableClock
 736:Drivers/STM32N6xx_HAL_Driver/Inc/stm32n6xx_ll_bus.h ****   * @param  Memories This parameter can be a combination of the following values:
 737:Drivers/STM32N6xx_HAL_Driver/Inc/stm32n6xx_ll_bus.h ****   *         @arg @ref LL_MEM_AXISRAM1
 738:Drivers/STM32N6xx_HAL_Driver/Inc/stm32n6xx_ll_bus.h ****   *         @arg @ref LL_MEM_AXISRAM2
 739:Drivers/STM32N6xx_HAL_Driver/Inc/stm32n6xx_ll_bus.h ****   *         @arg @ref LL_MEM_AXISRAM3
 740:Drivers/STM32N6xx_HAL_Driver/Inc/stm32n6xx_ll_bus.h ****   *         @arg @ref LL_MEM_AXISRAM4
ARM GAS  /tmp/cciSlyUQ.s 			page 17


 741:Drivers/STM32N6xx_HAL_Driver/Inc/stm32n6xx_ll_bus.h ****   *         @arg @ref LL_MEM_AXISRAM5
 742:Drivers/STM32N6xx_HAL_Driver/Inc/stm32n6xx_ll_bus.h ****   *         @arg @ref LL_MEM_AXISRAM6
 743:Drivers/STM32N6xx_HAL_Driver/Inc/stm32n6xx_ll_bus.h ****   *         @arg @ref LL_MEM_AHBSRAM1
 744:Drivers/STM32N6xx_HAL_Driver/Inc/stm32n6xx_ll_bus.h ****   *         @arg @ref LL_MEM_AHBSRAM2
 745:Drivers/STM32N6xx_HAL_Driver/Inc/stm32n6xx_ll_bus.h ****   *         @arg @ref LL_MEM_BKPSRAM
 746:Drivers/STM32N6xx_HAL_Driver/Inc/stm32n6xx_ll_bus.h ****   *         @arg @ref LL_MEM_FLEXRAM
 747:Drivers/STM32N6xx_HAL_Driver/Inc/stm32n6xx_ll_bus.h ****   *         @arg @ref LL_MEM_CACHEAXIRAM
 748:Drivers/STM32N6xx_HAL_Driver/Inc/stm32n6xx_ll_bus.h ****   *         @arg @ref LL_MEM_VENCRAM
 749:Drivers/STM32N6xx_HAL_Driver/Inc/stm32n6xx_ll_bus.h ****   * @retval None
 750:Drivers/STM32N6xx_HAL_Driver/Inc/stm32n6xx_ll_bus.h ****   */
 751:Drivers/STM32N6xx_HAL_Driver/Inc/stm32n6xx_ll_bus.h **** __STATIC_INLINE void LL_MEM_DisableClock(uint32_t Memories)
 752:Drivers/STM32N6xx_HAL_Driver/Inc/stm32n6xx_ll_bus.h **** {
 753:Drivers/STM32N6xx_HAL_Driver/Inc/stm32n6xx_ll_bus.h ****   WRITE_REG(RCC->MEMENCR, Memories);
 754:Drivers/STM32N6xx_HAL_Driver/Inc/stm32n6xx_ll_bus.h **** }
 755:Drivers/STM32N6xx_HAL_Driver/Inc/stm32n6xx_ll_bus.h **** 
 756:Drivers/STM32N6xx_HAL_Driver/Inc/stm32n6xx_ll_bus.h **** /**
 757:Drivers/STM32N6xx_HAL_Driver/Inc/stm32n6xx_ll_bus.h ****   * @brief  Enable memories clock during Low Power mode.
 758:Drivers/STM32N6xx_HAL_Driver/Inc/stm32n6xx_ll_bus.h ****   * @rmtoll MEMLPENSR    AXISRAM1LPENS LL_MEM_EnableClockLowPower\n
 759:Drivers/STM32N6xx_HAL_Driver/Inc/stm32n6xx_ll_bus.h ****   *         MEMLPENSR    AXISRAM2LPENS LL_MEM_EnableClockLowPower\n
 760:Drivers/STM32N6xx_HAL_Driver/Inc/stm32n6xx_ll_bus.h ****   *         MEMLPENSR    AXISRAM3LPENS LL_MEM_EnableClockLowPower\n
 761:Drivers/STM32N6xx_HAL_Driver/Inc/stm32n6xx_ll_bus.h ****   *         MEMLPENSR    AXISRAM4LPENS LL_MEM_EnableClockLowPower\n
 762:Drivers/STM32N6xx_HAL_Driver/Inc/stm32n6xx_ll_bus.h ****   *         MEMLPENSR    AXISRAM5LPENS LL_MEM_EnableClockLowPower\n
 763:Drivers/STM32N6xx_HAL_Driver/Inc/stm32n6xx_ll_bus.h ****   *         MEMLPENSR    AXISRAM6LPENS LL_MEM_EnableClockLowPower\n
 764:Drivers/STM32N6xx_HAL_Driver/Inc/stm32n6xx_ll_bus.h ****   *         MEMLPENSR    AHBSRAM1LPENS LL_MEM_EnableClockLowPower\n
 765:Drivers/STM32N6xx_HAL_Driver/Inc/stm32n6xx_ll_bus.h ****   *         MEMLPENSR    AHBSRAM2LPENS LL_MEM_EnableClockLowPower\n
 766:Drivers/STM32N6xx_HAL_Driver/Inc/stm32n6xx_ll_bus.h ****   *         MEMLPENSR    BKPSRAMLPENS  LL_MEM_EnableClockLowPower\n
 767:Drivers/STM32N6xx_HAL_Driver/Inc/stm32n6xx_ll_bus.h ****   *         MEMLPENSR    FLEXRAMLPENS  LL_MEM_EnableClockLowPower\n
 768:Drivers/STM32N6xx_HAL_Driver/Inc/stm32n6xx_ll_bus.h ****   *         MEMLPENSR    CACHEAXIRAMLPENS LL_MEM_EnableClockLowPower\n
 769:Drivers/STM32N6xx_HAL_Driver/Inc/stm32n6xx_ll_bus.h ****   *         MEMLPENSR    VENCRAMLPENS  LL_MEM_EnableClockLowPower
 770:Drivers/STM32N6xx_HAL_Driver/Inc/stm32n6xx_ll_bus.h ****   * @param  Memories This parameter can be a combination of the following values:
 771:Drivers/STM32N6xx_HAL_Driver/Inc/stm32n6xx_ll_bus.h ****   *         @arg @ref LL_MEM_AXISRAM1
 772:Drivers/STM32N6xx_HAL_Driver/Inc/stm32n6xx_ll_bus.h ****   *         @arg @ref LL_MEM_AXISRAM2
 773:Drivers/STM32N6xx_HAL_Driver/Inc/stm32n6xx_ll_bus.h ****   *         @arg @ref LL_MEM_AXISRAM3
 774:Drivers/STM32N6xx_HAL_Driver/Inc/stm32n6xx_ll_bus.h ****   *         @arg @ref LL_MEM_AXISRAM4
 775:Drivers/STM32N6xx_HAL_Driver/Inc/stm32n6xx_ll_bus.h ****   *         @arg @ref LL_MEM_AXISRAM5
 776:Drivers/STM32N6xx_HAL_Driver/Inc/stm32n6xx_ll_bus.h ****   *         @arg @ref LL_MEM_AXISRAM6
 777:Drivers/STM32N6xx_HAL_Driver/Inc/stm32n6xx_ll_bus.h ****   *         @arg @ref LL_MEM_AHBSRAM1
 778:Drivers/STM32N6xx_HAL_Driver/Inc/stm32n6xx_ll_bus.h ****   *         @arg @ref LL_MEM_AHBSRAM2
 779:Drivers/STM32N6xx_HAL_Driver/Inc/stm32n6xx_ll_bus.h ****   *         @arg @ref LL_MEM_BKPSRAM
 780:Drivers/STM32N6xx_HAL_Driver/Inc/stm32n6xx_ll_bus.h ****   *         @arg @ref LL_MEM_FLEXRAM
 781:Drivers/STM32N6xx_HAL_Driver/Inc/stm32n6xx_ll_bus.h ****   *         @arg @ref LL_MEM_CACHEAXIRAM
 782:Drivers/STM32N6xx_HAL_Driver/Inc/stm32n6xx_ll_bus.h ****   *         @arg @ref LL_MEM_VENCRAM
 783:Drivers/STM32N6xx_HAL_Driver/Inc/stm32n6xx_ll_bus.h ****   * @retval None
 784:Drivers/STM32N6xx_HAL_Driver/Inc/stm32n6xx_ll_bus.h ****   */
 785:Drivers/STM32N6xx_HAL_Driver/Inc/stm32n6xx_ll_bus.h **** __STATIC_INLINE void LL_MEM_EnableClockLowPower(uint32_t Memories)
 786:Drivers/STM32N6xx_HAL_Driver/Inc/stm32n6xx_ll_bus.h **** {
 787:Drivers/STM32N6xx_HAL_Driver/Inc/stm32n6xx_ll_bus.h ****   __IO uint32_t tmpreg;
 788:Drivers/STM32N6xx_HAL_Driver/Inc/stm32n6xx_ll_bus.h ****   WRITE_REG(RCC->MEMLPENSR, Memories);
 789:Drivers/STM32N6xx_HAL_Driver/Inc/stm32n6xx_ll_bus.h ****   /* Delay after an RCC memories clock enabling */
 790:Drivers/STM32N6xx_HAL_Driver/Inc/stm32n6xx_ll_bus.h ****   tmpreg = READ_REG(RCC->MEMLPENR);
 791:Drivers/STM32N6xx_HAL_Driver/Inc/stm32n6xx_ll_bus.h ****   (void)tmpreg;
 792:Drivers/STM32N6xx_HAL_Driver/Inc/stm32n6xx_ll_bus.h **** }
 793:Drivers/STM32N6xx_HAL_Driver/Inc/stm32n6xx_ll_bus.h **** 
 794:Drivers/STM32N6xx_HAL_Driver/Inc/stm32n6xx_ll_bus.h **** /**
 795:Drivers/STM32N6xx_HAL_Driver/Inc/stm32n6xx_ll_bus.h ****   * @brief  Check if memories clock during Low Power mode is enabled or not .
 796:Drivers/STM32N6xx_HAL_Driver/Inc/stm32n6xx_ll_bus.h ****   * @rmtoll MEMLPENR      AXISRAM1LPEN    LL_MEM_IsEnabledClockLowPower\n
 797:Drivers/STM32N6xx_HAL_Driver/Inc/stm32n6xx_ll_bus.h ****   *         MEMLPENR      AXISRAM2LPEN    LL_MEM_IsEnabledClockLowPower\n
ARM GAS  /tmp/cciSlyUQ.s 			page 18


 798:Drivers/STM32N6xx_HAL_Driver/Inc/stm32n6xx_ll_bus.h ****   *         MEMLPENR      AXISRAM3LPEN    LL_MEM_IsEnabledClockLowPower\n
 799:Drivers/STM32N6xx_HAL_Driver/Inc/stm32n6xx_ll_bus.h ****   *         MEMLPENR      AXISRAM4LPEN    LL_MEM_IsEnabledClockLowPower\n
 800:Drivers/STM32N6xx_HAL_Driver/Inc/stm32n6xx_ll_bus.h ****   *         MEMLPENR      AXISRAM5LPEN    LL_MEM_IsEnabledClockLowPower\n
 801:Drivers/STM32N6xx_HAL_Driver/Inc/stm32n6xx_ll_bus.h ****   *         MEMLPENR      AXISRAM6LPEN    LL_MEM_IsEnabledClockLowPower\n
 802:Drivers/STM32N6xx_HAL_Driver/Inc/stm32n6xx_ll_bus.h ****   *         MEMLPENR      AHBSRAM1LPEN    LL_MEM_IsEnabledClockLowPower\n
 803:Drivers/STM32N6xx_HAL_Driver/Inc/stm32n6xx_ll_bus.h ****   *         MEMLPENR      AHBSRAM2LPEN    LL_MEM_IsEnabledClockLowPower\n
 804:Drivers/STM32N6xx_HAL_Driver/Inc/stm32n6xx_ll_bus.h ****   *         MEMLPENR      BKPSRAMLPEN     LL_MEM_IsEnabledClockLowPower\n
 805:Drivers/STM32N6xx_HAL_Driver/Inc/stm32n6xx_ll_bus.h ****   *         MEMLPENR      FLEXRAMLPEN     LL_MEM_IsEnabledClockLowPower\n
 806:Drivers/STM32N6xx_HAL_Driver/Inc/stm32n6xx_ll_bus.h ****   *         MEMLPENR      CACHEAXIRAMLPEN LL_MEM_IsEnabledClockLowPower\n
 807:Drivers/STM32N6xx_HAL_Driver/Inc/stm32n6xx_ll_bus.h ****   *         MEMLPENR      VENCRAMLPEN     LL_MEM_IsEnabledClockLowPower
 808:Drivers/STM32N6xx_HAL_Driver/Inc/stm32n6xx_ll_bus.h ****   * @param  Memories This parameter can be a combination of the following values:
 809:Drivers/STM32N6xx_HAL_Driver/Inc/stm32n6xx_ll_bus.h ****   *         @arg @ref LL_MEM_AXISRAM1
 810:Drivers/STM32N6xx_HAL_Driver/Inc/stm32n6xx_ll_bus.h ****   *         @arg @ref LL_MEM_AXISRAM2
 811:Drivers/STM32N6xx_HAL_Driver/Inc/stm32n6xx_ll_bus.h ****   *         @arg @ref LL_MEM_AXISRAM3
 812:Drivers/STM32N6xx_HAL_Driver/Inc/stm32n6xx_ll_bus.h ****   *         @arg @ref LL_MEM_AXISRAM4
 813:Drivers/STM32N6xx_HAL_Driver/Inc/stm32n6xx_ll_bus.h ****   *         @arg @ref LL_MEM_AXISRAM5
 814:Drivers/STM32N6xx_HAL_Driver/Inc/stm32n6xx_ll_bus.h ****   *         @arg @ref LL_MEM_AXISRAM6
 815:Drivers/STM32N6xx_HAL_Driver/Inc/stm32n6xx_ll_bus.h ****   *         @arg @ref LL_MEM_AHBSRAM1
 816:Drivers/STM32N6xx_HAL_Driver/Inc/stm32n6xx_ll_bus.h ****   *         @arg @ref LL_MEM_AHBSRAM2
 817:Drivers/STM32N6xx_HAL_Driver/Inc/stm32n6xx_ll_bus.h ****   *         @arg @ref LL_MEM_BKPSRAM
 818:Drivers/STM32N6xx_HAL_Driver/Inc/stm32n6xx_ll_bus.h ****   *         @arg @ref LL_MEM_FLEXRAM
 819:Drivers/STM32N6xx_HAL_Driver/Inc/stm32n6xx_ll_bus.h ****   *         @arg @ref LL_MEM_CACHEAXIRAM
 820:Drivers/STM32N6xx_HAL_Driver/Inc/stm32n6xx_ll_bus.h ****   *         @arg @ref LL_MEM_VENCRAM
 821:Drivers/STM32N6xx_HAL_Driver/Inc/stm32n6xx_ll_bus.h ****   * @retval None
 822:Drivers/STM32N6xx_HAL_Driver/Inc/stm32n6xx_ll_bus.h ****   */
 823:Drivers/STM32N6xx_HAL_Driver/Inc/stm32n6xx_ll_bus.h **** __STATIC_INLINE uint32_t LL_MEM_IsEnabledClockLowPower(uint32_t Memories)
 824:Drivers/STM32N6xx_HAL_Driver/Inc/stm32n6xx_ll_bus.h **** {
 825:Drivers/STM32N6xx_HAL_Driver/Inc/stm32n6xx_ll_bus.h ****   return ((READ_BIT(RCC->MEMLPENR, Memories) == Memories) ? 1UL : 0UL);
 826:Drivers/STM32N6xx_HAL_Driver/Inc/stm32n6xx_ll_bus.h **** }
 827:Drivers/STM32N6xx_HAL_Driver/Inc/stm32n6xx_ll_bus.h **** 
 828:Drivers/STM32N6xx_HAL_Driver/Inc/stm32n6xx_ll_bus.h **** /**
 829:Drivers/STM32N6xx_HAL_Driver/Inc/stm32n6xx_ll_bus.h ****   * @brief  Disable memories clock during Low Power mode.
 830:Drivers/STM32N6xx_HAL_Driver/Inc/stm32n6xx_ll_bus.h ****   * @rmtoll MEMLPENCR    AXISRAM1LPENC LL_MEM_DisableClockLowPower\n
 831:Drivers/STM32N6xx_HAL_Driver/Inc/stm32n6xx_ll_bus.h ****   *         MEMLPENCR    AXISRAM2LPENC LL_MEM_DisableClockLowPower\n
 832:Drivers/STM32N6xx_HAL_Driver/Inc/stm32n6xx_ll_bus.h ****   *         MEMLPENCR    AXISRAM3LPENC LL_MEM_DisableClockLowPower\n
 833:Drivers/STM32N6xx_HAL_Driver/Inc/stm32n6xx_ll_bus.h ****   *         MEMLPENCR    AXISRAM4LPENC LL_MEM_DisableClockLowPower\n
 834:Drivers/STM32N6xx_HAL_Driver/Inc/stm32n6xx_ll_bus.h ****   *         MEMLPENCR    AXISRAM5LPENC LL_MEM_DisableClockLowPower\n
 835:Drivers/STM32N6xx_HAL_Driver/Inc/stm32n6xx_ll_bus.h ****   *         MEMLPENCR    AXISRAM6LPENC LL_MEM_DisableClockLowPower\n
 836:Drivers/STM32N6xx_HAL_Driver/Inc/stm32n6xx_ll_bus.h ****   *         MEMLPENCR    AHBSRAM1LPENC LL_MEM_DisableClockLowPower\n
 837:Drivers/STM32N6xx_HAL_Driver/Inc/stm32n6xx_ll_bus.h ****   *         MEMLPENCR    AHBSRAM2LPENC LL_MEM_DisableClockLowPower\n
 838:Drivers/STM32N6xx_HAL_Driver/Inc/stm32n6xx_ll_bus.h ****   *         MEMLPENCR    BKPSRAMLPENC  LL_MEM_DisableClockLowPower\n
 839:Drivers/STM32N6xx_HAL_Driver/Inc/stm32n6xx_ll_bus.h ****   *         MEMLPENCR    FLEXRAMLPENC  LL_MEM_DisableClockLowPower\n
 840:Drivers/STM32N6xx_HAL_Driver/Inc/stm32n6xx_ll_bus.h ****   *         MEMLPENCR    CACHEAXIRAMLPENC LL_MEM_DisableClockLowPower\n
 841:Drivers/STM32N6xx_HAL_Driver/Inc/stm32n6xx_ll_bus.h ****   *         MEMLPENCR    VENCRAMLPENC  LL_MEM_DisableClockLowPower
 842:Drivers/STM32N6xx_HAL_Driver/Inc/stm32n6xx_ll_bus.h ****   * @param  Memories This parameter can be a combination of the following values:
 843:Drivers/STM32N6xx_HAL_Driver/Inc/stm32n6xx_ll_bus.h ****   *         @arg @ref LL_MEM_AXISRAM1
 844:Drivers/STM32N6xx_HAL_Driver/Inc/stm32n6xx_ll_bus.h ****   *         @arg @ref LL_MEM_AXISRAM2
 845:Drivers/STM32N6xx_HAL_Driver/Inc/stm32n6xx_ll_bus.h ****   *         @arg @ref LL_MEM_AXISRAM3
 846:Drivers/STM32N6xx_HAL_Driver/Inc/stm32n6xx_ll_bus.h ****   *         @arg @ref LL_MEM_AXISRAM4
 847:Drivers/STM32N6xx_HAL_Driver/Inc/stm32n6xx_ll_bus.h ****   *         @arg @ref LL_MEM_AXISRAM5
 848:Drivers/STM32N6xx_HAL_Driver/Inc/stm32n6xx_ll_bus.h ****   *         @arg @ref LL_MEM_AXISRAM6
 849:Drivers/STM32N6xx_HAL_Driver/Inc/stm32n6xx_ll_bus.h ****   *         @arg @ref LL_MEM_AHBSRAM1
 850:Drivers/STM32N6xx_HAL_Driver/Inc/stm32n6xx_ll_bus.h ****   *         @arg @ref LL_MEM_AHBSRAM2
 851:Drivers/STM32N6xx_HAL_Driver/Inc/stm32n6xx_ll_bus.h ****   *         @arg @ref LL_MEM_BKPSRAM
 852:Drivers/STM32N6xx_HAL_Driver/Inc/stm32n6xx_ll_bus.h ****   *         @arg @ref LL_MEM_FLEXRAM
 853:Drivers/STM32N6xx_HAL_Driver/Inc/stm32n6xx_ll_bus.h ****   *         @arg @ref LL_MEM_CACHEAXIRAM
 854:Drivers/STM32N6xx_HAL_Driver/Inc/stm32n6xx_ll_bus.h ****   *         @arg @ref LL_MEM_VENCRAM
ARM GAS  /tmp/cciSlyUQ.s 			page 19


 855:Drivers/STM32N6xx_HAL_Driver/Inc/stm32n6xx_ll_bus.h ****   * @retval None
 856:Drivers/STM32N6xx_HAL_Driver/Inc/stm32n6xx_ll_bus.h ****   */
 857:Drivers/STM32N6xx_HAL_Driver/Inc/stm32n6xx_ll_bus.h **** __STATIC_INLINE void LL_MEM_DisableClockLowPower(uint32_t Memories)
 858:Drivers/STM32N6xx_HAL_Driver/Inc/stm32n6xx_ll_bus.h **** {
 859:Drivers/STM32N6xx_HAL_Driver/Inc/stm32n6xx_ll_bus.h ****   WRITE_REG(RCC->MEMLPENCR, Memories);
 860:Drivers/STM32N6xx_HAL_Driver/Inc/stm32n6xx_ll_bus.h **** }
 861:Drivers/STM32N6xx_HAL_Driver/Inc/stm32n6xx_ll_bus.h **** 
 862:Drivers/STM32N6xx_HAL_Driver/Inc/stm32n6xx_ll_bus.h **** /**
 863:Drivers/STM32N6xx_HAL_Driver/Inc/stm32n6xx_ll_bus.h ****   * @}
 864:Drivers/STM32N6xx_HAL_Driver/Inc/stm32n6xx_ll_bus.h ****   */
 865:Drivers/STM32N6xx_HAL_Driver/Inc/stm32n6xx_ll_bus.h **** 
 866:Drivers/STM32N6xx_HAL_Driver/Inc/stm32n6xx_ll_bus.h **** /** @defgroup BUS_LL_EF_AHB1 AHB1
 867:Drivers/STM32N6xx_HAL_Driver/Inc/stm32n6xx_ll_bus.h ****   * @{
 868:Drivers/STM32N6xx_HAL_Driver/Inc/stm32n6xx_ll_bus.h ****   */
 869:Drivers/STM32N6xx_HAL_Driver/Inc/stm32n6xx_ll_bus.h **** 
 870:Drivers/STM32N6xx_HAL_Driver/Inc/stm32n6xx_ll_bus.h **** /**
 871:Drivers/STM32N6xx_HAL_Driver/Inc/stm32n6xx_ll_bus.h ****   * @brief  Enable AHB1 peripherals clock.
 872:Drivers/STM32N6xx_HAL_Driver/Inc/stm32n6xx_ll_bus.h ****   * @rmtoll AHB1ENSR     GPDMA1ENS     LL_AHB1_GRP1_EnableClock\n
 873:Drivers/STM32N6xx_HAL_Driver/Inc/stm32n6xx_ll_bus.h ****   *         AHB1ENSR     ADC12ENS      LL_AHB1_GRP1_EnableClock
 874:Drivers/STM32N6xx_HAL_Driver/Inc/stm32n6xx_ll_bus.h ****   * @param  Periphs This parameter can be a combination of the following values:
 875:Drivers/STM32N6xx_HAL_Driver/Inc/stm32n6xx_ll_bus.h ****   *         @arg @ref LL_AHB1_GRP1_PERIPH_GPDMA1
 876:Drivers/STM32N6xx_HAL_Driver/Inc/stm32n6xx_ll_bus.h ****   *         @arg @ref LL_AHB1_GRP1_PERIPH_ADC12
 877:Drivers/STM32N6xx_HAL_Driver/Inc/stm32n6xx_ll_bus.h ****   * @retval None
 878:Drivers/STM32N6xx_HAL_Driver/Inc/stm32n6xx_ll_bus.h ****   */
 879:Drivers/STM32N6xx_HAL_Driver/Inc/stm32n6xx_ll_bus.h **** __STATIC_INLINE void LL_AHB1_GRP1_EnableClock(uint32_t Periphs)
 880:Drivers/STM32N6xx_HAL_Driver/Inc/stm32n6xx_ll_bus.h **** {
 881:Drivers/STM32N6xx_HAL_Driver/Inc/stm32n6xx_ll_bus.h ****   __IO uint32_t tmpreg;
 882:Drivers/STM32N6xx_HAL_Driver/Inc/stm32n6xx_ll_bus.h ****   WRITE_REG(RCC->AHB1ENSR, Periphs);
 883:Drivers/STM32N6xx_HAL_Driver/Inc/stm32n6xx_ll_bus.h ****   /* Delay after an RCC peripheral clock enabling */
 884:Drivers/STM32N6xx_HAL_Driver/Inc/stm32n6xx_ll_bus.h ****   tmpreg = READ_REG(RCC->AHB1ENR);
 885:Drivers/STM32N6xx_HAL_Driver/Inc/stm32n6xx_ll_bus.h ****   (void)tmpreg;
 886:Drivers/STM32N6xx_HAL_Driver/Inc/stm32n6xx_ll_bus.h **** }
 887:Drivers/STM32N6xx_HAL_Driver/Inc/stm32n6xx_ll_bus.h **** 
 888:Drivers/STM32N6xx_HAL_Driver/Inc/stm32n6xx_ll_bus.h **** /**
 889:Drivers/STM32N6xx_HAL_Driver/Inc/stm32n6xx_ll_bus.h ****   * @brief  Check if AHB1 peripheral clock is enabled or not
 890:Drivers/STM32N6xx_HAL_Driver/Inc/stm32n6xx_ll_bus.h ****   * @rmtoll AHB1ENR      GPDMA1EN      LL_AHB1_GRP1_IsEnabledClock\n
 891:Drivers/STM32N6xx_HAL_Driver/Inc/stm32n6xx_ll_bus.h ****   *         AHB1ENR      ADC12EN       LL_AHB1_GRP1_IsEnabledClock
 892:Drivers/STM32N6xx_HAL_Driver/Inc/stm32n6xx_ll_bus.h ****   * @param  Periphs This parameter can be a combination of the following values:
 893:Drivers/STM32N6xx_HAL_Driver/Inc/stm32n6xx_ll_bus.h ****   *         @arg @ref LL_AHB1_GRP1_PERIPH_GPDMA1
 894:Drivers/STM32N6xx_HAL_Driver/Inc/stm32n6xx_ll_bus.h ****   *         @arg @ref LL_AHB1_GRP1_PERIPH_ADC12
 895:Drivers/STM32N6xx_HAL_Driver/Inc/stm32n6xx_ll_bus.h ****   * @retval uint32_t
 896:Drivers/STM32N6xx_HAL_Driver/Inc/stm32n6xx_ll_bus.h ****   */
 897:Drivers/STM32N6xx_HAL_Driver/Inc/stm32n6xx_ll_bus.h **** __STATIC_INLINE uint32_t LL_AHB1_GRP1_IsEnabledClock(uint32_t Periphs)
 898:Drivers/STM32N6xx_HAL_Driver/Inc/stm32n6xx_ll_bus.h **** {
 899:Drivers/STM32N6xx_HAL_Driver/Inc/stm32n6xx_ll_bus.h ****   return ((READ_BIT(RCC->AHB1ENR, Periphs) == Periphs) ? 1UL : 0UL);
 900:Drivers/STM32N6xx_HAL_Driver/Inc/stm32n6xx_ll_bus.h **** }
 901:Drivers/STM32N6xx_HAL_Driver/Inc/stm32n6xx_ll_bus.h **** 
 902:Drivers/STM32N6xx_HAL_Driver/Inc/stm32n6xx_ll_bus.h **** /**
 903:Drivers/STM32N6xx_HAL_Driver/Inc/stm32n6xx_ll_bus.h ****   * @brief  Disable AHB1 peripherals clock.
 904:Drivers/STM32N6xx_HAL_Driver/Inc/stm32n6xx_ll_bus.h ****   * @rmtoll AHB1ENCR     GPDMA1ENC     LL_AHB1_GRP1_DisableClock\n
 905:Drivers/STM32N6xx_HAL_Driver/Inc/stm32n6xx_ll_bus.h ****   *         AHB1ENCR     ADC12ENC      LL_AHB1_GRP1_DisableClock
 906:Drivers/STM32N6xx_HAL_Driver/Inc/stm32n6xx_ll_bus.h ****   * @param  Periphs This parameter can be a combination of the following values:
 907:Drivers/STM32N6xx_HAL_Driver/Inc/stm32n6xx_ll_bus.h ****   *         @arg @ref LL_AHB1_GRP1_PERIPH_GPDMA1
 908:Drivers/STM32N6xx_HAL_Driver/Inc/stm32n6xx_ll_bus.h ****   *         @arg @ref LL_AHB1_GRP1_PERIPH_ADC12
 909:Drivers/STM32N6xx_HAL_Driver/Inc/stm32n6xx_ll_bus.h ****   * @retval None
 910:Drivers/STM32N6xx_HAL_Driver/Inc/stm32n6xx_ll_bus.h ****   */
 911:Drivers/STM32N6xx_HAL_Driver/Inc/stm32n6xx_ll_bus.h **** __STATIC_INLINE void LL_AHB1_GRP1_DisableClock(uint32_t Periphs)
ARM GAS  /tmp/cciSlyUQ.s 			page 20


 912:Drivers/STM32N6xx_HAL_Driver/Inc/stm32n6xx_ll_bus.h **** {
 913:Drivers/STM32N6xx_HAL_Driver/Inc/stm32n6xx_ll_bus.h ****   WRITE_REG(RCC->AHB1ENCR, Periphs);
 914:Drivers/STM32N6xx_HAL_Driver/Inc/stm32n6xx_ll_bus.h **** }
 915:Drivers/STM32N6xx_HAL_Driver/Inc/stm32n6xx_ll_bus.h **** 
 916:Drivers/STM32N6xx_HAL_Driver/Inc/stm32n6xx_ll_bus.h **** /**
 917:Drivers/STM32N6xx_HAL_Driver/Inc/stm32n6xx_ll_bus.h ****   * @brief  Force AHB1 peripherals reset.
 918:Drivers/STM32N6xx_HAL_Driver/Inc/stm32n6xx_ll_bus.h ****   * @rmtoll AHB1RSTSR    GPDMA1RSTS    LL_AHB1_GRP1_ForceReset\n
 919:Drivers/STM32N6xx_HAL_Driver/Inc/stm32n6xx_ll_bus.h ****   *         AHB1RSTSR    ADC12RSTS     LL_AHB1_GRP1_ForceReset
 920:Drivers/STM32N6xx_HAL_Driver/Inc/stm32n6xx_ll_bus.h ****   * @param  Periphs This parameter can be a combination of the following values:
 921:Drivers/STM32N6xx_HAL_Driver/Inc/stm32n6xx_ll_bus.h ****   *         @arg @ref LL_AHB1_GRP1_PERIPH_GPDMA1
 922:Drivers/STM32N6xx_HAL_Driver/Inc/stm32n6xx_ll_bus.h ****   *         @arg @ref LL_AHB1_GRP1_PERIPH_ADC12
 923:Drivers/STM32N6xx_HAL_Driver/Inc/stm32n6xx_ll_bus.h ****   * @retval None
 924:Drivers/STM32N6xx_HAL_Driver/Inc/stm32n6xx_ll_bus.h ****   */
 925:Drivers/STM32N6xx_HAL_Driver/Inc/stm32n6xx_ll_bus.h **** __STATIC_INLINE void LL_AHB1_GRP1_ForceReset(uint32_t Periphs)
 926:Drivers/STM32N6xx_HAL_Driver/Inc/stm32n6xx_ll_bus.h **** {
 927:Drivers/STM32N6xx_HAL_Driver/Inc/stm32n6xx_ll_bus.h ****   WRITE_REG(RCC->AHB1RSTSR, Periphs);
 928:Drivers/STM32N6xx_HAL_Driver/Inc/stm32n6xx_ll_bus.h **** }
 929:Drivers/STM32N6xx_HAL_Driver/Inc/stm32n6xx_ll_bus.h **** 
 930:Drivers/STM32N6xx_HAL_Driver/Inc/stm32n6xx_ll_bus.h **** /**
 931:Drivers/STM32N6xx_HAL_Driver/Inc/stm32n6xx_ll_bus.h ****   * @brief  Release AHB1 peripherals reset.
 932:Drivers/STM32N6xx_HAL_Driver/Inc/stm32n6xx_ll_bus.h ****   * @rmtoll AHB1RSTCR    GPDMA1RSTC    LL_AHB1_GRP1_ReleaseReset\n
 933:Drivers/STM32N6xx_HAL_Driver/Inc/stm32n6xx_ll_bus.h ****   *         AHB1RSTCR    ADC12RSTC     LL_AHB1_GRP1_ReleaseReset
 934:Drivers/STM32N6xx_HAL_Driver/Inc/stm32n6xx_ll_bus.h ****   * @param  Periphs This parameter can be a combination of the following values:
 935:Drivers/STM32N6xx_HAL_Driver/Inc/stm32n6xx_ll_bus.h ****   *         @arg @ref LL_AHB1_GRP1_PERIPH_GPDMA1
 936:Drivers/STM32N6xx_HAL_Driver/Inc/stm32n6xx_ll_bus.h ****   *         @arg @ref LL_AHB1_GRP1_PERIPH_ADC12
 937:Drivers/STM32N6xx_HAL_Driver/Inc/stm32n6xx_ll_bus.h ****   * @retval None
 938:Drivers/STM32N6xx_HAL_Driver/Inc/stm32n6xx_ll_bus.h ****   */
 939:Drivers/STM32N6xx_HAL_Driver/Inc/stm32n6xx_ll_bus.h **** __STATIC_INLINE void LL_AHB1_GRP1_ReleaseReset(uint32_t Periphs)
 940:Drivers/STM32N6xx_HAL_Driver/Inc/stm32n6xx_ll_bus.h **** {
 941:Drivers/STM32N6xx_HAL_Driver/Inc/stm32n6xx_ll_bus.h ****   WRITE_REG(RCC->AHB1RSTCR, Periphs);
 942:Drivers/STM32N6xx_HAL_Driver/Inc/stm32n6xx_ll_bus.h **** }
 943:Drivers/STM32N6xx_HAL_Driver/Inc/stm32n6xx_ll_bus.h **** 
 944:Drivers/STM32N6xx_HAL_Driver/Inc/stm32n6xx_ll_bus.h **** /**
 945:Drivers/STM32N6xx_HAL_Driver/Inc/stm32n6xx_ll_bus.h ****   * @brief  Enable AHB1 peripherals clock during Low Power mode.
 946:Drivers/STM32N6xx_HAL_Driver/Inc/stm32n6xx_ll_bus.h ****   * @rmtoll AHB1LPENSR   GPDMA1LPENS   LL_AHB1_GRP1_EnableClockLowPower\n
 947:Drivers/STM32N6xx_HAL_Driver/Inc/stm32n6xx_ll_bus.h ****   *         AHB1LPENSR   ADC12LPENS    LL_AHB1_GRP1_EnableClockLowPower
 948:Drivers/STM32N6xx_HAL_Driver/Inc/stm32n6xx_ll_bus.h ****   * @param  Periphs This parameter can be a combination of the following values:
 949:Drivers/STM32N6xx_HAL_Driver/Inc/stm32n6xx_ll_bus.h ****   *         @arg @ref LL_AHB1_GRP1_PERIPH_GPDMA1
 950:Drivers/STM32N6xx_HAL_Driver/Inc/stm32n6xx_ll_bus.h ****   *         @arg @ref LL_AHB1_GRP1_PERIPH_ADC12
 951:Drivers/STM32N6xx_HAL_Driver/Inc/stm32n6xx_ll_bus.h ****   * @retval None
 952:Drivers/STM32N6xx_HAL_Driver/Inc/stm32n6xx_ll_bus.h ****   */
 953:Drivers/STM32N6xx_HAL_Driver/Inc/stm32n6xx_ll_bus.h **** __STATIC_INLINE void LL_AHB1_GRP1_EnableClockLowPower(uint32_t Periphs)
 954:Drivers/STM32N6xx_HAL_Driver/Inc/stm32n6xx_ll_bus.h **** {
 955:Drivers/STM32N6xx_HAL_Driver/Inc/stm32n6xx_ll_bus.h ****   __IO uint32_t tmpreg;
 956:Drivers/STM32N6xx_HAL_Driver/Inc/stm32n6xx_ll_bus.h ****   WRITE_REG(RCC->AHB1LPENSR, Periphs);
 957:Drivers/STM32N6xx_HAL_Driver/Inc/stm32n6xx_ll_bus.h ****   /* Delay after an RCC peripheral clock enabling */
 958:Drivers/STM32N6xx_HAL_Driver/Inc/stm32n6xx_ll_bus.h ****   tmpreg = READ_REG(RCC->AHB1LPENR);
 959:Drivers/STM32N6xx_HAL_Driver/Inc/stm32n6xx_ll_bus.h ****   (void)tmpreg;
 960:Drivers/STM32N6xx_HAL_Driver/Inc/stm32n6xx_ll_bus.h **** }
 961:Drivers/STM32N6xx_HAL_Driver/Inc/stm32n6xx_ll_bus.h **** 
 962:Drivers/STM32N6xx_HAL_Driver/Inc/stm32n6xx_ll_bus.h **** /**
 963:Drivers/STM32N6xx_HAL_Driver/Inc/stm32n6xx_ll_bus.h ****   * @brief  Check if AHB1 peripheral clock during Low Power mode is enabled or not .
 964:Drivers/STM32N6xx_HAL_Driver/Inc/stm32n6xx_ll_bus.h ****   * @rmtoll AHB1LPENR    GPDMA1LPEN    LL_AHB1_GRP1_IsEnabledClockLowPower\n
 965:Drivers/STM32N6xx_HAL_Driver/Inc/stm32n6xx_ll_bus.h ****   *         AHB1LPENR    ADC12LPEN     LL_AHB1_GRP1_IsEnabledClockLowPower
 966:Drivers/STM32N6xx_HAL_Driver/Inc/stm32n6xx_ll_bus.h ****   * @param  Periphs This parameter can be a combination of the following values:
 967:Drivers/STM32N6xx_HAL_Driver/Inc/stm32n6xx_ll_bus.h ****   *         @arg @ref LL_AHB1_GRP1_PERIPH_GPDMA1
 968:Drivers/STM32N6xx_HAL_Driver/Inc/stm32n6xx_ll_bus.h ****   *         @arg @ref LL_AHB1_GRP1_PERIPH_ADC12
ARM GAS  /tmp/cciSlyUQ.s 			page 21


 969:Drivers/STM32N6xx_HAL_Driver/Inc/stm32n6xx_ll_bus.h ****   * @retval uint32_t
 970:Drivers/STM32N6xx_HAL_Driver/Inc/stm32n6xx_ll_bus.h ****   */
 971:Drivers/STM32N6xx_HAL_Driver/Inc/stm32n6xx_ll_bus.h **** __STATIC_INLINE uint32_t LL_AHB1_GRP1_IsEnabledClockLowPower(uint32_t Periphs)
 972:Drivers/STM32N6xx_HAL_Driver/Inc/stm32n6xx_ll_bus.h **** {
 973:Drivers/STM32N6xx_HAL_Driver/Inc/stm32n6xx_ll_bus.h ****   return ((READ_BIT(RCC->AHB1LPENR, Periphs) == Periphs) ? 1UL : 0UL);
 974:Drivers/STM32N6xx_HAL_Driver/Inc/stm32n6xx_ll_bus.h **** }
 975:Drivers/STM32N6xx_HAL_Driver/Inc/stm32n6xx_ll_bus.h **** 
 976:Drivers/STM32N6xx_HAL_Driver/Inc/stm32n6xx_ll_bus.h **** /**
 977:Drivers/STM32N6xx_HAL_Driver/Inc/stm32n6xx_ll_bus.h ****   * @brief  Disable AHB1 peripherals clock during Low Power mode.
 978:Drivers/STM32N6xx_HAL_Driver/Inc/stm32n6xx_ll_bus.h ****   * @rmtoll AHB1LPENCR   GPDMA1LPENC   LL_AHB1_GRP1_DisableClockLowPower\n
 979:Drivers/STM32N6xx_HAL_Driver/Inc/stm32n6xx_ll_bus.h ****   *         AHB1LPENCR   ADC12LPENC    LL_AHB1_GRP1_DisableClockLowPower
 980:Drivers/STM32N6xx_HAL_Driver/Inc/stm32n6xx_ll_bus.h ****   * @param  Periphs This parameter can be a combination of the following values:
 981:Drivers/STM32N6xx_HAL_Driver/Inc/stm32n6xx_ll_bus.h ****   *         @arg @ref LL_AHB1_GRP1_PERIPH_GPDMA1
 982:Drivers/STM32N6xx_HAL_Driver/Inc/stm32n6xx_ll_bus.h ****   *         @arg @ref LL_AHB1_GRP1_PERIPH_ADC12
 983:Drivers/STM32N6xx_HAL_Driver/Inc/stm32n6xx_ll_bus.h ****   * @retval None
 984:Drivers/STM32N6xx_HAL_Driver/Inc/stm32n6xx_ll_bus.h ****   */
 985:Drivers/STM32N6xx_HAL_Driver/Inc/stm32n6xx_ll_bus.h **** __STATIC_INLINE void LL_AHB1_GRP1_DisableClockLowPower(uint32_t Periphs)
 986:Drivers/STM32N6xx_HAL_Driver/Inc/stm32n6xx_ll_bus.h **** {
 987:Drivers/STM32N6xx_HAL_Driver/Inc/stm32n6xx_ll_bus.h ****   WRITE_REG(RCC->AHB1LPENCR, Periphs);
 988:Drivers/STM32N6xx_HAL_Driver/Inc/stm32n6xx_ll_bus.h **** }
 989:Drivers/STM32N6xx_HAL_Driver/Inc/stm32n6xx_ll_bus.h **** 
 990:Drivers/STM32N6xx_HAL_Driver/Inc/stm32n6xx_ll_bus.h **** /**
 991:Drivers/STM32N6xx_HAL_Driver/Inc/stm32n6xx_ll_bus.h ****   * @}
 992:Drivers/STM32N6xx_HAL_Driver/Inc/stm32n6xx_ll_bus.h ****   */
 993:Drivers/STM32N6xx_HAL_Driver/Inc/stm32n6xx_ll_bus.h **** 
 994:Drivers/STM32N6xx_HAL_Driver/Inc/stm32n6xx_ll_bus.h **** /** @defgroup BUS_LL_EF_AHB2 AHB2
 995:Drivers/STM32N6xx_HAL_Driver/Inc/stm32n6xx_ll_bus.h ****   * @{
 996:Drivers/STM32N6xx_HAL_Driver/Inc/stm32n6xx_ll_bus.h ****   */
 997:Drivers/STM32N6xx_HAL_Driver/Inc/stm32n6xx_ll_bus.h **** 
 998:Drivers/STM32N6xx_HAL_Driver/Inc/stm32n6xx_ll_bus.h **** /**
 999:Drivers/STM32N6xx_HAL_Driver/Inc/stm32n6xx_ll_bus.h ****   * @brief  Enable AHB2 peripherals clock.
1000:Drivers/STM32N6xx_HAL_Driver/Inc/stm32n6xx_ll_bus.h ****   * @rmtoll AHB2ENSR     RAMCFGENS     LL_AHB2_GRP1_EnableClock\n
1001:Drivers/STM32N6xx_HAL_Driver/Inc/stm32n6xx_ll_bus.h ****   *         AHB2ENSR     MDF1ENS       LL_AHB2_GRP1_EnableClock\n
1002:Drivers/STM32N6xx_HAL_Driver/Inc/stm32n6xx_ll_bus.h ****   *         AHB2ENSR     ADF1ENS       LL_AHB2_GRP1_EnableClock
1003:Drivers/STM32N6xx_HAL_Driver/Inc/stm32n6xx_ll_bus.h ****   * @param  Periphs This parameter can be a combination of the following values:
1004:Drivers/STM32N6xx_HAL_Driver/Inc/stm32n6xx_ll_bus.h ****   *         @arg @ref LL_AHB2_GRP1_PERIPH_RAMCFG
1005:Drivers/STM32N6xx_HAL_Driver/Inc/stm32n6xx_ll_bus.h ****   *         @arg @ref LL_AHB2_GRP1_PERIPH_MDF1
1006:Drivers/STM32N6xx_HAL_Driver/Inc/stm32n6xx_ll_bus.h ****   *         @arg @ref LL_AHB2_GRP1_PERIPH_ADF1
1007:Drivers/STM32N6xx_HAL_Driver/Inc/stm32n6xx_ll_bus.h ****   * @retval None
1008:Drivers/STM32N6xx_HAL_Driver/Inc/stm32n6xx_ll_bus.h ****   */
1009:Drivers/STM32N6xx_HAL_Driver/Inc/stm32n6xx_ll_bus.h **** __STATIC_INLINE void LL_AHB2_GRP1_EnableClock(uint32_t Periphs)
1010:Drivers/STM32N6xx_HAL_Driver/Inc/stm32n6xx_ll_bus.h **** {
1011:Drivers/STM32N6xx_HAL_Driver/Inc/stm32n6xx_ll_bus.h ****   __IO uint32_t tmpreg;
1012:Drivers/STM32N6xx_HAL_Driver/Inc/stm32n6xx_ll_bus.h ****   WRITE_REG(RCC->AHB2ENSR, Periphs);
1013:Drivers/STM32N6xx_HAL_Driver/Inc/stm32n6xx_ll_bus.h ****   /* Delay after an RCC peripheral clock enabling */
1014:Drivers/STM32N6xx_HAL_Driver/Inc/stm32n6xx_ll_bus.h ****   tmpreg = READ_REG(RCC->AHB2ENR);
1015:Drivers/STM32N6xx_HAL_Driver/Inc/stm32n6xx_ll_bus.h ****   (void)tmpreg;
1016:Drivers/STM32N6xx_HAL_Driver/Inc/stm32n6xx_ll_bus.h **** }
1017:Drivers/STM32N6xx_HAL_Driver/Inc/stm32n6xx_ll_bus.h **** 
1018:Drivers/STM32N6xx_HAL_Driver/Inc/stm32n6xx_ll_bus.h **** /**
1019:Drivers/STM32N6xx_HAL_Driver/Inc/stm32n6xx_ll_bus.h ****   * @brief  Check if AHB2 peripheral clock is enabled or not
1020:Drivers/STM32N6xx_HAL_Driver/Inc/stm32n6xx_ll_bus.h ****   * @rmtoll AHB2ENR      RAMCFGEN      LL_AHB2_GRP1_IsEnabledClock\n
1021:Drivers/STM32N6xx_HAL_Driver/Inc/stm32n6xx_ll_bus.h ****   *         AHB2ENR      MDF1EN        LL_AHB2_GRP1_IsEnabledClock\n
1022:Drivers/STM32N6xx_HAL_Driver/Inc/stm32n6xx_ll_bus.h ****   *         AHB2ENR      ADF1EN        LL_AHB2_GRP1_IsEnabledClock
1023:Drivers/STM32N6xx_HAL_Driver/Inc/stm32n6xx_ll_bus.h ****   * @param  Periphs This parameter can be a combination of the following values:
1024:Drivers/STM32N6xx_HAL_Driver/Inc/stm32n6xx_ll_bus.h ****   *         @arg @ref LL_AHB2_GRP1_PERIPH_RAMCFG
1025:Drivers/STM32N6xx_HAL_Driver/Inc/stm32n6xx_ll_bus.h ****   *         @arg @ref LL_AHB2_GRP1_PERIPH_MDF1
ARM GAS  /tmp/cciSlyUQ.s 			page 22


1026:Drivers/STM32N6xx_HAL_Driver/Inc/stm32n6xx_ll_bus.h ****   *         @arg @ref LL_AHB2_GRP1_PERIPH_ADF1
1027:Drivers/STM32N6xx_HAL_Driver/Inc/stm32n6xx_ll_bus.h ****   * @retval uint32_t
1028:Drivers/STM32N6xx_HAL_Driver/Inc/stm32n6xx_ll_bus.h ****   */
1029:Drivers/STM32N6xx_HAL_Driver/Inc/stm32n6xx_ll_bus.h **** __STATIC_INLINE uint32_t LL_AHB2_GRP1_IsEnabledClock(uint32_t Periphs)
1030:Drivers/STM32N6xx_HAL_Driver/Inc/stm32n6xx_ll_bus.h **** {
1031:Drivers/STM32N6xx_HAL_Driver/Inc/stm32n6xx_ll_bus.h ****   return ((READ_BIT(RCC->AHB2ENR, Periphs) == Periphs) ? 1UL : 0UL);
1032:Drivers/STM32N6xx_HAL_Driver/Inc/stm32n6xx_ll_bus.h **** }
1033:Drivers/STM32N6xx_HAL_Driver/Inc/stm32n6xx_ll_bus.h **** 
1034:Drivers/STM32N6xx_HAL_Driver/Inc/stm32n6xx_ll_bus.h **** /**
1035:Drivers/STM32N6xx_HAL_Driver/Inc/stm32n6xx_ll_bus.h ****   * @brief  Disable AHB2 peripherals clock.
1036:Drivers/STM32N6xx_HAL_Driver/Inc/stm32n6xx_ll_bus.h ****   * @rmtoll AHB2ENCR     RAMCFGENC     LL_AHB2_GRP1_DisableClock\n
1037:Drivers/STM32N6xx_HAL_Driver/Inc/stm32n6xx_ll_bus.h ****   *         AHB2ENCR     MDF1ENC       LL_AHB2_GRP1_DisableClock\n
1038:Drivers/STM32N6xx_HAL_Driver/Inc/stm32n6xx_ll_bus.h ****   *         AHB2ENCR     ADF1ENC       LL_AHB2_GRP1_DisableClock
1039:Drivers/STM32N6xx_HAL_Driver/Inc/stm32n6xx_ll_bus.h ****   * @param  Periphs This parameter can be a combination of the following values:
1040:Drivers/STM32N6xx_HAL_Driver/Inc/stm32n6xx_ll_bus.h ****   *         @arg @ref LL_AHB2_GRP1_PERIPH_RAMCFG
1041:Drivers/STM32N6xx_HAL_Driver/Inc/stm32n6xx_ll_bus.h ****   *         @arg @ref LL_AHB2_GRP1_PERIPH_MDF1
1042:Drivers/STM32N6xx_HAL_Driver/Inc/stm32n6xx_ll_bus.h ****   *         @arg @ref LL_AHB2_GRP1_PERIPH_ADF1
1043:Drivers/STM32N6xx_HAL_Driver/Inc/stm32n6xx_ll_bus.h ****   * @retval None
1044:Drivers/STM32N6xx_HAL_Driver/Inc/stm32n6xx_ll_bus.h ****   */
1045:Drivers/STM32N6xx_HAL_Driver/Inc/stm32n6xx_ll_bus.h **** __STATIC_INLINE void LL_AHB2_GRP1_DisableClock(uint32_t Periphs)
1046:Drivers/STM32N6xx_HAL_Driver/Inc/stm32n6xx_ll_bus.h **** {
1047:Drivers/STM32N6xx_HAL_Driver/Inc/stm32n6xx_ll_bus.h ****   WRITE_REG(RCC->AHB2ENCR, Periphs);
1048:Drivers/STM32N6xx_HAL_Driver/Inc/stm32n6xx_ll_bus.h **** }
1049:Drivers/STM32N6xx_HAL_Driver/Inc/stm32n6xx_ll_bus.h **** 
1050:Drivers/STM32N6xx_HAL_Driver/Inc/stm32n6xx_ll_bus.h **** /**
1051:Drivers/STM32N6xx_HAL_Driver/Inc/stm32n6xx_ll_bus.h ****   * @brief  Force AHB2 peripherals reset.
1052:Drivers/STM32N6xx_HAL_Driver/Inc/stm32n6xx_ll_bus.h ****   * @rmtoll AHB2RSTSR    RAMCFGRSTS     LL_AHB2_GRP1_ForceReset\n
1053:Drivers/STM32N6xx_HAL_Driver/Inc/stm32n6xx_ll_bus.h ****   *         AHB2RSTSR    MDF1RSTS       LL_AHB2_GRP1_ForceReset\n
1054:Drivers/STM32N6xx_HAL_Driver/Inc/stm32n6xx_ll_bus.h ****   *         AHB2RSTSR    ADF1RSTS       LL_AHB2_GRP1_ForceReset
1055:Drivers/STM32N6xx_HAL_Driver/Inc/stm32n6xx_ll_bus.h ****   * @param  Periphs This parameter can be a combination of the following values:
1056:Drivers/STM32N6xx_HAL_Driver/Inc/stm32n6xx_ll_bus.h ****   *         @arg @ref LL_AHB2_GRP1_PERIPH_RAMCFG
1057:Drivers/STM32N6xx_HAL_Driver/Inc/stm32n6xx_ll_bus.h ****   *         @arg @ref LL_AHB2_GRP1_PERIPH_MDF1
1058:Drivers/STM32N6xx_HAL_Driver/Inc/stm32n6xx_ll_bus.h ****   *         @arg @ref LL_AHB2_GRP1_PERIPH_ADF1
1059:Drivers/STM32N6xx_HAL_Driver/Inc/stm32n6xx_ll_bus.h ****   * @retval None
1060:Drivers/STM32N6xx_HAL_Driver/Inc/stm32n6xx_ll_bus.h ****   */
1061:Drivers/STM32N6xx_HAL_Driver/Inc/stm32n6xx_ll_bus.h **** __STATIC_INLINE void LL_AHB2_GRP1_ForceReset(uint32_t Periphs)
1062:Drivers/STM32N6xx_HAL_Driver/Inc/stm32n6xx_ll_bus.h **** {
1063:Drivers/STM32N6xx_HAL_Driver/Inc/stm32n6xx_ll_bus.h ****   WRITE_REG(RCC->AHB2RSTSR, Periphs);
1064:Drivers/STM32N6xx_HAL_Driver/Inc/stm32n6xx_ll_bus.h **** }
1065:Drivers/STM32N6xx_HAL_Driver/Inc/stm32n6xx_ll_bus.h **** 
1066:Drivers/STM32N6xx_HAL_Driver/Inc/stm32n6xx_ll_bus.h **** /**
1067:Drivers/STM32N6xx_HAL_Driver/Inc/stm32n6xx_ll_bus.h ****   * @brief  Release AHB2 peripherals reset.
1068:Drivers/STM32N6xx_HAL_Driver/Inc/stm32n6xx_ll_bus.h ****   * @rmtoll AHB2RSTCR     RAMCFGRSTC    LL_AHB2_GRP1_ReleaseReset\n
1069:Drivers/STM32N6xx_HAL_Driver/Inc/stm32n6xx_ll_bus.h ****   *         AHB2RSTCR     MDF1RSTC      LL_AHB2_GRP1_ReleaseReset\n
1070:Drivers/STM32N6xx_HAL_Driver/Inc/stm32n6xx_ll_bus.h ****   *         AHB2RSTCR     ADF1RSTC      LL_AHB2_GRP1_ReleaseReset
1071:Drivers/STM32N6xx_HAL_Driver/Inc/stm32n6xx_ll_bus.h ****   * @param  Periphs This parameter can be a combination of the following values:
1072:Drivers/STM32N6xx_HAL_Driver/Inc/stm32n6xx_ll_bus.h ****   *         @arg @ref LL_AHB2_GRP1_PERIPH_RAMCFG
1073:Drivers/STM32N6xx_HAL_Driver/Inc/stm32n6xx_ll_bus.h ****   *         @arg @ref LL_AHB2_GRP1_PERIPH_MDF1
1074:Drivers/STM32N6xx_HAL_Driver/Inc/stm32n6xx_ll_bus.h ****   *         @arg @ref LL_AHB2_GRP1_PERIPH_ADF1
1075:Drivers/STM32N6xx_HAL_Driver/Inc/stm32n6xx_ll_bus.h ****   * @retval None
1076:Drivers/STM32N6xx_HAL_Driver/Inc/stm32n6xx_ll_bus.h ****   */
1077:Drivers/STM32N6xx_HAL_Driver/Inc/stm32n6xx_ll_bus.h **** __STATIC_INLINE void LL_AHB2_GRP1_ReleaseReset(uint32_t Periphs)
1078:Drivers/STM32N6xx_HAL_Driver/Inc/stm32n6xx_ll_bus.h **** {
1079:Drivers/STM32N6xx_HAL_Driver/Inc/stm32n6xx_ll_bus.h ****   WRITE_REG(RCC->AHB2RSTCR, Periphs);
1080:Drivers/STM32N6xx_HAL_Driver/Inc/stm32n6xx_ll_bus.h **** }
1081:Drivers/STM32N6xx_HAL_Driver/Inc/stm32n6xx_ll_bus.h **** 
1082:Drivers/STM32N6xx_HAL_Driver/Inc/stm32n6xx_ll_bus.h **** /**
ARM GAS  /tmp/cciSlyUQ.s 			page 23


1083:Drivers/STM32N6xx_HAL_Driver/Inc/stm32n6xx_ll_bus.h ****   * @brief  Enable AHB2 peripherals clock during Low Power mode.
1084:Drivers/STM32N6xx_HAL_Driver/Inc/stm32n6xx_ll_bus.h ****   * @rmtoll AHB2LPENSR   RAMCFGLPENC   LL_AHB2_GRP1_EnableClockLowPower\n
1085:Drivers/STM32N6xx_HAL_Driver/Inc/stm32n6xx_ll_bus.h ****   *         AHB2LPENSR   MDF1LPENC     LL_AHB2_GRP1_EnableClockLowPower\n
1086:Drivers/STM32N6xx_HAL_Driver/Inc/stm32n6xx_ll_bus.h ****   *         AHB2LPENSR   ADF1LPENC     LL_AHB2_GRP1_EnableClockLowPower
1087:Drivers/STM32N6xx_HAL_Driver/Inc/stm32n6xx_ll_bus.h ****   * @param  Periphs This parameter can be a combination of the following values:
1088:Drivers/STM32N6xx_HAL_Driver/Inc/stm32n6xx_ll_bus.h ****   *         @arg @ref LL_AHB2_GRP1_PERIPH_RAMCFG
1089:Drivers/STM32N6xx_HAL_Driver/Inc/stm32n6xx_ll_bus.h ****   *         @arg @ref LL_AHB2_GRP1_PERIPH_MDF1
1090:Drivers/STM32N6xx_HAL_Driver/Inc/stm32n6xx_ll_bus.h ****   *         @arg @ref LL_AHB2_GRP1_PERIPH_ADF1
1091:Drivers/STM32N6xx_HAL_Driver/Inc/stm32n6xx_ll_bus.h ****   * @retval None
1092:Drivers/STM32N6xx_HAL_Driver/Inc/stm32n6xx_ll_bus.h ****   */
1093:Drivers/STM32N6xx_HAL_Driver/Inc/stm32n6xx_ll_bus.h **** __STATIC_INLINE void LL_AHB2_GRP1_EnableClockLowPower(uint32_t Periphs)
1094:Drivers/STM32N6xx_HAL_Driver/Inc/stm32n6xx_ll_bus.h **** {
1095:Drivers/STM32N6xx_HAL_Driver/Inc/stm32n6xx_ll_bus.h ****   __IO uint32_t tmpreg;
1096:Drivers/STM32N6xx_HAL_Driver/Inc/stm32n6xx_ll_bus.h ****   WRITE_REG(RCC->AHB2LPENSR, Periphs);
1097:Drivers/STM32N6xx_HAL_Driver/Inc/stm32n6xx_ll_bus.h ****   /* Delay after an RCC peripheral clock enabling */
1098:Drivers/STM32N6xx_HAL_Driver/Inc/stm32n6xx_ll_bus.h ****   tmpreg = READ_REG(RCC->AHB2LPENR);
1099:Drivers/STM32N6xx_HAL_Driver/Inc/stm32n6xx_ll_bus.h ****   (void)tmpreg;
1100:Drivers/STM32N6xx_HAL_Driver/Inc/stm32n6xx_ll_bus.h **** }
1101:Drivers/STM32N6xx_HAL_Driver/Inc/stm32n6xx_ll_bus.h **** 
1102:Drivers/STM32N6xx_HAL_Driver/Inc/stm32n6xx_ll_bus.h **** /**
1103:Drivers/STM32N6xx_HAL_Driver/Inc/stm32n6xx_ll_bus.h ****   * @brief  Check if AHB2 peripheral clock during Low Power mode is enabled or not .
1104:Drivers/STM32N6xx_HAL_Driver/Inc/stm32n6xx_ll_bus.h ****   * @rmtoll AHB2LPENR    RAMCFGLPEN    LL_AHB2_GRP1_IsEnabledClockLowPower\n
1105:Drivers/STM32N6xx_HAL_Driver/Inc/stm32n6xx_ll_bus.h ****   *         AHB2LPENR    MDF1LPEN      LL_AHB2_GRP1_IsEnabledClockLowPower\n
1106:Drivers/STM32N6xx_HAL_Driver/Inc/stm32n6xx_ll_bus.h ****   *         AHB2LPENR    ADF1LPEN      LL_AHB2_GRP1_IsEnabledClockLowPower
1107:Drivers/STM32N6xx_HAL_Driver/Inc/stm32n6xx_ll_bus.h ****   * @param  Periphs This parameter can be a combination of the following values:
1108:Drivers/STM32N6xx_HAL_Driver/Inc/stm32n6xx_ll_bus.h ****   *         @arg @ref LL_AHB2_GRP1_PERIPH_RAMCFG
1109:Drivers/STM32N6xx_HAL_Driver/Inc/stm32n6xx_ll_bus.h ****   *         @arg @ref LL_AHB2_GRP1_PERIPH_MDF1
1110:Drivers/STM32N6xx_HAL_Driver/Inc/stm32n6xx_ll_bus.h ****   *         @arg @ref LL_AHB2_GRP1_PERIPH_ADF1
1111:Drivers/STM32N6xx_HAL_Driver/Inc/stm32n6xx_ll_bus.h ****   * @retval uint32_t
1112:Drivers/STM32N6xx_HAL_Driver/Inc/stm32n6xx_ll_bus.h ****   */
1113:Drivers/STM32N6xx_HAL_Driver/Inc/stm32n6xx_ll_bus.h **** __STATIC_INLINE uint32_t LL_AHB2_GRP1_IsEnabledClockLowPower(uint32_t Periphs)
1114:Drivers/STM32N6xx_HAL_Driver/Inc/stm32n6xx_ll_bus.h **** {
1115:Drivers/STM32N6xx_HAL_Driver/Inc/stm32n6xx_ll_bus.h ****   return ((READ_BIT(RCC->AHB2LPENR, Periphs) == Periphs) ? 1UL : 0UL);
1116:Drivers/STM32N6xx_HAL_Driver/Inc/stm32n6xx_ll_bus.h **** }
1117:Drivers/STM32N6xx_HAL_Driver/Inc/stm32n6xx_ll_bus.h **** 
1118:Drivers/STM32N6xx_HAL_Driver/Inc/stm32n6xx_ll_bus.h **** /**
1119:Drivers/STM32N6xx_HAL_Driver/Inc/stm32n6xx_ll_bus.h ****   * @brief  Disable AHB2 peripherals clock during Low Power mode.
1120:Drivers/STM32N6xx_HAL_Driver/Inc/stm32n6xx_ll_bus.h ****   * @rmtoll AHB2LPENCR   RAMCFGLPENC   LL_AHB2_GRP1_DisableClockLowPower\n
1121:Drivers/STM32N6xx_HAL_Driver/Inc/stm32n6xx_ll_bus.h ****   *         AHB2LPENCR   MDF1LPENC     LL_AHB2_GRP1_DisableClockLowPower\n
1122:Drivers/STM32N6xx_HAL_Driver/Inc/stm32n6xx_ll_bus.h ****   *         AHB2LPENCR   ADF1LPENC     LL_AHB2_GRP1_DisableClockLowPower
1123:Drivers/STM32N6xx_HAL_Driver/Inc/stm32n6xx_ll_bus.h ****   * @param  Periphs This parameter can be a combination of the following values:
1124:Drivers/STM32N6xx_HAL_Driver/Inc/stm32n6xx_ll_bus.h ****   *         @arg @ref LL_AHB2_GRP1_PERIPH_RAMCFG
1125:Drivers/STM32N6xx_HAL_Driver/Inc/stm32n6xx_ll_bus.h ****   *         @arg @ref LL_AHB2_GRP1_PERIPH_MDF1
1126:Drivers/STM32N6xx_HAL_Driver/Inc/stm32n6xx_ll_bus.h ****   *         @arg @ref LL_AHB2_GRP1_PERIPH_ADF1
1127:Drivers/STM32N6xx_HAL_Driver/Inc/stm32n6xx_ll_bus.h ****   * @retval None
1128:Drivers/STM32N6xx_HAL_Driver/Inc/stm32n6xx_ll_bus.h ****   */
1129:Drivers/STM32N6xx_HAL_Driver/Inc/stm32n6xx_ll_bus.h **** __STATIC_INLINE void LL_AHB2_GRP1_DisableClockLowPower(uint32_t Periphs)
1130:Drivers/STM32N6xx_HAL_Driver/Inc/stm32n6xx_ll_bus.h **** {
1131:Drivers/STM32N6xx_HAL_Driver/Inc/stm32n6xx_ll_bus.h ****   WRITE_REG(RCC->AHB2LPENCR, Periphs);
1132:Drivers/STM32N6xx_HAL_Driver/Inc/stm32n6xx_ll_bus.h **** }
1133:Drivers/STM32N6xx_HAL_Driver/Inc/stm32n6xx_ll_bus.h **** 
1134:Drivers/STM32N6xx_HAL_Driver/Inc/stm32n6xx_ll_bus.h **** /**
1135:Drivers/STM32N6xx_HAL_Driver/Inc/stm32n6xx_ll_bus.h ****   * @}
1136:Drivers/STM32N6xx_HAL_Driver/Inc/stm32n6xx_ll_bus.h ****   */
1137:Drivers/STM32N6xx_HAL_Driver/Inc/stm32n6xx_ll_bus.h **** 
1138:Drivers/STM32N6xx_HAL_Driver/Inc/stm32n6xx_ll_bus.h **** /** @defgroup BUS_LL_EF_AHB3 AHB3
1139:Drivers/STM32N6xx_HAL_Driver/Inc/stm32n6xx_ll_bus.h ****   * @{
ARM GAS  /tmp/cciSlyUQ.s 			page 24


1140:Drivers/STM32N6xx_HAL_Driver/Inc/stm32n6xx_ll_bus.h ****   */
1141:Drivers/STM32N6xx_HAL_Driver/Inc/stm32n6xx_ll_bus.h **** 
1142:Drivers/STM32N6xx_HAL_Driver/Inc/stm32n6xx_ll_bus.h **** /**
1143:Drivers/STM32N6xx_HAL_Driver/Inc/stm32n6xx_ll_bus.h ****   * @brief  Enable AHB3 peripherals clock.
1144:Drivers/STM32N6xx_HAL_Driver/Inc/stm32n6xx_ll_bus.h ****   * @rmtoll AHB3ENSR     RNGENS        LL_AHB3_GRP1_EnableClock\n
1145:Drivers/STM32N6xx_HAL_Driver/Inc/stm32n6xx_ll_bus.h ****   *         AHB3ENSR     HASHENS       LL_AHB3_GRP1_EnableClock\n
1146:Drivers/STM32N6xx_HAL_Driver/Inc/stm32n6xx_ll_bus.h ****   *         AHB3ENSR     CRYPENS       LL_AHB3_GRP1_EnableClock\n  (*)
1147:Drivers/STM32N6xx_HAL_Driver/Inc/stm32n6xx_ll_bus.h ****   *         AHB3ENSR     SAESENS       LL_AHB3_GRP1_EnableClock\n  (*)
1148:Drivers/STM32N6xx_HAL_Driver/Inc/stm32n6xx_ll_bus.h ****   *         AHB3ENSR     PKAENS        LL_AHB3_GRP1_EnableClock\n
1149:Drivers/STM32N6xx_HAL_Driver/Inc/stm32n6xx_ll_bus.h ****   *         AHB3ENSR     RIFSCENS      LL_AHB3_GRP1_EnableClock\n
1150:Drivers/STM32N6xx_HAL_Driver/Inc/stm32n6xx_ll_bus.h ****   *         AHB3ENSR     RISAFENS      LL_AHB3_GRP1_EnableClock\n
1151:Drivers/STM32N6xx_HAL_Driver/Inc/stm32n6xx_ll_bus.h ****   *         AHB3ENSR     IACENS        LL_AHB3_GRP1_EnableClock
1152:Drivers/STM32N6xx_HAL_Driver/Inc/stm32n6xx_ll_bus.h ****   * @param  Periphs This parameter can be a combination of the following values:
1153:Drivers/STM32N6xx_HAL_Driver/Inc/stm32n6xx_ll_bus.h ****   *         @arg @ref LL_AHB3_GRP1_PERIPH_RNG
1154:Drivers/STM32N6xx_HAL_Driver/Inc/stm32n6xx_ll_bus.h ****   *         @arg @ref LL_AHB3_GRP1_PERIPH_HASH
1155:Drivers/STM32N6xx_HAL_Driver/Inc/stm32n6xx_ll_bus.h ****   *         @arg @ref LL_AHB3_GRP1_PERIPH_CRYP (*)
1156:Drivers/STM32N6xx_HAL_Driver/Inc/stm32n6xx_ll_bus.h ****   *         @arg @ref LL_AHB3_GRP1_PERIPH_SAES (*)
1157:Drivers/STM32N6xx_HAL_Driver/Inc/stm32n6xx_ll_bus.h ****   *         @arg @ref LL_AHB3_GRP1_PERIPH_PKA
1158:Drivers/STM32N6xx_HAL_Driver/Inc/stm32n6xx_ll_bus.h ****   *         @arg @ref LL_AHB3_GRP1_PERIPH_RIFSC
1159:Drivers/STM32N6xx_HAL_Driver/Inc/stm32n6xx_ll_bus.h ****   *         @arg @ref LL_AHB3_GRP1_PERIPH_RISAF
1160:Drivers/STM32N6xx_HAL_Driver/Inc/stm32n6xx_ll_bus.h ****   *         @arg @ref LL_AHB3_GRP1_PERIPH_IAC
1161:Drivers/STM32N6xx_HAL_Driver/Inc/stm32n6xx_ll_bus.h ****   *
1162:Drivers/STM32N6xx_HAL_Driver/Inc/stm32n6xx_ll_bus.h ****   *         (*) value not defined in all devices.
1163:Drivers/STM32N6xx_HAL_Driver/Inc/stm32n6xx_ll_bus.h ****   * @retval None
1164:Drivers/STM32N6xx_HAL_Driver/Inc/stm32n6xx_ll_bus.h ****   */
1165:Drivers/STM32N6xx_HAL_Driver/Inc/stm32n6xx_ll_bus.h **** __STATIC_INLINE void LL_AHB3_GRP1_EnableClock(uint32_t Periphs)
1166:Drivers/STM32N6xx_HAL_Driver/Inc/stm32n6xx_ll_bus.h **** {
1167:Drivers/STM32N6xx_HAL_Driver/Inc/stm32n6xx_ll_bus.h ****   __IO uint32_t tmpreg;
1168:Drivers/STM32N6xx_HAL_Driver/Inc/stm32n6xx_ll_bus.h ****   WRITE_REG(RCC->AHB3ENSR, Periphs);
1169:Drivers/STM32N6xx_HAL_Driver/Inc/stm32n6xx_ll_bus.h ****   /* Delay after an RCC peripheral clock enabling */
1170:Drivers/STM32N6xx_HAL_Driver/Inc/stm32n6xx_ll_bus.h ****   tmpreg = READ_REG(RCC->AHB3ENR);
1171:Drivers/STM32N6xx_HAL_Driver/Inc/stm32n6xx_ll_bus.h ****   (void)tmpreg;
1172:Drivers/STM32N6xx_HAL_Driver/Inc/stm32n6xx_ll_bus.h **** }
1173:Drivers/STM32N6xx_HAL_Driver/Inc/stm32n6xx_ll_bus.h **** 
1174:Drivers/STM32N6xx_HAL_Driver/Inc/stm32n6xx_ll_bus.h **** /**
1175:Drivers/STM32N6xx_HAL_Driver/Inc/stm32n6xx_ll_bus.h ****   * @brief  Check if AHB3 peripheral clock is enabled or not
1176:Drivers/STM32N6xx_HAL_Driver/Inc/stm32n6xx_ll_bus.h ****   * @rmtoll AHB3ENR      RNGEN         LL_AHB3_GRP1_IsEnabledClock\n
1177:Drivers/STM32N6xx_HAL_Driver/Inc/stm32n6xx_ll_bus.h ****   *         AHB3ENR      HASHEN        LL_AHB3_GRP1_IsEnabledClock\n
1178:Drivers/STM32N6xx_HAL_Driver/Inc/stm32n6xx_ll_bus.h ****   *         AHB3ENR      CRYPEN        LL_AHB3_GRP1_IsEnabledClock\n  (*)
1179:Drivers/STM32N6xx_HAL_Driver/Inc/stm32n6xx_ll_bus.h ****   *         AHB3ENR      SAESEN        LL_AHB3_GRP1_IsEnabledClock\n  (*)
1180:Drivers/STM32N6xx_HAL_Driver/Inc/stm32n6xx_ll_bus.h ****   *         AHB3ENR      PKAEN         LL_AHB3_GRP1_IsEnabledClock\n
1181:Drivers/STM32N6xx_HAL_Driver/Inc/stm32n6xx_ll_bus.h ****   *         AHB3ENR      RIFSCEN       LL_AHB3_GRP1_IsEnabledClock\n
1182:Drivers/STM32N6xx_HAL_Driver/Inc/stm32n6xx_ll_bus.h ****   *         AHB3ENR      RISAFEN       LL_AHB3_GRP1_IsEnabledClock\n
1183:Drivers/STM32N6xx_HAL_Driver/Inc/stm32n6xx_ll_bus.h ****   *         AHB3ENR      IACEN         LL_AHB3_GRP1_IsEnabledClock
1184:Drivers/STM32N6xx_HAL_Driver/Inc/stm32n6xx_ll_bus.h ****   * @param  Periphs This parameter can be a combination of the following values:
1185:Drivers/STM32N6xx_HAL_Driver/Inc/stm32n6xx_ll_bus.h ****   *         @arg @ref LL_AHB3_GRP1_PERIPH_RNG
1186:Drivers/STM32N6xx_HAL_Driver/Inc/stm32n6xx_ll_bus.h ****   *         @arg @ref LL_AHB3_GRP1_PERIPH_HASH
1187:Drivers/STM32N6xx_HAL_Driver/Inc/stm32n6xx_ll_bus.h ****   *         @arg @ref LL_AHB3_GRP1_PERIPH_CRYP (*)
1188:Drivers/STM32N6xx_HAL_Driver/Inc/stm32n6xx_ll_bus.h ****   *         @arg @ref LL_AHB3_GRP1_PERIPH_SAES (*)
1189:Drivers/STM32N6xx_HAL_Driver/Inc/stm32n6xx_ll_bus.h ****   *         @arg @ref LL_AHB3_GRP1_PERIPH_PKA
1190:Drivers/STM32N6xx_HAL_Driver/Inc/stm32n6xx_ll_bus.h ****   *         @arg @ref LL_AHB3_GRP1_PERIPH_RIFSC
1191:Drivers/STM32N6xx_HAL_Driver/Inc/stm32n6xx_ll_bus.h ****   *         @arg @ref LL_AHB3_GRP1_PERIPH_RISAF
1192:Drivers/STM32N6xx_HAL_Driver/Inc/stm32n6xx_ll_bus.h ****   *         @arg @ref LL_AHB3_GRP1_PERIPH_IAC
1193:Drivers/STM32N6xx_HAL_Driver/Inc/stm32n6xx_ll_bus.h ****   *
1194:Drivers/STM32N6xx_HAL_Driver/Inc/stm32n6xx_ll_bus.h ****   *         (*) value not defined in all devices.
1195:Drivers/STM32N6xx_HAL_Driver/Inc/stm32n6xx_ll_bus.h ****   * @retval uint32_t
1196:Drivers/STM32N6xx_HAL_Driver/Inc/stm32n6xx_ll_bus.h ****   */
ARM GAS  /tmp/cciSlyUQ.s 			page 25


1197:Drivers/STM32N6xx_HAL_Driver/Inc/stm32n6xx_ll_bus.h **** __STATIC_INLINE uint32_t LL_AHB3_GRP1_IsEnabledClock(uint32_t Periphs)
1198:Drivers/STM32N6xx_HAL_Driver/Inc/stm32n6xx_ll_bus.h **** {
1199:Drivers/STM32N6xx_HAL_Driver/Inc/stm32n6xx_ll_bus.h ****   return ((READ_BIT(RCC->AHB3ENR, Periphs) == Periphs) ? 1UL : 0UL);
1200:Drivers/STM32N6xx_HAL_Driver/Inc/stm32n6xx_ll_bus.h **** }
1201:Drivers/STM32N6xx_HAL_Driver/Inc/stm32n6xx_ll_bus.h **** 
1202:Drivers/STM32N6xx_HAL_Driver/Inc/stm32n6xx_ll_bus.h **** /**
1203:Drivers/STM32N6xx_HAL_Driver/Inc/stm32n6xx_ll_bus.h ****   * @brief  Disable AHB3 peripherals clock.
1204:Drivers/STM32N6xx_HAL_Driver/Inc/stm32n6xx_ll_bus.h ****   * @rmtoll AHB3ENCR     RNGENC        LL_AHB3_GRP1_DisableClock\n
1205:Drivers/STM32N6xx_HAL_Driver/Inc/stm32n6xx_ll_bus.h ****   *         AHB3ENCR     HASHENC       LL_AHB3_GRP1_DisableClock\n
1206:Drivers/STM32N6xx_HAL_Driver/Inc/stm32n6xx_ll_bus.h ****   *         AHB3ENCR     CRYPENC       LL_AHB3_GRP1_DisableClock\n  (*)
1207:Drivers/STM32N6xx_HAL_Driver/Inc/stm32n6xx_ll_bus.h ****   *         AHB3ENCR     SAESENC       LL_AHB3_GRP1_DisableClock\n  (*)
1208:Drivers/STM32N6xx_HAL_Driver/Inc/stm32n6xx_ll_bus.h ****   *         AHB3ENCR     PKAENC        LL_AHB3_GRP1_DisableClock\n
1209:Drivers/STM32N6xx_HAL_Driver/Inc/stm32n6xx_ll_bus.h ****   *         AHB3ENCR     RIFSCENC      LL_AHB3_GRP1_DisableClock\n
1210:Drivers/STM32N6xx_HAL_Driver/Inc/stm32n6xx_ll_bus.h ****   *         AHB3ENCR     RISAFENC      LL_AHB3_GRP1_DisableClock\n
1211:Drivers/STM32N6xx_HAL_Driver/Inc/stm32n6xx_ll_bus.h ****   *         AHB3ENCR     IACENC        LL_AHB3_GRP1_DisableClock
1212:Drivers/STM32N6xx_HAL_Driver/Inc/stm32n6xx_ll_bus.h ****   * @param  Periphs This parameter can be a combination of the following values:
1213:Drivers/STM32N6xx_HAL_Driver/Inc/stm32n6xx_ll_bus.h ****   *         @arg @ref LL_AHB3_GRP1_PERIPH_RNG
1214:Drivers/STM32N6xx_HAL_Driver/Inc/stm32n6xx_ll_bus.h ****   *         @arg @ref LL_AHB3_GRP1_PERIPH_HASH
1215:Drivers/STM32N6xx_HAL_Driver/Inc/stm32n6xx_ll_bus.h ****   *         @arg @ref LL_AHB3_GRP1_PERIPH_CRYP (*)
1216:Drivers/STM32N6xx_HAL_Driver/Inc/stm32n6xx_ll_bus.h ****   *         @arg @ref LL_AHB3_GRP1_PERIPH_SAES (*)
1217:Drivers/STM32N6xx_HAL_Driver/Inc/stm32n6xx_ll_bus.h ****   *         @arg @ref LL_AHB3_GRP1_PERIPH_PKA
1218:Drivers/STM32N6xx_HAL_Driver/Inc/stm32n6xx_ll_bus.h ****   *         @arg @ref LL_AHB3_GRP1_PERIPH_RIFSC
1219:Drivers/STM32N6xx_HAL_Driver/Inc/stm32n6xx_ll_bus.h ****   *         @arg @ref LL_AHB3_GRP1_PERIPH_RISAF
1220:Drivers/STM32N6xx_HAL_Driver/Inc/stm32n6xx_ll_bus.h ****   *         @arg @ref LL_AHB3_GRP1_PERIPH_IAC
1221:Drivers/STM32N6xx_HAL_Driver/Inc/stm32n6xx_ll_bus.h ****   *
1222:Drivers/STM32N6xx_HAL_Driver/Inc/stm32n6xx_ll_bus.h ****   *         (*) value not defined in all devices.
1223:Drivers/STM32N6xx_HAL_Driver/Inc/stm32n6xx_ll_bus.h ****   * @retval None
1224:Drivers/STM32N6xx_HAL_Driver/Inc/stm32n6xx_ll_bus.h ****   */
1225:Drivers/STM32N6xx_HAL_Driver/Inc/stm32n6xx_ll_bus.h **** __STATIC_INLINE void LL_AHB3_GRP1_DisableClock(uint32_t Periphs)
1226:Drivers/STM32N6xx_HAL_Driver/Inc/stm32n6xx_ll_bus.h **** {
1227:Drivers/STM32N6xx_HAL_Driver/Inc/stm32n6xx_ll_bus.h ****   WRITE_REG(RCC->AHB3ENCR, Periphs);
1228:Drivers/STM32N6xx_HAL_Driver/Inc/stm32n6xx_ll_bus.h **** }
1229:Drivers/STM32N6xx_HAL_Driver/Inc/stm32n6xx_ll_bus.h **** 
1230:Drivers/STM32N6xx_HAL_Driver/Inc/stm32n6xx_ll_bus.h **** /**
1231:Drivers/STM32N6xx_HAL_Driver/Inc/stm32n6xx_ll_bus.h ****   * @brief  Force AHB3 peripherals reset.
1232:Drivers/STM32N6xx_HAL_Driver/Inc/stm32n6xx_ll_bus.h ****   * @rmtoll AHB3RSTSR    RNGRSTS       LL_AHB3_GRP1_ForceReset\n
1233:Drivers/STM32N6xx_HAL_Driver/Inc/stm32n6xx_ll_bus.h ****   *         AHB3RSTSR    HASHRSTS      LL_AHB3_GRP1_ForceReset\n
1234:Drivers/STM32N6xx_HAL_Driver/Inc/stm32n6xx_ll_bus.h ****   *         AHB3RSTSR    CRYPRSTS      LL_AHB3_GRP1_ForceReset\n  (*)
1235:Drivers/STM32N6xx_HAL_Driver/Inc/stm32n6xx_ll_bus.h ****   *         AHB3RSTSR    SAESRSTS      LL_AHB3_GRP1_ForceReset\n  (*)
1236:Drivers/STM32N6xx_HAL_Driver/Inc/stm32n6xx_ll_bus.h ****   *         AHB3RSTSR    PKARSTS       LL_AHB3_GRP1_ForceReset\n
1237:Drivers/STM32N6xx_HAL_Driver/Inc/stm32n6xx_ll_bus.h ****   *         AHB3RSTSR    IACRSTS       LL_AHB3_GRP1_ForceReset
1238:Drivers/STM32N6xx_HAL_Driver/Inc/stm32n6xx_ll_bus.h ****   * @param  Periphs This parameter can be a combination of the following values:
1239:Drivers/STM32N6xx_HAL_Driver/Inc/stm32n6xx_ll_bus.h ****   *         @arg @ref LL_AHB3_GRP1_PERIPH_RNG
1240:Drivers/STM32N6xx_HAL_Driver/Inc/stm32n6xx_ll_bus.h ****   *         @arg @ref LL_AHB3_GRP1_PERIPH_HASH
1241:Drivers/STM32N6xx_HAL_Driver/Inc/stm32n6xx_ll_bus.h ****   *         @arg @ref LL_AHB3_GRP1_PERIPH_CRYP (*)
1242:Drivers/STM32N6xx_HAL_Driver/Inc/stm32n6xx_ll_bus.h ****   *         @arg @ref LL_AHB3_GRP1_PERIPH_SAES (*)
1243:Drivers/STM32N6xx_HAL_Driver/Inc/stm32n6xx_ll_bus.h ****   *         @arg @ref LL_AHB3_GRP1_PERIPH_PKA
1244:Drivers/STM32N6xx_HAL_Driver/Inc/stm32n6xx_ll_bus.h ****   *         @arg @ref LL_AHB3_GRP1_PERIPH_IAC
1245:Drivers/STM32N6xx_HAL_Driver/Inc/stm32n6xx_ll_bus.h ****   *
1246:Drivers/STM32N6xx_HAL_Driver/Inc/stm32n6xx_ll_bus.h ****   *         (*) value not defined in all devices.
1247:Drivers/STM32N6xx_HAL_Driver/Inc/stm32n6xx_ll_bus.h ****   * @retval None
1248:Drivers/STM32N6xx_HAL_Driver/Inc/stm32n6xx_ll_bus.h ****   */
1249:Drivers/STM32N6xx_HAL_Driver/Inc/stm32n6xx_ll_bus.h **** __STATIC_INLINE void LL_AHB3_GRP1_ForceReset(uint32_t Periphs)
1250:Drivers/STM32N6xx_HAL_Driver/Inc/stm32n6xx_ll_bus.h **** {
1251:Drivers/STM32N6xx_HAL_Driver/Inc/stm32n6xx_ll_bus.h ****   WRITE_REG(RCC->AHB3RSTSR, Periphs);
1252:Drivers/STM32N6xx_HAL_Driver/Inc/stm32n6xx_ll_bus.h **** }
1253:Drivers/STM32N6xx_HAL_Driver/Inc/stm32n6xx_ll_bus.h **** 
ARM GAS  /tmp/cciSlyUQ.s 			page 26


1254:Drivers/STM32N6xx_HAL_Driver/Inc/stm32n6xx_ll_bus.h **** /**
1255:Drivers/STM32N6xx_HAL_Driver/Inc/stm32n6xx_ll_bus.h ****   * @brief  Release AHB3 peripherals reset.
1256:Drivers/STM32N6xx_HAL_Driver/Inc/stm32n6xx_ll_bus.h ****   * @rmtoll AHB3RSTCR    RNGRSTC       LL_AHB3_GRP1_ReleaseReset\n
1257:Drivers/STM32N6xx_HAL_Driver/Inc/stm32n6xx_ll_bus.h ****   *         AHB3RSTCR    HASHRSTC      LL_AHB3_GRP1_ReleaseReset\n
1258:Drivers/STM32N6xx_HAL_Driver/Inc/stm32n6xx_ll_bus.h ****   *         AHB3RSTCR    CRYPRSTC      LL_AHB3_GRP1_ReleaseReset\n  (*)
1259:Drivers/STM32N6xx_HAL_Driver/Inc/stm32n6xx_ll_bus.h ****   *         AHB3RSTCR    SAESRSTC      LL_AHB3_GRP1_ReleaseReset\n  (*)
1260:Drivers/STM32N6xx_HAL_Driver/Inc/stm32n6xx_ll_bus.h ****   *         AHB3RSTCR    PKARSTC       LL_AHB3_GRP1_ReleaseReset\n
1261:Drivers/STM32N6xx_HAL_Driver/Inc/stm32n6xx_ll_bus.h ****   *         AHB3RSTCR    IACRSTC       LL_AHB3_GRP1_ReleaseReset
1262:Drivers/STM32N6xx_HAL_Driver/Inc/stm32n6xx_ll_bus.h ****   * @param  Periphs This parameter can be a combination of the following values:
1263:Drivers/STM32N6xx_HAL_Driver/Inc/stm32n6xx_ll_bus.h ****   *         @arg @ref LL_AHB3_GRP1_PERIPH_RNG
1264:Drivers/STM32N6xx_HAL_Driver/Inc/stm32n6xx_ll_bus.h ****   *         @arg @ref LL_AHB3_GRP1_PERIPH_HASH
1265:Drivers/STM32N6xx_HAL_Driver/Inc/stm32n6xx_ll_bus.h ****   *         @arg @ref LL_AHB3_GRP1_PERIPH_CRYP (*)
1266:Drivers/STM32N6xx_HAL_Driver/Inc/stm32n6xx_ll_bus.h ****   *         @arg @ref LL_AHB3_GRP1_PERIPH_SAES (*)
1267:Drivers/STM32N6xx_HAL_Driver/Inc/stm32n6xx_ll_bus.h ****   *         @arg @ref LL_AHB3_GRP1_PERIPH_PKA
1268:Drivers/STM32N6xx_HAL_Driver/Inc/stm32n6xx_ll_bus.h ****   *         @arg @ref LL_AHB3_GRP1_PERIPH_IAC
1269:Drivers/STM32N6xx_HAL_Driver/Inc/stm32n6xx_ll_bus.h ****   *
1270:Drivers/STM32N6xx_HAL_Driver/Inc/stm32n6xx_ll_bus.h ****   *         (*) value not defined in all devices.
1271:Drivers/STM32N6xx_HAL_Driver/Inc/stm32n6xx_ll_bus.h ****   * @retval None
1272:Drivers/STM32N6xx_HAL_Driver/Inc/stm32n6xx_ll_bus.h ****   */
1273:Drivers/STM32N6xx_HAL_Driver/Inc/stm32n6xx_ll_bus.h **** __STATIC_INLINE void LL_AHB3_GRP1_ReleaseReset(uint32_t Periphs)
1274:Drivers/STM32N6xx_HAL_Driver/Inc/stm32n6xx_ll_bus.h **** {
1275:Drivers/STM32N6xx_HAL_Driver/Inc/stm32n6xx_ll_bus.h ****   WRITE_REG(RCC->AHB3RSTCR, Periphs);
1276:Drivers/STM32N6xx_HAL_Driver/Inc/stm32n6xx_ll_bus.h **** }
1277:Drivers/STM32N6xx_HAL_Driver/Inc/stm32n6xx_ll_bus.h **** 
1278:Drivers/STM32N6xx_HAL_Driver/Inc/stm32n6xx_ll_bus.h **** /**
1279:Drivers/STM32N6xx_HAL_Driver/Inc/stm32n6xx_ll_bus.h ****   * @brief  Enable AHB3 peripherals clock during Low Power mode.
1280:Drivers/STM32N6xx_HAL_Driver/Inc/stm32n6xx_ll_bus.h ****   * @rmtoll AHB3LPENSR   RNGLPENS      LL_AHB3_GRP1_EnableClockLowPower\n
1281:Drivers/STM32N6xx_HAL_Driver/Inc/stm32n6xx_ll_bus.h ****   *         AHB3LPENSR   HASHLPENS     LL_AHB3_GRP1_EnableClockLowPower\n
1282:Drivers/STM32N6xx_HAL_Driver/Inc/stm32n6xx_ll_bus.h ****   *         AHB3LPENSR   CRYPLPENS     LL_AHB3_GRP1_EnableClockLowPower\n  (*)
1283:Drivers/STM32N6xx_HAL_Driver/Inc/stm32n6xx_ll_bus.h ****   *         AHB3LPENSR   SAESLPENS     LL_AHB3_GRP1_EnableClockLowPower\n  (*)
1284:Drivers/STM32N6xx_HAL_Driver/Inc/stm32n6xx_ll_bus.h ****   *         AHB3LPENSR   PKALPENS      LL_AHB3_GRP1_EnableClockLowPower\n
1285:Drivers/STM32N6xx_HAL_Driver/Inc/stm32n6xx_ll_bus.h ****   *         AHB3LPENSR   RIFSCLPENS    LL_AHB3_GRP1_EnableClockLowPower\n
1286:Drivers/STM32N6xx_HAL_Driver/Inc/stm32n6xx_ll_bus.h ****   *         AHB3LPENSR   RISAFLPENS    LL_AHB3_GRP1_EnableClockLowPower\n
1287:Drivers/STM32N6xx_HAL_Driver/Inc/stm32n6xx_ll_bus.h ****   *         AHB3LPENSR   IACLPENS      LL_AHB3_GRP1_EnableClockLowPower
1288:Drivers/STM32N6xx_HAL_Driver/Inc/stm32n6xx_ll_bus.h ****   * @param  Periphs This parameter can be a combination of the following values:
1289:Drivers/STM32N6xx_HAL_Driver/Inc/stm32n6xx_ll_bus.h ****   *         @arg @ref LL_AHB3_GRP1_PERIPH_RNG
1290:Drivers/STM32N6xx_HAL_Driver/Inc/stm32n6xx_ll_bus.h ****   *         @arg @ref LL_AHB3_GRP1_PERIPH_HASH
1291:Drivers/STM32N6xx_HAL_Driver/Inc/stm32n6xx_ll_bus.h ****   *         @arg @ref LL_AHB3_GRP1_PERIPH_CRYP (*)
1292:Drivers/STM32N6xx_HAL_Driver/Inc/stm32n6xx_ll_bus.h ****   *         @arg @ref LL_AHB3_GRP1_PERIPH_SAES (*)
1293:Drivers/STM32N6xx_HAL_Driver/Inc/stm32n6xx_ll_bus.h ****   *         @arg @ref LL_AHB3_GRP1_PERIPH_PKA
1294:Drivers/STM32N6xx_HAL_Driver/Inc/stm32n6xx_ll_bus.h ****   *         @arg @ref LL_AHB3_GRP1_PERIPH_RIFSC
1295:Drivers/STM32N6xx_HAL_Driver/Inc/stm32n6xx_ll_bus.h ****   *         @arg @ref LL_AHB3_GRP1_PERIPH_RISAF
1296:Drivers/STM32N6xx_HAL_Driver/Inc/stm32n6xx_ll_bus.h ****   *         @arg @ref LL_AHB3_GRP1_PERIPH_IAC
1297:Drivers/STM32N6xx_HAL_Driver/Inc/stm32n6xx_ll_bus.h ****   *
1298:Drivers/STM32N6xx_HAL_Driver/Inc/stm32n6xx_ll_bus.h ****   *         (*) value not defined in all devices.
1299:Drivers/STM32N6xx_HAL_Driver/Inc/stm32n6xx_ll_bus.h ****   * @retval None
1300:Drivers/STM32N6xx_HAL_Driver/Inc/stm32n6xx_ll_bus.h ****   */
1301:Drivers/STM32N6xx_HAL_Driver/Inc/stm32n6xx_ll_bus.h **** __STATIC_INLINE void LL_AHB3_GRP1_EnableClockLowPower(uint32_t Periphs)
1302:Drivers/STM32N6xx_HAL_Driver/Inc/stm32n6xx_ll_bus.h **** {
1303:Drivers/STM32N6xx_HAL_Driver/Inc/stm32n6xx_ll_bus.h ****   __IO uint32_t tmpreg;
1304:Drivers/STM32N6xx_HAL_Driver/Inc/stm32n6xx_ll_bus.h ****   WRITE_REG(RCC->AHB3LPENSR, Periphs);
1305:Drivers/STM32N6xx_HAL_Driver/Inc/stm32n6xx_ll_bus.h ****   /* Delay after an RCC peripheral clock enabling */
1306:Drivers/STM32N6xx_HAL_Driver/Inc/stm32n6xx_ll_bus.h ****   tmpreg = READ_REG(RCC->AHB3LPENR);
1307:Drivers/STM32N6xx_HAL_Driver/Inc/stm32n6xx_ll_bus.h ****   (void)tmpreg;
1308:Drivers/STM32N6xx_HAL_Driver/Inc/stm32n6xx_ll_bus.h **** }
1309:Drivers/STM32N6xx_HAL_Driver/Inc/stm32n6xx_ll_bus.h **** 
1310:Drivers/STM32N6xx_HAL_Driver/Inc/stm32n6xx_ll_bus.h **** /**
ARM GAS  /tmp/cciSlyUQ.s 			page 27


1311:Drivers/STM32N6xx_HAL_Driver/Inc/stm32n6xx_ll_bus.h ****   * @brief  Check if AHB3 peripheral clock during Low Power mode is enabled or not .
1312:Drivers/STM32N6xx_HAL_Driver/Inc/stm32n6xx_ll_bus.h ****   * @rmtoll AHB3LPENR    RNGLPEN       LL_AHB3_GRP1_IsEnabledClockLowPower\n
1313:Drivers/STM32N6xx_HAL_Driver/Inc/stm32n6xx_ll_bus.h ****   *         AHB3LPENR    HASHLPEN      LL_AHB3_GRP1_IsEnabledClockLowPower\n
1314:Drivers/STM32N6xx_HAL_Driver/Inc/stm32n6xx_ll_bus.h ****   *         AHB3LPENR    CRYPLPEN      LL_AHB3_GRP1_IsEnabledClockLowPower\n  (*)
1315:Drivers/STM32N6xx_HAL_Driver/Inc/stm32n6xx_ll_bus.h ****   *         AHB3LPENR    SAESLPEN      LL_AHB3_GRP1_IsEnabledClockLowPower\n  (*)
1316:Drivers/STM32N6xx_HAL_Driver/Inc/stm32n6xx_ll_bus.h ****   *         AHB3LPENR    PKALPEN       LL_AHB3_GRP1_IsEnabledClockLowPower\n
1317:Drivers/STM32N6xx_HAL_Driver/Inc/stm32n6xx_ll_bus.h ****   *         AHB3LPENR    RIFSCLPEN     LL_AHB3_GRP1_IsEnabledClockLowPower\n
1318:Drivers/STM32N6xx_HAL_Driver/Inc/stm32n6xx_ll_bus.h ****   *         AHB3LPENR    RISAFLPEN     LL_AHB3_GRP1_IsEnabledClockLowPower\n
1319:Drivers/STM32N6xx_HAL_Driver/Inc/stm32n6xx_ll_bus.h ****   *         AHB3LPENR    IACLPEN       LL_AHB3_GRP1_IsEnabledClockLowPower
1320:Drivers/STM32N6xx_HAL_Driver/Inc/stm32n6xx_ll_bus.h ****   * @param  Periphs This parameter can be a combination of the following values:
1321:Drivers/STM32N6xx_HAL_Driver/Inc/stm32n6xx_ll_bus.h ****   *         @arg @ref LL_AHB3_GRP1_PERIPH_RNG
1322:Drivers/STM32N6xx_HAL_Driver/Inc/stm32n6xx_ll_bus.h ****   *         @arg @ref LL_AHB3_GRP1_PERIPH_HASH
1323:Drivers/STM32N6xx_HAL_Driver/Inc/stm32n6xx_ll_bus.h ****   *         @arg @ref LL_AHB3_GRP1_PERIPH_CRYP (*)
1324:Drivers/STM32N6xx_HAL_Driver/Inc/stm32n6xx_ll_bus.h ****   *         @arg @ref LL_AHB3_GRP1_PERIPH_SAES (*)
1325:Drivers/STM32N6xx_HAL_Driver/Inc/stm32n6xx_ll_bus.h ****   *         @arg @ref LL_AHB3_GRP1_PERIPH_PKA
1326:Drivers/STM32N6xx_HAL_Driver/Inc/stm32n6xx_ll_bus.h ****   *         @arg @ref LL_AHB3_GRP1_PERIPH_RIFSC
1327:Drivers/STM32N6xx_HAL_Driver/Inc/stm32n6xx_ll_bus.h ****   *         @arg @ref LL_AHB3_GRP1_PERIPH_RISAF
1328:Drivers/STM32N6xx_HAL_Driver/Inc/stm32n6xx_ll_bus.h ****   *         @arg @ref LL_AHB3_GRP1_PERIPH_IAC
1329:Drivers/STM32N6xx_HAL_Driver/Inc/stm32n6xx_ll_bus.h ****   *
1330:Drivers/STM32N6xx_HAL_Driver/Inc/stm32n6xx_ll_bus.h ****   *         (*) value not defined in all devices.
1331:Drivers/STM32N6xx_HAL_Driver/Inc/stm32n6xx_ll_bus.h ****   * @retval uint32_t
1332:Drivers/STM32N6xx_HAL_Driver/Inc/stm32n6xx_ll_bus.h ****   */
1333:Drivers/STM32N6xx_HAL_Driver/Inc/stm32n6xx_ll_bus.h **** __STATIC_INLINE uint32_t LL_AHB3_GRP1_IsEnabledClockLowPower(uint32_t Periphs)
1334:Drivers/STM32N6xx_HAL_Driver/Inc/stm32n6xx_ll_bus.h **** {
1335:Drivers/STM32N6xx_HAL_Driver/Inc/stm32n6xx_ll_bus.h ****   return ((READ_BIT(RCC->AHB3LPENR, Periphs) == Periphs) ? 1UL : 0UL);
1336:Drivers/STM32N6xx_HAL_Driver/Inc/stm32n6xx_ll_bus.h **** }
1337:Drivers/STM32N6xx_HAL_Driver/Inc/stm32n6xx_ll_bus.h **** 
1338:Drivers/STM32N6xx_HAL_Driver/Inc/stm32n6xx_ll_bus.h **** /**
1339:Drivers/STM32N6xx_HAL_Driver/Inc/stm32n6xx_ll_bus.h ****   * @brief  Disable AHB3 peripherals clock during Low Power mode.
1340:Drivers/STM32N6xx_HAL_Driver/Inc/stm32n6xx_ll_bus.h ****   * @rmtoll AHB3LPENCR   RNGLPENC      LL_AHB3_GRP1_DisableClockLowPower\n
1341:Drivers/STM32N6xx_HAL_Driver/Inc/stm32n6xx_ll_bus.h ****   *         AHB3LPENCR   HASHLPENC     LL_AHB3_GRP1_DisableClockLowPower\n
1342:Drivers/STM32N6xx_HAL_Driver/Inc/stm32n6xx_ll_bus.h ****   *         AHB3LPENCR   CRYPLPENC     LL_AHB3_GRP1_DisableClockLowPower\n  (*)
1343:Drivers/STM32N6xx_HAL_Driver/Inc/stm32n6xx_ll_bus.h ****   *         AHB3LPENCR   SAESLPENC     LL_AHB3_GRP1_DisableClockLowPower\n  (*)
1344:Drivers/STM32N6xx_HAL_Driver/Inc/stm32n6xx_ll_bus.h ****   *         AHB3LPENCR   PKALPENC      LL_AHB3_GRP1_DisableClockLowPower\n
1345:Drivers/STM32N6xx_HAL_Driver/Inc/stm32n6xx_ll_bus.h ****   *         AHB3LPENCR   RIFSCLPENC    LL_AHB3_GRP1_DisableClockLowPower\n
1346:Drivers/STM32N6xx_HAL_Driver/Inc/stm32n6xx_ll_bus.h ****   *         AHB3LPENCR   RISAFLPENC    LL_AHB3_GRP1_DisableClockLowPower\n
1347:Drivers/STM32N6xx_HAL_Driver/Inc/stm32n6xx_ll_bus.h ****   *         AHB3LPENCR   IACLPENC      LL_AHB3_GRP1_DisableClockLowPower
1348:Drivers/STM32N6xx_HAL_Driver/Inc/stm32n6xx_ll_bus.h ****   * @param  Periphs This parameter can be a combination of the following values:
1349:Drivers/STM32N6xx_HAL_Driver/Inc/stm32n6xx_ll_bus.h ****   *         @arg @ref LL_AHB3_GRP1_PERIPH_RNG
1350:Drivers/STM32N6xx_HAL_Driver/Inc/stm32n6xx_ll_bus.h ****   *         @arg @ref LL_AHB3_GRP1_PERIPH_HASH
1351:Drivers/STM32N6xx_HAL_Driver/Inc/stm32n6xx_ll_bus.h ****   *         @arg @ref LL_AHB3_GRP1_PERIPH_CRYP (*)
1352:Drivers/STM32N6xx_HAL_Driver/Inc/stm32n6xx_ll_bus.h ****   *         @arg @ref LL_AHB3_GRP1_PERIPH_SAES (*)
1353:Drivers/STM32N6xx_HAL_Driver/Inc/stm32n6xx_ll_bus.h ****   *         @arg @ref LL_AHB3_GRP1_PERIPH_PKA
1354:Drivers/STM32N6xx_HAL_Driver/Inc/stm32n6xx_ll_bus.h ****   *         @arg @ref LL_AHB3_GRP1_PERIPH_RIFSC
1355:Drivers/STM32N6xx_HAL_Driver/Inc/stm32n6xx_ll_bus.h ****   *         @arg @ref LL_AHB3_GRP1_PERIPH_RISAF
1356:Drivers/STM32N6xx_HAL_Driver/Inc/stm32n6xx_ll_bus.h ****   *         @arg @ref LL_AHB3_GRP1_PERIPH_IAC
1357:Drivers/STM32N6xx_HAL_Driver/Inc/stm32n6xx_ll_bus.h ****   *
1358:Drivers/STM32N6xx_HAL_Driver/Inc/stm32n6xx_ll_bus.h ****   *         (*) value not defined in all devices.
1359:Drivers/STM32N6xx_HAL_Driver/Inc/stm32n6xx_ll_bus.h ****   * @retval None
1360:Drivers/STM32N6xx_HAL_Driver/Inc/stm32n6xx_ll_bus.h ****   */
1361:Drivers/STM32N6xx_HAL_Driver/Inc/stm32n6xx_ll_bus.h **** __STATIC_INLINE void LL_AHB3_GRP1_DisableClockLowPower(uint32_t Periphs)
1362:Drivers/STM32N6xx_HAL_Driver/Inc/stm32n6xx_ll_bus.h **** {
1363:Drivers/STM32N6xx_HAL_Driver/Inc/stm32n6xx_ll_bus.h ****   WRITE_REG(RCC->AHB3LPENCR, Periphs);
1364:Drivers/STM32N6xx_HAL_Driver/Inc/stm32n6xx_ll_bus.h **** }
1365:Drivers/STM32N6xx_HAL_Driver/Inc/stm32n6xx_ll_bus.h **** 
1366:Drivers/STM32N6xx_HAL_Driver/Inc/stm32n6xx_ll_bus.h **** /**
1367:Drivers/STM32N6xx_HAL_Driver/Inc/stm32n6xx_ll_bus.h ****   * @}
ARM GAS  /tmp/cciSlyUQ.s 			page 28


1368:Drivers/STM32N6xx_HAL_Driver/Inc/stm32n6xx_ll_bus.h ****   */
1369:Drivers/STM32N6xx_HAL_Driver/Inc/stm32n6xx_ll_bus.h **** 
1370:Drivers/STM32N6xx_HAL_Driver/Inc/stm32n6xx_ll_bus.h **** /** @defgroup BUS_LL_EF_AHB4 AHB4
1371:Drivers/STM32N6xx_HAL_Driver/Inc/stm32n6xx_ll_bus.h ****   * @{
1372:Drivers/STM32N6xx_HAL_Driver/Inc/stm32n6xx_ll_bus.h ****   */
1373:Drivers/STM32N6xx_HAL_Driver/Inc/stm32n6xx_ll_bus.h **** 
1374:Drivers/STM32N6xx_HAL_Driver/Inc/stm32n6xx_ll_bus.h **** /**
1375:Drivers/STM32N6xx_HAL_Driver/Inc/stm32n6xx_ll_bus.h ****   * @brief  Enable AHB4 peripherals clock.
1376:Drivers/STM32N6xx_HAL_Driver/Inc/stm32n6xx_ll_bus.h ****   * @rmtoll AHB4ENSR     GPIOAENS      LL_AHB4_GRP1_EnableClock\n
1377:Drivers/STM32N6xx_HAL_Driver/Inc/stm32n6xx_ll_bus.h ****   *         AHB4ENSR     GPIOBENS      LL_AHB4_GRP1_EnableClock\n
1378:Drivers/STM32N6xx_HAL_Driver/Inc/stm32n6xx_ll_bus.h ****   *         AHB4ENSR     GPIOCENS      LL_AHB4_GRP1_EnableClock\n
1379:Drivers/STM32N6xx_HAL_Driver/Inc/stm32n6xx_ll_bus.h ****   *         AHB4ENSR     GPIODENS      LL_AHB4_GRP1_EnableClock\n
1380:Drivers/STM32N6xx_HAL_Driver/Inc/stm32n6xx_ll_bus.h ****   *         AHB4ENSR     GPIOEENS      LL_AHB4_GRP1_EnableClock\n
1381:Drivers/STM32N6xx_HAL_Driver/Inc/stm32n6xx_ll_bus.h ****   *         AHB4ENSR     GPIOFENS      LL_AHB4_GRP1_EnableClock\n
1382:Drivers/STM32N6xx_HAL_Driver/Inc/stm32n6xx_ll_bus.h ****   *         AHB4ENSR     GPIOGENS      LL_AHB4_GRP1_EnableClock\n
1383:Drivers/STM32N6xx_HAL_Driver/Inc/stm32n6xx_ll_bus.h ****   *         AHB4ENSR     GPIOHENS      LL_AHB4_GRP1_EnableClock\n
1384:Drivers/STM32N6xx_HAL_Driver/Inc/stm32n6xx_ll_bus.h ****   *         AHB4ENSR     GPIONENS      LL_AHB4_GRP1_EnableClock\n
1385:Drivers/STM32N6xx_HAL_Driver/Inc/stm32n6xx_ll_bus.h ****   *         AHB4ENSR     GPIOOENS      LL_AHB4_GRP1_EnableClock\n
1386:Drivers/STM32N6xx_HAL_Driver/Inc/stm32n6xx_ll_bus.h ****   *         AHB4ENSR     GPIOPENS      LL_AHB4_GRP1_EnableClock\n
1387:Drivers/STM32N6xx_HAL_Driver/Inc/stm32n6xx_ll_bus.h ****   *         AHB4ENSR     GPIOQENS      LL_AHB4_GRP1_EnableClock\n
1388:Drivers/STM32N6xx_HAL_Driver/Inc/stm32n6xx_ll_bus.h ****   *         AHB4ENSR     PWRENS        LL_AHB4_GRP1_EnableClock\n
1389:Drivers/STM32N6xx_HAL_Driver/Inc/stm32n6xx_ll_bus.h ****   *         AHB4ENSR     CRCENS        LL_AHB4_GRP1_EnableClock
1390:Drivers/STM32N6xx_HAL_Driver/Inc/stm32n6xx_ll_bus.h ****   * @param  Periphs This parameter can be a combination of the following values:
1391:Drivers/STM32N6xx_HAL_Driver/Inc/stm32n6xx_ll_bus.h ****   *         @arg @ref LL_AHB4_GRP1_PERIPH_GPIOA
1392:Drivers/STM32N6xx_HAL_Driver/Inc/stm32n6xx_ll_bus.h ****   *         @arg @ref LL_AHB4_GRP1_PERIPH_GPIOB
1393:Drivers/STM32N6xx_HAL_Driver/Inc/stm32n6xx_ll_bus.h ****   *         @arg @ref LL_AHB4_GRP1_PERIPH_GPIOC
1394:Drivers/STM32N6xx_HAL_Driver/Inc/stm32n6xx_ll_bus.h ****   *         @arg @ref LL_AHB4_GRP1_PERIPH_GPIOD
1395:Drivers/STM32N6xx_HAL_Driver/Inc/stm32n6xx_ll_bus.h ****   *         @arg @ref LL_AHB4_GRP1_PERIPH_GPIOE
1396:Drivers/STM32N6xx_HAL_Driver/Inc/stm32n6xx_ll_bus.h ****   *         @arg @ref LL_AHB4_GRP1_PERIPH_GPIOF
1397:Drivers/STM32N6xx_HAL_Driver/Inc/stm32n6xx_ll_bus.h ****   *         @arg @ref LL_AHB4_GRP1_PERIPH_GPIOG
1398:Drivers/STM32N6xx_HAL_Driver/Inc/stm32n6xx_ll_bus.h ****   *         @arg @ref LL_AHB4_GRP1_PERIPH_GPIOH
1399:Drivers/STM32N6xx_HAL_Driver/Inc/stm32n6xx_ll_bus.h ****   *         @arg @ref LL_AHB4_GRP1_PERIPH_GPION
1400:Drivers/STM32N6xx_HAL_Driver/Inc/stm32n6xx_ll_bus.h ****   *         @arg @ref LL_AHB4_GRP1_PERIPH_GPIOO
1401:Drivers/STM32N6xx_HAL_Driver/Inc/stm32n6xx_ll_bus.h ****   *         @arg @ref LL_AHB4_GRP1_PERIPH_GPIOP
1402:Drivers/STM32N6xx_HAL_Driver/Inc/stm32n6xx_ll_bus.h ****   *         @arg @ref LL_AHB4_GRP1_PERIPH_GPIOQ
1403:Drivers/STM32N6xx_HAL_Driver/Inc/stm32n6xx_ll_bus.h ****   *         @arg @ref LL_AHB4_GRP1_PERIPH_PWR
1404:Drivers/STM32N6xx_HAL_Driver/Inc/stm32n6xx_ll_bus.h ****   *         @arg @ref LL_AHB4_GRP1_PERIPH_CRC
1405:Drivers/STM32N6xx_HAL_Driver/Inc/stm32n6xx_ll_bus.h ****   * @retval None
1406:Drivers/STM32N6xx_HAL_Driver/Inc/stm32n6xx_ll_bus.h ****   */
1407:Drivers/STM32N6xx_HAL_Driver/Inc/stm32n6xx_ll_bus.h **** __STATIC_INLINE void LL_AHB4_GRP1_EnableClock(uint32_t Periphs)
1408:Drivers/STM32N6xx_HAL_Driver/Inc/stm32n6xx_ll_bus.h **** {
1409:Drivers/STM32N6xx_HAL_Driver/Inc/stm32n6xx_ll_bus.h ****   __IO uint32_t tmpreg;
1410:Drivers/STM32N6xx_HAL_Driver/Inc/stm32n6xx_ll_bus.h ****   WRITE_REG(RCC->AHB4ENSR, Periphs);
1411:Drivers/STM32N6xx_HAL_Driver/Inc/stm32n6xx_ll_bus.h ****   /* Delay after an RCC peripheral clock enabling */
1412:Drivers/STM32N6xx_HAL_Driver/Inc/stm32n6xx_ll_bus.h ****   tmpreg = READ_REG(RCC->AHB4ENR);
1413:Drivers/STM32N6xx_HAL_Driver/Inc/stm32n6xx_ll_bus.h ****   (void)tmpreg;
1414:Drivers/STM32N6xx_HAL_Driver/Inc/stm32n6xx_ll_bus.h **** }
1415:Drivers/STM32N6xx_HAL_Driver/Inc/stm32n6xx_ll_bus.h **** 
1416:Drivers/STM32N6xx_HAL_Driver/Inc/stm32n6xx_ll_bus.h **** /**
1417:Drivers/STM32N6xx_HAL_Driver/Inc/stm32n6xx_ll_bus.h ****   * @brief  Check if AHB4 peripheral clock is enabled or not
1418:Drivers/STM32N6xx_HAL_Driver/Inc/stm32n6xx_ll_bus.h ****   * @rmtoll AHB4ENR      GPIOAEN       LL_AHB4_GRP1_IsEnabledClock\n
1419:Drivers/STM32N6xx_HAL_Driver/Inc/stm32n6xx_ll_bus.h ****   *         AHB4ENR      GPIOBEN       LL_AHB4_GRP1_IsEnabledClock\n
1420:Drivers/STM32N6xx_HAL_Driver/Inc/stm32n6xx_ll_bus.h ****   *         AHB4ENR      GPIOCEN       LL_AHB4_GRP1_IsEnabledClock\n
1421:Drivers/STM32N6xx_HAL_Driver/Inc/stm32n6xx_ll_bus.h ****   *         AHB4ENR      GPIODEN       LL_AHB4_GRP1_IsEnabledClock\n
1422:Drivers/STM32N6xx_HAL_Driver/Inc/stm32n6xx_ll_bus.h ****   *         AHB4ENR      GPIOEEN       LL_AHB4_GRP1_IsEnabledClock\n
1423:Drivers/STM32N6xx_HAL_Driver/Inc/stm32n6xx_ll_bus.h ****   *         AHB4ENR      GPIOFEN       LL_AHB4_GRP1_IsEnabledClock\n
1424:Drivers/STM32N6xx_HAL_Driver/Inc/stm32n6xx_ll_bus.h ****   *         AHB4ENR      GPIOGEN       LL_AHB4_GRP1_IsEnabledClock\n
ARM GAS  /tmp/cciSlyUQ.s 			page 29


1425:Drivers/STM32N6xx_HAL_Driver/Inc/stm32n6xx_ll_bus.h ****   *         AHB4ENR      GPIOHEN       LL_AHB4_GRP1_IsEnabledClock\n
1426:Drivers/STM32N6xx_HAL_Driver/Inc/stm32n6xx_ll_bus.h ****   *         AHB4ENR      GPIONEN       LL_AHB4_GRP1_IsEnabledClock\n
1427:Drivers/STM32N6xx_HAL_Driver/Inc/stm32n6xx_ll_bus.h ****   *         AHB4ENR      GPIOOEN       LL_AHB4_GRP1_IsEnabledClock\n
1428:Drivers/STM32N6xx_HAL_Driver/Inc/stm32n6xx_ll_bus.h ****   *         AHB4ENR      GPIOPEN       LL_AHB4_GRP1_IsEnabledClock\n
1429:Drivers/STM32N6xx_HAL_Driver/Inc/stm32n6xx_ll_bus.h ****   *         AHB4ENR      GPIOQEN       LL_AHB4_GRP1_IsEnabledClock\n
1430:Drivers/STM32N6xx_HAL_Driver/Inc/stm32n6xx_ll_bus.h ****   *         AHB4ENR      PWREN         LL_AHB4_GRP1_IsEnabledClock\n
1431:Drivers/STM32N6xx_HAL_Driver/Inc/stm32n6xx_ll_bus.h ****   *         AHB4ENR      CRCEN         LL_AHB4_GRP1_IsEnabledClock
1432:Drivers/STM32N6xx_HAL_Driver/Inc/stm32n6xx_ll_bus.h ****   * @param  Periphs This parameter can be a combination of the following values:
1433:Drivers/STM32N6xx_HAL_Driver/Inc/stm32n6xx_ll_bus.h ****   *         @arg @ref LL_AHB4_GRP1_PERIPH_GPIOA
1434:Drivers/STM32N6xx_HAL_Driver/Inc/stm32n6xx_ll_bus.h ****   *         @arg @ref LL_AHB4_GRP1_PERIPH_GPIOB
1435:Drivers/STM32N6xx_HAL_Driver/Inc/stm32n6xx_ll_bus.h ****   *         @arg @ref LL_AHB4_GRP1_PERIPH_GPIOC
1436:Drivers/STM32N6xx_HAL_Driver/Inc/stm32n6xx_ll_bus.h ****   *         @arg @ref LL_AHB4_GRP1_PERIPH_GPIOD
1437:Drivers/STM32N6xx_HAL_Driver/Inc/stm32n6xx_ll_bus.h ****   *         @arg @ref LL_AHB4_GRP1_PERIPH_GPIOE
1438:Drivers/STM32N6xx_HAL_Driver/Inc/stm32n6xx_ll_bus.h ****   *         @arg @ref LL_AHB4_GRP1_PERIPH_GPIOF
1439:Drivers/STM32N6xx_HAL_Driver/Inc/stm32n6xx_ll_bus.h ****   *         @arg @ref LL_AHB4_GRP1_PERIPH_GPIOG
1440:Drivers/STM32N6xx_HAL_Driver/Inc/stm32n6xx_ll_bus.h ****   *         @arg @ref LL_AHB4_GRP1_PERIPH_GPIOH
1441:Drivers/STM32N6xx_HAL_Driver/Inc/stm32n6xx_ll_bus.h ****   *         @arg @ref LL_AHB4_GRP1_PERIPH_GPION
1442:Drivers/STM32N6xx_HAL_Driver/Inc/stm32n6xx_ll_bus.h ****   *         @arg @ref LL_AHB4_GRP1_PERIPH_GPIOO
1443:Drivers/STM32N6xx_HAL_Driver/Inc/stm32n6xx_ll_bus.h ****   *         @arg @ref LL_AHB4_GRP1_PERIPH_GPIOP
1444:Drivers/STM32N6xx_HAL_Driver/Inc/stm32n6xx_ll_bus.h ****   *         @arg @ref LL_AHB4_GRP1_PERIPH_GPIOQ
1445:Drivers/STM32N6xx_HAL_Driver/Inc/stm32n6xx_ll_bus.h ****   *         @arg @ref LL_AHB4_GRP1_PERIPH_PWR
1446:Drivers/STM32N6xx_HAL_Driver/Inc/stm32n6xx_ll_bus.h ****   *         @arg @ref LL_AHB4_GRP1_PERIPH_CRC
1447:Drivers/STM32N6xx_HAL_Driver/Inc/stm32n6xx_ll_bus.h ****   * @retval uint32_t
1448:Drivers/STM32N6xx_HAL_Driver/Inc/stm32n6xx_ll_bus.h ****   */
1449:Drivers/STM32N6xx_HAL_Driver/Inc/stm32n6xx_ll_bus.h **** __STATIC_INLINE uint32_t LL_AHB4_GRP1_IsEnabledClock(uint32_t Periphs)
1450:Drivers/STM32N6xx_HAL_Driver/Inc/stm32n6xx_ll_bus.h **** {
1451:Drivers/STM32N6xx_HAL_Driver/Inc/stm32n6xx_ll_bus.h ****   return ((READ_BIT(RCC->AHB4ENR, Periphs) == Periphs) ? 1UL : 0UL);
1452:Drivers/STM32N6xx_HAL_Driver/Inc/stm32n6xx_ll_bus.h **** }
1453:Drivers/STM32N6xx_HAL_Driver/Inc/stm32n6xx_ll_bus.h **** 
1454:Drivers/STM32N6xx_HAL_Driver/Inc/stm32n6xx_ll_bus.h **** /**
1455:Drivers/STM32N6xx_HAL_Driver/Inc/stm32n6xx_ll_bus.h ****   * @brief  Disable AHB4 peripherals clock.
1456:Drivers/STM32N6xx_HAL_Driver/Inc/stm32n6xx_ll_bus.h ****   * @rmtoll AHB4ENCR     GPIOAENC      LL_AHB4_GRP1_DisableClock\n
1457:Drivers/STM32N6xx_HAL_Driver/Inc/stm32n6xx_ll_bus.h ****   *         AHB4ENCR     GPIOBENC      LL_AHB4_GRP1_DisableClock\n
1458:Drivers/STM32N6xx_HAL_Driver/Inc/stm32n6xx_ll_bus.h ****   *         AHB4ENCR     GPIOCENC      LL_AHB4_GRP1_DisableClock\n
1459:Drivers/STM32N6xx_HAL_Driver/Inc/stm32n6xx_ll_bus.h ****   *         AHB4ENCR     GPIODENC      LL_AHB4_GRP1_DisableClock\n
1460:Drivers/STM32N6xx_HAL_Driver/Inc/stm32n6xx_ll_bus.h ****   *         AHB4ENCR     GPIOEENC      LL_AHB4_GRP1_DisableClock\n
1461:Drivers/STM32N6xx_HAL_Driver/Inc/stm32n6xx_ll_bus.h ****   *         AHB4ENCR     GPIOFENC      LL_AHB4_GRP1_DisableClock\n
1462:Drivers/STM32N6xx_HAL_Driver/Inc/stm32n6xx_ll_bus.h ****   *         AHB4ENCR     GPIOGENC      LL_AHB4_GRP1_DisableClock\n
1463:Drivers/STM32N6xx_HAL_Driver/Inc/stm32n6xx_ll_bus.h ****   *         AHB4ENCR     GPIOHENC      LL_AHB4_GRP1_DisableClock\n
1464:Drivers/STM32N6xx_HAL_Driver/Inc/stm32n6xx_ll_bus.h ****   *         AHB4ENCR     GPIONENC      LL_AHB4_GRP1_DisableClock\n
1465:Drivers/STM32N6xx_HAL_Driver/Inc/stm32n6xx_ll_bus.h ****   *         AHB4ENCR     GPIOOENC      LL_AHB4_GRP1_DisableClock\n
1466:Drivers/STM32N6xx_HAL_Driver/Inc/stm32n6xx_ll_bus.h ****   *         AHB4ENCR     GPIOPENC      LL_AHB4_GRP1_DisableClock\n
1467:Drivers/STM32N6xx_HAL_Driver/Inc/stm32n6xx_ll_bus.h ****   *         AHB4ENCR     GPIOQENC      LL_AHB4_GRP1_DisableClock\n
1468:Drivers/STM32N6xx_HAL_Driver/Inc/stm32n6xx_ll_bus.h ****   *         AHB4ENCR     PWRENC        LL_AHB4_GRP1_DisableClock\n
1469:Drivers/STM32N6xx_HAL_Driver/Inc/stm32n6xx_ll_bus.h ****   *         AHB4ENCR     CRCENC        LL_AHB4_GRP1_DisableClock
1470:Drivers/STM32N6xx_HAL_Driver/Inc/stm32n6xx_ll_bus.h ****   * @param  Periphs This parameter can be a combination of the following values:
1471:Drivers/STM32N6xx_HAL_Driver/Inc/stm32n6xx_ll_bus.h ****   *         @arg @ref LL_AHB4_GRP1_PERIPH_GPIOA
1472:Drivers/STM32N6xx_HAL_Driver/Inc/stm32n6xx_ll_bus.h ****   *         @arg @ref LL_AHB4_GRP1_PERIPH_GPIOB
1473:Drivers/STM32N6xx_HAL_Driver/Inc/stm32n6xx_ll_bus.h ****   *         @arg @ref LL_AHB4_GRP1_PERIPH_GPIOC
1474:Drivers/STM32N6xx_HAL_Driver/Inc/stm32n6xx_ll_bus.h ****   *         @arg @ref LL_AHB4_GRP1_PERIPH_GPIOD
1475:Drivers/STM32N6xx_HAL_Driver/Inc/stm32n6xx_ll_bus.h ****   *         @arg @ref LL_AHB4_GRP1_PERIPH_GPIOE
1476:Drivers/STM32N6xx_HAL_Driver/Inc/stm32n6xx_ll_bus.h ****   *         @arg @ref LL_AHB4_GRP1_PERIPH_GPIOF
1477:Drivers/STM32N6xx_HAL_Driver/Inc/stm32n6xx_ll_bus.h ****   *         @arg @ref LL_AHB4_GRP1_PERIPH_GPIOG
1478:Drivers/STM32N6xx_HAL_Driver/Inc/stm32n6xx_ll_bus.h ****   *         @arg @ref LL_AHB4_GRP1_PERIPH_GPIOH
1479:Drivers/STM32N6xx_HAL_Driver/Inc/stm32n6xx_ll_bus.h ****   *         @arg @ref LL_AHB4_GRP1_PERIPH_GPION
1480:Drivers/STM32N6xx_HAL_Driver/Inc/stm32n6xx_ll_bus.h ****   *         @arg @ref LL_AHB4_GRP1_PERIPH_GPIOO
1481:Drivers/STM32N6xx_HAL_Driver/Inc/stm32n6xx_ll_bus.h ****   *         @arg @ref LL_AHB4_GRP1_PERIPH_GPIOP
ARM GAS  /tmp/cciSlyUQ.s 			page 30


1482:Drivers/STM32N6xx_HAL_Driver/Inc/stm32n6xx_ll_bus.h ****   *         @arg @ref LL_AHB4_GRP1_PERIPH_GPIOQ
1483:Drivers/STM32N6xx_HAL_Driver/Inc/stm32n6xx_ll_bus.h ****   *         @arg @ref LL_AHB4_GRP1_PERIPH_PWR
1484:Drivers/STM32N6xx_HAL_Driver/Inc/stm32n6xx_ll_bus.h ****   *         @arg @ref LL_AHB4_GRP1_PERIPH_CRC
1485:Drivers/STM32N6xx_HAL_Driver/Inc/stm32n6xx_ll_bus.h ****   * @retval None
1486:Drivers/STM32N6xx_HAL_Driver/Inc/stm32n6xx_ll_bus.h ****   */
1487:Drivers/STM32N6xx_HAL_Driver/Inc/stm32n6xx_ll_bus.h **** __STATIC_INLINE void LL_AHB4_GRP1_DisableClock(uint32_t Periphs)
1488:Drivers/STM32N6xx_HAL_Driver/Inc/stm32n6xx_ll_bus.h **** {
1489:Drivers/STM32N6xx_HAL_Driver/Inc/stm32n6xx_ll_bus.h ****   WRITE_REG(RCC->AHB4ENCR, Periphs);
1490:Drivers/STM32N6xx_HAL_Driver/Inc/stm32n6xx_ll_bus.h **** }
1491:Drivers/STM32N6xx_HAL_Driver/Inc/stm32n6xx_ll_bus.h **** 
1492:Drivers/STM32N6xx_HAL_Driver/Inc/stm32n6xx_ll_bus.h **** /**
1493:Drivers/STM32N6xx_HAL_Driver/Inc/stm32n6xx_ll_bus.h ****   * @brief  Force AHB4 peripherals reset.
1494:Drivers/STM32N6xx_HAL_Driver/Inc/stm32n6xx_ll_bus.h ****   * @rmtoll AHB4RSTSR     GPIOARSTS      LL_AHB4_GRP1_ForceReset\n
1495:Drivers/STM32N6xx_HAL_Driver/Inc/stm32n6xx_ll_bus.h ****   *         AHB4RSTSR     GPIOBRSTS      LL_AHB4_GRP1_ForceReset\n
1496:Drivers/STM32N6xx_HAL_Driver/Inc/stm32n6xx_ll_bus.h ****   *         AHB4RSTSR     GPIOCRSTS      LL_AHB4_GRP1_ForceReset\n
1497:Drivers/STM32N6xx_HAL_Driver/Inc/stm32n6xx_ll_bus.h ****   *         AHB4RSTSR     GPIODRSTS      LL_AHB4_GRP1_ForceReset\n
1498:Drivers/STM32N6xx_HAL_Driver/Inc/stm32n6xx_ll_bus.h ****   *         AHB4RSTSR     GPIOERSTS      LL_AHB4_GRP1_ForceReset\n
1499:Drivers/STM32N6xx_HAL_Driver/Inc/stm32n6xx_ll_bus.h ****   *         AHB4RSTSR     GPIOFRSTS      LL_AHB4_GRP1_ForceReset\n
1500:Drivers/STM32N6xx_HAL_Driver/Inc/stm32n6xx_ll_bus.h ****   *         AHB4RSTSR     GPIOGRSTS      LL_AHB4_GRP1_ForceReset\n
1501:Drivers/STM32N6xx_HAL_Driver/Inc/stm32n6xx_ll_bus.h ****   *         AHB4RSTSR     GPIOHRSTS      LL_AHB4_GRP1_ForceReset\n
1502:Drivers/STM32N6xx_HAL_Driver/Inc/stm32n6xx_ll_bus.h ****   *         AHB4RSTSR     GPIONRSTS      LL_AHB4_GRP1_ForceReset\n
1503:Drivers/STM32N6xx_HAL_Driver/Inc/stm32n6xx_ll_bus.h ****   *         AHB4RSTSR     GPIOORSTS      LL_AHB4_GRP1_ForceReset\n
1504:Drivers/STM32N6xx_HAL_Driver/Inc/stm32n6xx_ll_bus.h ****   *         AHB4RSTSR     GPIOPRSTS      LL_AHB4_GRP1_ForceReset\n
1505:Drivers/STM32N6xx_HAL_Driver/Inc/stm32n6xx_ll_bus.h ****   *         AHB4RSTSR     GPIOQRSTS      LL_AHB4_GRP1_ForceReset\n
1506:Drivers/STM32N6xx_HAL_Driver/Inc/stm32n6xx_ll_bus.h ****   *         AHB4RSTSR     CRCRSTS        LL_AHB4_GRP1_ForceReset\n
1507:Drivers/STM32N6xx_HAL_Driver/Inc/stm32n6xx_ll_bus.h ****   *         AHB4RSTSR     BKPRAMRSTS     LL_AHB4_GRP1_ForceReset
1508:Drivers/STM32N6xx_HAL_Driver/Inc/stm32n6xx_ll_bus.h ****   * @param  Periphs This parameter can be a combination of the following values:
1509:Drivers/STM32N6xx_HAL_Driver/Inc/stm32n6xx_ll_bus.h ****   *         @arg @ref LL_AHB4_GRP1_PERIPH_GPIOA
1510:Drivers/STM32N6xx_HAL_Driver/Inc/stm32n6xx_ll_bus.h ****   *         @arg @ref LL_AHB4_GRP1_PERIPH_GPIOB
1511:Drivers/STM32N6xx_HAL_Driver/Inc/stm32n6xx_ll_bus.h ****   *         @arg @ref LL_AHB4_GRP1_PERIPH_GPIOC
1512:Drivers/STM32N6xx_HAL_Driver/Inc/stm32n6xx_ll_bus.h ****   *         @arg @ref LL_AHB4_GRP1_PERIPH_GPIOD
1513:Drivers/STM32N6xx_HAL_Driver/Inc/stm32n6xx_ll_bus.h ****   *         @arg @ref LL_AHB4_GRP1_PERIPH_GPIOE
1514:Drivers/STM32N6xx_HAL_Driver/Inc/stm32n6xx_ll_bus.h ****   *         @arg @ref LL_AHB4_GRP1_PERIPH_GPIOF
1515:Drivers/STM32N6xx_HAL_Driver/Inc/stm32n6xx_ll_bus.h ****   *         @arg @ref LL_AHB4_GRP1_PERIPH_GPIOG
1516:Drivers/STM32N6xx_HAL_Driver/Inc/stm32n6xx_ll_bus.h ****   *         @arg @ref LL_AHB4_GRP1_PERIPH_GPIOH
1517:Drivers/STM32N6xx_HAL_Driver/Inc/stm32n6xx_ll_bus.h ****   *         @arg @ref LL_AHB4_GRP1_PERIPH_GPION
1518:Drivers/STM32N6xx_HAL_Driver/Inc/stm32n6xx_ll_bus.h ****   *         @arg @ref LL_AHB4_GRP1_PERIPH_GPIOO
1519:Drivers/STM32N6xx_HAL_Driver/Inc/stm32n6xx_ll_bus.h ****   *         @arg @ref LL_AHB4_GRP1_PERIPH_GPIOP
1520:Drivers/STM32N6xx_HAL_Driver/Inc/stm32n6xx_ll_bus.h ****   *         @arg @ref LL_AHB4_GRP1_PERIPH_GPIOQ
1521:Drivers/STM32N6xx_HAL_Driver/Inc/stm32n6xx_ll_bus.h ****   *         @arg @ref LL_AHB4_GRP1_PERIPH_PWR
1522:Drivers/STM32N6xx_HAL_Driver/Inc/stm32n6xx_ll_bus.h ****   *         @arg @ref LL_AHB4_GRP1_PERIPH_CRC
1523:Drivers/STM32N6xx_HAL_Driver/Inc/stm32n6xx_ll_bus.h ****   * @retval None
1524:Drivers/STM32N6xx_HAL_Driver/Inc/stm32n6xx_ll_bus.h ****   */
1525:Drivers/STM32N6xx_HAL_Driver/Inc/stm32n6xx_ll_bus.h **** __STATIC_INLINE void LL_AHB4_GRP1_ForceReset(uint32_t Periphs)
1526:Drivers/STM32N6xx_HAL_Driver/Inc/stm32n6xx_ll_bus.h **** {
1527:Drivers/STM32N6xx_HAL_Driver/Inc/stm32n6xx_ll_bus.h ****   WRITE_REG(RCC->AHB4RSTSR, Periphs);
1528:Drivers/STM32N6xx_HAL_Driver/Inc/stm32n6xx_ll_bus.h **** }
1529:Drivers/STM32N6xx_HAL_Driver/Inc/stm32n6xx_ll_bus.h **** 
1530:Drivers/STM32N6xx_HAL_Driver/Inc/stm32n6xx_ll_bus.h **** /**
1531:Drivers/STM32N6xx_HAL_Driver/Inc/stm32n6xx_ll_bus.h ****   * @brief  Release AHB4 peripherals reset.
1532:Drivers/STM32N6xx_HAL_Driver/Inc/stm32n6xx_ll_bus.h ****   * @rmtoll AHB4RSTCR     GPIOARSTC      LL_AHB4_GRP1_ReleaseReset\n
1533:Drivers/STM32N6xx_HAL_Driver/Inc/stm32n6xx_ll_bus.h ****   *         AHB4RSTCR     GPIOBRSTC      LL_AHB4_GRP1_ReleaseReset\n
1534:Drivers/STM32N6xx_HAL_Driver/Inc/stm32n6xx_ll_bus.h ****   *         AHB4RSTCR     GPIOCRSTC      LL_AHB4_GRP1_ReleaseReset\n
1535:Drivers/STM32N6xx_HAL_Driver/Inc/stm32n6xx_ll_bus.h ****   *         AHB4RSTCR     GPIODRSTC      LL_AHB4_GRP1_ReleaseReset\n
1536:Drivers/STM32N6xx_HAL_Driver/Inc/stm32n6xx_ll_bus.h ****   *         AHB4RSTCR     GPIOERSTC      LL_AHB4_GRP1_ReleaseReset\n
1537:Drivers/STM32N6xx_HAL_Driver/Inc/stm32n6xx_ll_bus.h ****   *         AHB4RSTCR     GPIOFRSTC      LL_AHB4_GRP1_ReleaseReset\n
1538:Drivers/STM32N6xx_HAL_Driver/Inc/stm32n6xx_ll_bus.h ****   *         AHB4RSTCR     GPIOGRSTC      LL_AHB4_GRP1_ReleaseReset\n
ARM GAS  /tmp/cciSlyUQ.s 			page 31


1539:Drivers/STM32N6xx_HAL_Driver/Inc/stm32n6xx_ll_bus.h ****   *         AHB4RSTCR     GPIOHRSTC      LL_AHB4_GRP1_ReleaseReset\n
1540:Drivers/STM32N6xx_HAL_Driver/Inc/stm32n6xx_ll_bus.h ****   *         AHB4RSTCR     GPIONRSTC      LL_AHB4_GRP1_ReleaseReset\n
1541:Drivers/STM32N6xx_HAL_Driver/Inc/stm32n6xx_ll_bus.h ****   *         AHB4RSTCR     GPIOORSTC      LL_AHB4_GRP1_ReleaseReset\n
1542:Drivers/STM32N6xx_HAL_Driver/Inc/stm32n6xx_ll_bus.h ****   *         AHB4RSTCR     GPIOPRSTC      LL_AHB4_GRP1_ReleaseReset\n
1543:Drivers/STM32N6xx_HAL_Driver/Inc/stm32n6xx_ll_bus.h ****   *         AHB4RSTCR     GPIOQRSTC      LL_AHB4_GRP1_ReleaseReset\n
1544:Drivers/STM32N6xx_HAL_Driver/Inc/stm32n6xx_ll_bus.h ****   *         AHB4RSTCR     CRCRSTC        LL_AHB4_GRP1_ReleaseReset\n
1545:Drivers/STM32N6xx_HAL_Driver/Inc/stm32n6xx_ll_bus.h ****   *         AHB4RSTCR     BKPRAMRSTC     LL_AHB4_GRP1_ReleaseReset
1546:Drivers/STM32N6xx_HAL_Driver/Inc/stm32n6xx_ll_bus.h ****   * @param  Periphs This parameter can be a combination of the following values:
1547:Drivers/STM32N6xx_HAL_Driver/Inc/stm32n6xx_ll_bus.h ****   *         @arg @ref LL_AHB4_GRP1_PERIPH_GPIOA
1548:Drivers/STM32N6xx_HAL_Driver/Inc/stm32n6xx_ll_bus.h ****   *         @arg @ref LL_AHB4_GRP1_PERIPH_GPIOB
1549:Drivers/STM32N6xx_HAL_Driver/Inc/stm32n6xx_ll_bus.h ****   *         @arg @ref LL_AHB4_GRP1_PERIPH_GPIOC
1550:Drivers/STM32N6xx_HAL_Driver/Inc/stm32n6xx_ll_bus.h ****   *         @arg @ref LL_AHB4_GRP1_PERIPH_GPIOD
1551:Drivers/STM32N6xx_HAL_Driver/Inc/stm32n6xx_ll_bus.h ****   *         @arg @ref LL_AHB4_GRP1_PERIPH_GPIOE
1552:Drivers/STM32N6xx_HAL_Driver/Inc/stm32n6xx_ll_bus.h ****   *         @arg @ref LL_AHB4_GRP1_PERIPH_GPIOF
1553:Drivers/STM32N6xx_HAL_Driver/Inc/stm32n6xx_ll_bus.h ****   *         @arg @ref LL_AHB4_GRP1_PERIPH_GPIOG
1554:Drivers/STM32N6xx_HAL_Driver/Inc/stm32n6xx_ll_bus.h ****   *         @arg @ref LL_AHB4_GRP1_PERIPH_GPIOH
1555:Drivers/STM32N6xx_HAL_Driver/Inc/stm32n6xx_ll_bus.h ****   *         @arg @ref LL_AHB4_GRP1_PERIPH_GPION
1556:Drivers/STM32N6xx_HAL_Driver/Inc/stm32n6xx_ll_bus.h ****   *         @arg @ref LL_AHB4_GRP1_PERIPH_GPIOO
1557:Drivers/STM32N6xx_HAL_Driver/Inc/stm32n6xx_ll_bus.h ****   *         @arg @ref LL_AHB4_GRP1_PERIPH_GPIOP
1558:Drivers/STM32N6xx_HAL_Driver/Inc/stm32n6xx_ll_bus.h ****   *         @arg @ref LL_AHB4_GRP1_PERIPH_GPIOQ
1559:Drivers/STM32N6xx_HAL_Driver/Inc/stm32n6xx_ll_bus.h ****   *         @arg @ref LL_AHB4_GRP1_PERIPH_PWR
1560:Drivers/STM32N6xx_HAL_Driver/Inc/stm32n6xx_ll_bus.h ****   *         @arg @ref LL_AHB4_GRP1_PERIPH_CRC
1561:Drivers/STM32N6xx_HAL_Driver/Inc/stm32n6xx_ll_bus.h ****   * @retval None
1562:Drivers/STM32N6xx_HAL_Driver/Inc/stm32n6xx_ll_bus.h ****   */
1563:Drivers/STM32N6xx_HAL_Driver/Inc/stm32n6xx_ll_bus.h **** __STATIC_INLINE void LL_AHB4_GRP1_ReleaseReset(uint32_t Periphs)
1564:Drivers/STM32N6xx_HAL_Driver/Inc/stm32n6xx_ll_bus.h **** {
1565:Drivers/STM32N6xx_HAL_Driver/Inc/stm32n6xx_ll_bus.h ****   WRITE_REG(RCC->AHB4RSTCR, Periphs);
1566:Drivers/STM32N6xx_HAL_Driver/Inc/stm32n6xx_ll_bus.h **** }
1567:Drivers/STM32N6xx_HAL_Driver/Inc/stm32n6xx_ll_bus.h **** 
1568:Drivers/STM32N6xx_HAL_Driver/Inc/stm32n6xx_ll_bus.h **** /**
1569:Drivers/STM32N6xx_HAL_Driver/Inc/stm32n6xx_ll_bus.h ****   * @brief  Enable AHB4 peripherals clock during Low Power mode.
1570:Drivers/STM32N6xx_HAL_Driver/Inc/stm32n6xx_ll_bus.h ****   * @rmtoll AHB4LPENSR    GPIOALPENS     LL_AHB4_GRP1_EnableClockLowPower\n
1571:Drivers/STM32N6xx_HAL_Driver/Inc/stm32n6xx_ll_bus.h ****   *         AHB4LPENSR    GPIOBLPENS     LL_AHB4_GRP1_EnableClockLowPower\n
1572:Drivers/STM32N6xx_HAL_Driver/Inc/stm32n6xx_ll_bus.h ****   *         AHB4LPENSR    GPIOCLPENS     LL_AHB4_GRP1_EnableClockLowPower\n
1573:Drivers/STM32N6xx_HAL_Driver/Inc/stm32n6xx_ll_bus.h ****   *         AHB4LPENSR    GPIODLPENS     LL_AHB4_GRP1_EnableClockLowPower\n
1574:Drivers/STM32N6xx_HAL_Driver/Inc/stm32n6xx_ll_bus.h ****   *         AHB4LPENSR    GPIOELPENS     LL_AHB4_GRP1_EnableClockLowPower\n
1575:Drivers/STM32N6xx_HAL_Driver/Inc/stm32n6xx_ll_bus.h ****   *         AHB4LPENSR    GPIOFLPENS     LL_AHB4_GRP1_EnableClockLowPower\n
1576:Drivers/STM32N6xx_HAL_Driver/Inc/stm32n6xx_ll_bus.h ****   *         AHB4LPENSR    GPIOGLPENS     LL_AHB4_GRP1_EnableClockLowPower\n
1577:Drivers/STM32N6xx_HAL_Driver/Inc/stm32n6xx_ll_bus.h ****   *         AHB4LPENSR    GPIOHLPENS     LL_AHB4_GRP1_EnableClockLowPower\n
1578:Drivers/STM32N6xx_HAL_Driver/Inc/stm32n6xx_ll_bus.h ****   *         AHB4LPENSR    GPIONLPENS     LL_AHB4_GRP1_EnableClockLowPower\n
1579:Drivers/STM32N6xx_HAL_Driver/Inc/stm32n6xx_ll_bus.h ****   *         AHB4LPENSR    GPIOOLPENS     LL_AHB4_GRP1_EnableClockLowPower\n
1580:Drivers/STM32N6xx_HAL_Driver/Inc/stm32n6xx_ll_bus.h ****   *         AHB4LPENSR    GPIOPLPENS     LL_AHB4_GRP1_EnableClockLowPower\n
1581:Drivers/STM32N6xx_HAL_Driver/Inc/stm32n6xx_ll_bus.h ****   *         AHB4LPENSR    GPIOQLPENS     LL_AHB4_GRP1_EnableClockLowPower\n
1582:Drivers/STM32N6xx_HAL_Driver/Inc/stm32n6xx_ll_bus.h ****   *         AHB4LPENSR    CRCLPENS       LL_AHB4_GRP1_EnableClockLowPower\n
1583:Drivers/STM32N6xx_HAL_Driver/Inc/stm32n6xx_ll_bus.h ****   *         AHB4LPENSR    BKPRAMLPENS    LL_AHB4_GRP1_EnableClockLowPower
1584:Drivers/STM32N6xx_HAL_Driver/Inc/stm32n6xx_ll_bus.h ****   * @param  Periphs This parameter can be a combination of the following values:
1585:Drivers/STM32N6xx_HAL_Driver/Inc/stm32n6xx_ll_bus.h ****   *         @arg @ref LL_AHB4_GRP1_PERIPH_GPIOA
1586:Drivers/STM32N6xx_HAL_Driver/Inc/stm32n6xx_ll_bus.h ****   *         @arg @ref LL_AHB4_GRP1_PERIPH_GPIOB
1587:Drivers/STM32N6xx_HAL_Driver/Inc/stm32n6xx_ll_bus.h ****   *         @arg @ref LL_AHB4_GRP1_PERIPH_GPIOC
1588:Drivers/STM32N6xx_HAL_Driver/Inc/stm32n6xx_ll_bus.h ****   *         @arg @ref LL_AHB4_GRP1_PERIPH_GPIOD
1589:Drivers/STM32N6xx_HAL_Driver/Inc/stm32n6xx_ll_bus.h ****   *         @arg @ref LL_AHB4_GRP1_PERIPH_GPIOE
1590:Drivers/STM32N6xx_HAL_Driver/Inc/stm32n6xx_ll_bus.h ****   *         @arg @ref LL_AHB4_GRP1_PERIPH_GPIOF
1591:Drivers/STM32N6xx_HAL_Driver/Inc/stm32n6xx_ll_bus.h ****   *         @arg @ref LL_AHB4_GRP1_PERIPH_GPIOG
1592:Drivers/STM32N6xx_HAL_Driver/Inc/stm32n6xx_ll_bus.h ****   *         @arg @ref LL_AHB4_GRP1_PERIPH_GPIOH
1593:Drivers/STM32N6xx_HAL_Driver/Inc/stm32n6xx_ll_bus.h ****   *         @arg @ref LL_AHB4_GRP1_PERIPH_GPION
1594:Drivers/STM32N6xx_HAL_Driver/Inc/stm32n6xx_ll_bus.h ****   *         @arg @ref LL_AHB4_GRP1_PERIPH_GPIOO
1595:Drivers/STM32N6xx_HAL_Driver/Inc/stm32n6xx_ll_bus.h ****   *         @arg @ref LL_AHB4_GRP1_PERIPH_GPIOP
ARM GAS  /tmp/cciSlyUQ.s 			page 32


1596:Drivers/STM32N6xx_HAL_Driver/Inc/stm32n6xx_ll_bus.h ****   *         @arg @ref LL_AHB4_GRP1_PERIPH_GPIOQ
1597:Drivers/STM32N6xx_HAL_Driver/Inc/stm32n6xx_ll_bus.h ****   *         @arg @ref LL_AHB4_GRP1_PERIPH_PWR
1598:Drivers/STM32N6xx_HAL_Driver/Inc/stm32n6xx_ll_bus.h ****   *         @arg @ref LL_AHB4_GRP1_PERIPH_CRC
1599:Drivers/STM32N6xx_HAL_Driver/Inc/stm32n6xx_ll_bus.h ****   * @retval None
1600:Drivers/STM32N6xx_HAL_Driver/Inc/stm32n6xx_ll_bus.h ****   */
1601:Drivers/STM32N6xx_HAL_Driver/Inc/stm32n6xx_ll_bus.h **** __STATIC_INLINE void LL_AHB4_GRP1_EnableClockLowPower(uint32_t Periphs)
1602:Drivers/STM32N6xx_HAL_Driver/Inc/stm32n6xx_ll_bus.h **** {
1603:Drivers/STM32N6xx_HAL_Driver/Inc/stm32n6xx_ll_bus.h ****   __IO uint32_t tmpreg;
1604:Drivers/STM32N6xx_HAL_Driver/Inc/stm32n6xx_ll_bus.h ****   WRITE_REG(RCC->AHB4LPENSR, Periphs);
1605:Drivers/STM32N6xx_HAL_Driver/Inc/stm32n6xx_ll_bus.h ****   /* Delay after an RCC peripheral clock enabling */
1606:Drivers/STM32N6xx_HAL_Driver/Inc/stm32n6xx_ll_bus.h ****   tmpreg = READ_REG(RCC->AHB4LPENR);
1607:Drivers/STM32N6xx_HAL_Driver/Inc/stm32n6xx_ll_bus.h ****   (void)tmpreg;
1608:Drivers/STM32N6xx_HAL_Driver/Inc/stm32n6xx_ll_bus.h **** }
1609:Drivers/STM32N6xx_HAL_Driver/Inc/stm32n6xx_ll_bus.h **** 
1610:Drivers/STM32N6xx_HAL_Driver/Inc/stm32n6xx_ll_bus.h **** /**
1611:Drivers/STM32N6xx_HAL_Driver/Inc/stm32n6xx_ll_bus.h ****   * @brief  Check if AHB4 peripheral clock during Low Power mode is enabled or not .
1612:Drivers/STM32N6xx_HAL_Driver/Inc/stm32n6xx_ll_bus.h ****   * @rmtoll AHB4LPENR     GPIOALPEN      LL_AHB4_GRP1_IsEnabledClockLowPower\n
1613:Drivers/STM32N6xx_HAL_Driver/Inc/stm32n6xx_ll_bus.h ****   *         AHB4LPENR     GPIOBLPEN      LL_AHB4_GRP1_IsEnabledClockLowPower\n
1614:Drivers/STM32N6xx_HAL_Driver/Inc/stm32n6xx_ll_bus.h ****   *         AHB4LPENR     GPIOCLPEN      LL_AHB4_GRP1_IsEnabledClockLowPower\n
1615:Drivers/STM32N6xx_HAL_Driver/Inc/stm32n6xx_ll_bus.h ****   *         AHB4LPENR     GPIODLPEN      LL_AHB4_GRP1_IsEnabledClockLowPower\n
1616:Drivers/STM32N6xx_HAL_Driver/Inc/stm32n6xx_ll_bus.h ****   *         AHB4LPENR     GPIOELPEN      LL_AHB4_GRP1_IsEnabledClockLowPower\n
1617:Drivers/STM32N6xx_HAL_Driver/Inc/stm32n6xx_ll_bus.h ****   *         AHB4LPENR     GPIOFLPEN      LL_AHB4_GRP1_IsEnabledClockLowPower\n
1618:Drivers/STM32N6xx_HAL_Driver/Inc/stm32n6xx_ll_bus.h ****   *         AHB4LPENR     GPIOGLPEN      LL_AHB4_GRP1_IsEnabledClockLowPower\n
1619:Drivers/STM32N6xx_HAL_Driver/Inc/stm32n6xx_ll_bus.h ****   *         AHB4LPENR     GPIOHLPEN      LL_AHB4_GRP1_IsEnabledClockLowPower\n
1620:Drivers/STM32N6xx_HAL_Driver/Inc/stm32n6xx_ll_bus.h ****   *         AHB4LPENR     GPIONLPEN      LL_AHB4_GRP1_IsEnabledClockLowPower\n
1621:Drivers/STM32N6xx_HAL_Driver/Inc/stm32n6xx_ll_bus.h ****   *         AHB4LPENR     GPIOOLPEN      LL_AHB4_GRP1_IsEnabledClockLowPower\n
1622:Drivers/STM32N6xx_HAL_Driver/Inc/stm32n6xx_ll_bus.h ****   *         AHB4LPENR     GPIOPLPEN      LL_AHB4_GRP1_IsEnabledClockLowPower\n
1623:Drivers/STM32N6xx_HAL_Driver/Inc/stm32n6xx_ll_bus.h ****   *         AHB4LPENR     GPIOQLPEN      LL_AHB4_GRP1_IsEnabledClockLowPower\n
1624:Drivers/STM32N6xx_HAL_Driver/Inc/stm32n6xx_ll_bus.h ****   *         AHB4LPENR     PWRLPEN        LL_AHB4_GRP1_IsEnabledClockLowPower\n
1625:Drivers/STM32N6xx_HAL_Driver/Inc/stm32n6xx_ll_bus.h ****   *         AHB4LPENR     CRCLPEN        LL_AHB4_GRP1_IsEnabledClockLowPower
1626:Drivers/STM32N6xx_HAL_Driver/Inc/stm32n6xx_ll_bus.h ****   * @param  Periphs This parameter can be a combination of the following values:
1627:Drivers/STM32N6xx_HAL_Driver/Inc/stm32n6xx_ll_bus.h ****   *         @arg @ref LL_AHB4_GRP1_PERIPH_GPIOA
1628:Drivers/STM32N6xx_HAL_Driver/Inc/stm32n6xx_ll_bus.h ****   *         @arg @ref LL_AHB4_GRP1_PERIPH_GPIOB
1629:Drivers/STM32N6xx_HAL_Driver/Inc/stm32n6xx_ll_bus.h ****   *         @arg @ref LL_AHB4_GRP1_PERIPH_GPIOC
1630:Drivers/STM32N6xx_HAL_Driver/Inc/stm32n6xx_ll_bus.h ****   *         @arg @ref LL_AHB4_GRP1_PERIPH_GPIOD
1631:Drivers/STM32N6xx_HAL_Driver/Inc/stm32n6xx_ll_bus.h ****   *         @arg @ref LL_AHB4_GRP1_PERIPH_GPIOE
1632:Drivers/STM32N6xx_HAL_Driver/Inc/stm32n6xx_ll_bus.h ****   *         @arg @ref LL_AHB4_GRP1_PERIPH_GPIOF
1633:Drivers/STM32N6xx_HAL_Driver/Inc/stm32n6xx_ll_bus.h ****   *         @arg @ref LL_AHB4_GRP1_PERIPH_GPIOG
1634:Drivers/STM32N6xx_HAL_Driver/Inc/stm32n6xx_ll_bus.h ****   *         @arg @ref LL_AHB4_GRP1_PERIPH_GPIOH
1635:Drivers/STM32N6xx_HAL_Driver/Inc/stm32n6xx_ll_bus.h ****   *         @arg @ref LL_AHB4_GRP1_PERIPH_GPION
1636:Drivers/STM32N6xx_HAL_Driver/Inc/stm32n6xx_ll_bus.h ****   *         @arg @ref LL_AHB4_GRP1_PERIPH_GPIOO
1637:Drivers/STM32N6xx_HAL_Driver/Inc/stm32n6xx_ll_bus.h ****   *         @arg @ref LL_AHB4_GRP1_PERIPH_GPIOP
1638:Drivers/STM32N6xx_HAL_Driver/Inc/stm32n6xx_ll_bus.h ****   *         @arg @ref LL_AHB4_GRP1_PERIPH_GPIOQ
1639:Drivers/STM32N6xx_HAL_Driver/Inc/stm32n6xx_ll_bus.h ****   *         @arg @ref LL_AHB4_GRP1_PERIPH_PWR
1640:Drivers/STM32N6xx_HAL_Driver/Inc/stm32n6xx_ll_bus.h ****   *         @arg @ref LL_AHB4_GRP1_PERIPH_CRC
1641:Drivers/STM32N6xx_HAL_Driver/Inc/stm32n6xx_ll_bus.h ****   * @retval uint32_t
1642:Drivers/STM32N6xx_HAL_Driver/Inc/stm32n6xx_ll_bus.h ****   */
1643:Drivers/STM32N6xx_HAL_Driver/Inc/stm32n6xx_ll_bus.h **** __STATIC_INLINE uint32_t LL_AHB4_GRP1_IsEnabledClockLowPower(uint32_t Periphs)
1644:Drivers/STM32N6xx_HAL_Driver/Inc/stm32n6xx_ll_bus.h **** {
1645:Drivers/STM32N6xx_HAL_Driver/Inc/stm32n6xx_ll_bus.h ****   return ((READ_BIT(RCC->AHB4LPENR, Periphs) == Periphs) ? 1UL : 0UL);
1646:Drivers/STM32N6xx_HAL_Driver/Inc/stm32n6xx_ll_bus.h **** }
1647:Drivers/STM32N6xx_HAL_Driver/Inc/stm32n6xx_ll_bus.h **** 
1648:Drivers/STM32N6xx_HAL_Driver/Inc/stm32n6xx_ll_bus.h **** /**
1649:Drivers/STM32N6xx_HAL_Driver/Inc/stm32n6xx_ll_bus.h ****   * @brief  Disable AHB4 peripherals clock during Low Power mode.
1650:Drivers/STM32N6xx_HAL_Driver/Inc/stm32n6xx_ll_bus.h ****   * @rmtoll AHB4LPENCR    GPIOALPENC     LL_AHB4_GRP1_DisableClockLowPower\n
1651:Drivers/STM32N6xx_HAL_Driver/Inc/stm32n6xx_ll_bus.h ****   *         AHB4LPENCR    GPIOBLPENC     LL_AHB4_GRP1_DisableClockLowPower\n
1652:Drivers/STM32N6xx_HAL_Driver/Inc/stm32n6xx_ll_bus.h ****   *         AHB4LPENCR    GPIOCLPENC     LL_AHB4_GRP1_DisableClockLowPower\n
ARM GAS  /tmp/cciSlyUQ.s 			page 33


1653:Drivers/STM32N6xx_HAL_Driver/Inc/stm32n6xx_ll_bus.h ****   *         AHB4LPENCR    GPIODLPENC     LL_AHB4_GRP1_DisableClockLowPower\n
1654:Drivers/STM32N6xx_HAL_Driver/Inc/stm32n6xx_ll_bus.h ****   *         AHB4LPENCR    GPIOELPENC     LL_AHB4_GRP1_DisableClockLowPower\n
1655:Drivers/STM32N6xx_HAL_Driver/Inc/stm32n6xx_ll_bus.h ****   *         AHB4LPENCR    GPIOFLPENC     LL_AHB4_GRP1_DisableClockLowPower\n
1656:Drivers/STM32N6xx_HAL_Driver/Inc/stm32n6xx_ll_bus.h ****   *         AHB4LPENCR    GPIOGLPENC     LL_AHB4_GRP1_DisableClockLowPower\n
1657:Drivers/STM32N6xx_HAL_Driver/Inc/stm32n6xx_ll_bus.h ****   *         AHB4LPENCR    GPIOHLPENC     LL_AHB4_GRP1_DisableClockLowPower\n
1658:Drivers/STM32N6xx_HAL_Driver/Inc/stm32n6xx_ll_bus.h ****   *         AHB4LPENCR    GPIONLPENC     LL_AHB4_GRP1_DisableClockLowPower\n
1659:Drivers/STM32N6xx_HAL_Driver/Inc/stm32n6xx_ll_bus.h ****   *         AHB4LPENCR    GPIOOLPENC     LL_AHB4_GRP1_DisableClockLowPower\n
1660:Drivers/STM32N6xx_HAL_Driver/Inc/stm32n6xx_ll_bus.h ****   *         AHB4LPENCR    GPIOPLPENC     LL_AHB4_GRP1_DisableClockLowPower\n
1661:Drivers/STM32N6xx_HAL_Driver/Inc/stm32n6xx_ll_bus.h ****   *         AHB4LPENCR    GPIOQLPENC     LL_AHB4_GRP1_DisableClockLowPower\n
1662:Drivers/STM32N6xx_HAL_Driver/Inc/stm32n6xx_ll_bus.h ****   *         AHB4LPENCR    PWRLPENC       LL_AHB4_GRP1_DisableClockLowPower\n
1663:Drivers/STM32N6xx_HAL_Driver/Inc/stm32n6xx_ll_bus.h ****   *         AHB4LPENCR    CRCLPENC       LL_AHB4_GRP1_DisableClockLowPower
1664:Drivers/STM32N6xx_HAL_Driver/Inc/stm32n6xx_ll_bus.h ****   * @param  Periphs This parameter can be a combination of the following values:
1665:Drivers/STM32N6xx_HAL_Driver/Inc/stm32n6xx_ll_bus.h ****   *         @arg @ref LL_AHB4_GRP1_PERIPH_GPIOA
1666:Drivers/STM32N6xx_HAL_Driver/Inc/stm32n6xx_ll_bus.h ****   *         @arg @ref LL_AHB4_GRP1_PERIPH_GPIOB
1667:Drivers/STM32N6xx_HAL_Driver/Inc/stm32n6xx_ll_bus.h ****   *         @arg @ref LL_AHB4_GRP1_PERIPH_GPIOC
1668:Drivers/STM32N6xx_HAL_Driver/Inc/stm32n6xx_ll_bus.h ****   *         @arg @ref LL_AHB4_GRP1_PERIPH_GPIOD
1669:Drivers/STM32N6xx_HAL_Driver/Inc/stm32n6xx_ll_bus.h ****   *         @arg @ref LL_AHB4_GRP1_PERIPH_GPIOE
1670:Drivers/STM32N6xx_HAL_Driver/Inc/stm32n6xx_ll_bus.h ****   *         @arg @ref LL_AHB4_GRP1_PERIPH_GPIOF
1671:Drivers/STM32N6xx_HAL_Driver/Inc/stm32n6xx_ll_bus.h ****   *         @arg @ref LL_AHB4_GRP1_PERIPH_GPIOG
1672:Drivers/STM32N6xx_HAL_Driver/Inc/stm32n6xx_ll_bus.h ****   *         @arg @ref LL_AHB4_GRP1_PERIPH_GPIOH
1673:Drivers/STM32N6xx_HAL_Driver/Inc/stm32n6xx_ll_bus.h ****   *         @arg @ref LL_AHB4_GRP1_PERIPH_GPION
1674:Drivers/STM32N6xx_HAL_Driver/Inc/stm32n6xx_ll_bus.h ****   *         @arg @ref LL_AHB4_GRP1_PERIPH_GPIOO
1675:Drivers/STM32N6xx_HAL_Driver/Inc/stm32n6xx_ll_bus.h ****   *         @arg @ref LL_AHB4_GRP1_PERIPH_GPIOP
1676:Drivers/STM32N6xx_HAL_Driver/Inc/stm32n6xx_ll_bus.h ****   *         @arg @ref LL_AHB4_GRP1_PERIPH_GPIOQ
1677:Drivers/STM32N6xx_HAL_Driver/Inc/stm32n6xx_ll_bus.h ****   *         @arg @ref LL_AHB4_GRP1_PERIPH_PWR
1678:Drivers/STM32N6xx_HAL_Driver/Inc/stm32n6xx_ll_bus.h ****   *         @arg @ref LL_AHB4_GRP1_PERIPH_CRC
1679:Drivers/STM32N6xx_HAL_Driver/Inc/stm32n6xx_ll_bus.h ****   * @retval None
1680:Drivers/STM32N6xx_HAL_Driver/Inc/stm32n6xx_ll_bus.h ****   */
1681:Drivers/STM32N6xx_HAL_Driver/Inc/stm32n6xx_ll_bus.h **** __STATIC_INLINE void LL_AHB4_GRP1_DisableClockLowPower(uint32_t Periphs)
1682:Drivers/STM32N6xx_HAL_Driver/Inc/stm32n6xx_ll_bus.h **** {
1683:Drivers/STM32N6xx_HAL_Driver/Inc/stm32n6xx_ll_bus.h ****   WRITE_REG(RCC->AHB4LPENCR, Periphs);
1684:Drivers/STM32N6xx_HAL_Driver/Inc/stm32n6xx_ll_bus.h **** }
1685:Drivers/STM32N6xx_HAL_Driver/Inc/stm32n6xx_ll_bus.h **** 
1686:Drivers/STM32N6xx_HAL_Driver/Inc/stm32n6xx_ll_bus.h **** /**
1687:Drivers/STM32N6xx_HAL_Driver/Inc/stm32n6xx_ll_bus.h ****   * @}
1688:Drivers/STM32N6xx_HAL_Driver/Inc/stm32n6xx_ll_bus.h ****   */
1689:Drivers/STM32N6xx_HAL_Driver/Inc/stm32n6xx_ll_bus.h **** 
1690:Drivers/STM32N6xx_HAL_Driver/Inc/stm32n6xx_ll_bus.h **** /** @defgroup BUS_LL_EF_AHB5 AHB5
1691:Drivers/STM32N6xx_HAL_Driver/Inc/stm32n6xx_ll_bus.h ****   * @{
1692:Drivers/STM32N6xx_HAL_Driver/Inc/stm32n6xx_ll_bus.h ****   */
1693:Drivers/STM32N6xx_HAL_Driver/Inc/stm32n6xx_ll_bus.h **** 
1694:Drivers/STM32N6xx_HAL_Driver/Inc/stm32n6xx_ll_bus.h **** /**
1695:Drivers/STM32N6xx_HAL_Driver/Inc/stm32n6xx_ll_bus.h ****   * @brief  Enable AHB5 peripherals clock.
1696:Drivers/STM32N6xx_HAL_Driver/Inc/stm32n6xx_ll_bus.h ****   * @rmtoll AHB5ENSR     HPDMA1ENS     LL_AHB5_GRP1_EnableClock\n
1697:Drivers/STM32N6xx_HAL_Driver/Inc/stm32n6xx_ll_bus.h ****   *         AHB5ENSR     DMA2DENS      LL_AHB5_GRP1_EnableClock\n
1698:Drivers/STM32N6xx_HAL_Driver/Inc/stm32n6xx_ll_bus.h ****   *         AHB5ENSR     JPEGENS       LL_AHB5_GRP1_EnableClock\n
1699:Drivers/STM32N6xx_HAL_Driver/Inc/stm32n6xx_ll_bus.h ****   *         AHB5ENSR     FMCENS        LL_AHB5_GRP1_EnableClock\n
1700:Drivers/STM32N6xx_HAL_Driver/Inc/stm32n6xx_ll_bus.h ****   *         AHB5ENSR     XSPI1ENS      LL_AHB5_GRP1_EnableClock\n
1701:Drivers/STM32N6xx_HAL_Driver/Inc/stm32n6xx_ll_bus.h ****   *         AHB5ENSR     PSSIENS       LL_AHB5_GRP1_EnableClock\n
1702:Drivers/STM32N6xx_HAL_Driver/Inc/stm32n6xx_ll_bus.h ****   *         AHB5ENSR     SDMMC2ENS     LL_AHB5_GRP1_EnableClock\n
1703:Drivers/STM32N6xx_HAL_Driver/Inc/stm32n6xx_ll_bus.h ****   *         AHB5ENSR     SDMMC1ENS     LL_AHB5_GRP1_EnableClock\n
1704:Drivers/STM32N6xx_HAL_Driver/Inc/stm32n6xx_ll_bus.h ****   *         AHB5ENSR     XSPI2ENS      LL_AHB5_GRP1_EnableClock\n
1705:Drivers/STM32N6xx_HAL_Driver/Inc/stm32n6xx_ll_bus.h ****   *         AHB5ENSR     XSPIMENS      LL_AHB5_GRP1_EnableClock\n
1706:Drivers/STM32N6xx_HAL_Driver/Inc/stm32n6xx_ll_bus.h ****   *         AHB5ENSR     MCE1ENS       LL_AHB5_GRP1_EnableClock\n (*)
1707:Drivers/STM32N6xx_HAL_Driver/Inc/stm32n6xx_ll_bus.h ****   *         AHB5ENSR     MCE2ENS       LL_AHB5_GRP1_EnableClock\n (*)
1708:Drivers/STM32N6xx_HAL_Driver/Inc/stm32n6xx_ll_bus.h ****   *         AHB5ENSR     MCE3ENS       LL_AHB5_GRP1_EnableClock\n (*)
1709:Drivers/STM32N6xx_HAL_Driver/Inc/stm32n6xx_ll_bus.h ****   *         AHB5ENSR     XSPI3ENS      LL_AHB5_GRP1_EnableClock\n
ARM GAS  /tmp/cciSlyUQ.s 			page 34


1710:Drivers/STM32N6xx_HAL_Driver/Inc/stm32n6xx_ll_bus.h ****   *         AHB5ENSR     MCE4ENS       LL_AHB5_GRP1_EnableClock\n (*)
1711:Drivers/STM32N6xx_HAL_Driver/Inc/stm32n6xx_ll_bus.h ****   *         AHB5ENSR     GFXMMUENS     LL_AHB5_GRP1_EnableClock\n
1712:Drivers/STM32N6xx_HAL_Driver/Inc/stm32n6xx_ll_bus.h ****   *         AHB5ENSR     GPU2DENS      LL_AHB5_GRP1_EnableClock\n
1713:Drivers/STM32N6xx_HAL_Driver/Inc/stm32n6xx_ll_bus.h ****   *         AHB5ENSR     ETH1MACENS    LL_AHB5_GRP1_EnableClock\n
1714:Drivers/STM32N6xx_HAL_Driver/Inc/stm32n6xx_ll_bus.h ****   *         AHB5ENSR     ETH1TXENS     LL_AHB5_GRP1_EnableClock\n
1715:Drivers/STM32N6xx_HAL_Driver/Inc/stm32n6xx_ll_bus.h ****   *         AHB5ENSR     ETH1RXENS     LL_AHB5_GRP1_EnableClock\n
1716:Drivers/STM32N6xx_HAL_Driver/Inc/stm32n6xx_ll_bus.h ****   *         AHB5ENSR     ETH1ENS       LL_AHB5_GRP1_EnableClock\n
1717:Drivers/STM32N6xx_HAL_Driver/Inc/stm32n6xx_ll_bus.h ****   *         AHB5ENSR     OTG1ENS       LL_AHB5_GRP1_EnableClock\n
1718:Drivers/STM32N6xx_HAL_Driver/Inc/stm32n6xx_ll_bus.h ****   *         AHB5ENSR     OTGPHY1ENS    LL_AHB5_GRP1_EnableClock\n
1719:Drivers/STM32N6xx_HAL_Driver/Inc/stm32n6xx_ll_bus.h ****   *         AHB5ENSR     OTGPHY2ENS    LL_AHB5_GRP1_EnableClock\n
1720:Drivers/STM32N6xx_HAL_Driver/Inc/stm32n6xx_ll_bus.h ****   *         AHB5ENSR     OTG2ENS       LL_AHB5_GRP1_EnableClock\n
1721:Drivers/STM32N6xx_HAL_Driver/Inc/stm32n6xx_ll_bus.h ****   *         AHB5ENSR     CACHEAXIENS   LL_AHB5_GRP1_EnableClock\n
1722:Drivers/STM32N6xx_HAL_Driver/Inc/stm32n6xx_ll_bus.h ****   *         AHB5ENSR     NPUENS        LL_AHB5_GRP1_EnableClock
1723:Drivers/STM32N6xx_HAL_Driver/Inc/stm32n6xx_ll_bus.h ****   * @param  Periphs This parameter can be a combination of the following values:
1724:Drivers/STM32N6xx_HAL_Driver/Inc/stm32n6xx_ll_bus.h ****   *         @arg @ref LL_AHB5_GRP1_PERIPH_HPDMA1
1725:Drivers/STM32N6xx_HAL_Driver/Inc/stm32n6xx_ll_bus.h ****   *         @arg @ref LL_AHB5_GRP1_PERIPH_DMA2D
1726:Drivers/STM32N6xx_HAL_Driver/Inc/stm32n6xx_ll_bus.h ****   *         @arg @ref LL_AHB5_GRP1_PERIPH_JPEG
1727:Drivers/STM32N6xx_HAL_Driver/Inc/stm32n6xx_ll_bus.h ****   *         @arg @ref LL_AHB5_GRP1_PERIPH_FMC
1728:Drivers/STM32N6xx_HAL_Driver/Inc/stm32n6xx_ll_bus.h ****   *         @arg @ref LL_AHB5_GRP1_PERIPH_XSPI1
1729:Drivers/STM32N6xx_HAL_Driver/Inc/stm32n6xx_ll_bus.h ****   *         @arg @ref LL_AHB5_GRP1_PERIPH_XSPI2
1730:Drivers/STM32N6xx_HAL_Driver/Inc/stm32n6xx_ll_bus.h ****   *         @arg @ref LL_AHB5_GRP1_PERIPH_XSPI3
1731:Drivers/STM32N6xx_HAL_Driver/Inc/stm32n6xx_ll_bus.h ****   *         @arg @ref LL_AHB5_GRP1_PERIPH_XSPIM
1732:Drivers/STM32N6xx_HAL_Driver/Inc/stm32n6xx_ll_bus.h ****   *         @arg @ref LL_AHB5_GRP1_PERIPH_PSSI
1733:Drivers/STM32N6xx_HAL_Driver/Inc/stm32n6xx_ll_bus.h ****   *         @arg @ref LL_AHB5_GRP1_PERIPH_SDMMC1
1734:Drivers/STM32N6xx_HAL_Driver/Inc/stm32n6xx_ll_bus.h ****   *         @arg @ref LL_AHB5_GRP1_PERIPH_SDMMC2
1735:Drivers/STM32N6xx_HAL_Driver/Inc/stm32n6xx_ll_bus.h ****   *         @arg @ref LL_AHB5_GRP1_PERIPH_MCE1 (*)
1736:Drivers/STM32N6xx_HAL_Driver/Inc/stm32n6xx_ll_bus.h ****   *         @arg @ref LL_AHB5_GRP1_PERIPH_MCE2 (*)
1737:Drivers/STM32N6xx_HAL_Driver/Inc/stm32n6xx_ll_bus.h ****   *         @arg @ref LL_AHB5_GRP1_PERIPH_MCE3 (*)
1738:Drivers/STM32N6xx_HAL_Driver/Inc/stm32n6xx_ll_bus.h ****   *         @arg @ref LL_AHB5_GRP1_PERIPH_MCE4 (*)
1739:Drivers/STM32N6xx_HAL_Driver/Inc/stm32n6xx_ll_bus.h ****   *         @arg @ref LL_AHB5_GRP1_PERIPH_GFXMMU
1740:Drivers/STM32N6xx_HAL_Driver/Inc/stm32n6xx_ll_bus.h ****   *         @arg @ref LL_AHB5_GRP1_PERIPH_GPU2D
1741:Drivers/STM32N6xx_HAL_Driver/Inc/stm32n6xx_ll_bus.h ****   *         @arg @ref LL_AHB5_GRP1_PERIPH_ETH1
1742:Drivers/STM32N6xx_HAL_Driver/Inc/stm32n6xx_ll_bus.h ****   *         @arg @ref LL_AHB5_GRP1_PERIPH_ETH1MAC
1743:Drivers/STM32N6xx_HAL_Driver/Inc/stm32n6xx_ll_bus.h ****   *         @arg @ref LL_AHB5_GRP1_PERIPH_ETH1TX
1744:Drivers/STM32N6xx_HAL_Driver/Inc/stm32n6xx_ll_bus.h ****   *         @arg @ref LL_AHB5_GRP1_PERIPH_ETH1RX
1745:Drivers/STM32N6xx_HAL_Driver/Inc/stm32n6xx_ll_bus.h ****   *         @arg @ref LL_AHB5_GRP1_PERIPH_OTG1
1746:Drivers/STM32N6xx_HAL_Driver/Inc/stm32n6xx_ll_bus.h ****   *         @arg @ref LL_AHB5_GRP1_PERIPH_OTG2
1747:Drivers/STM32N6xx_HAL_Driver/Inc/stm32n6xx_ll_bus.h ****   *         @arg @ref LL_AHB5_GRP1_PERIPH_OTGPHY1
1748:Drivers/STM32N6xx_HAL_Driver/Inc/stm32n6xx_ll_bus.h ****   *         @arg @ref LL_AHB5_GRP1_PERIPH_OTGPHY2
1749:Drivers/STM32N6xx_HAL_Driver/Inc/stm32n6xx_ll_bus.h ****   *         @arg @ref LL_AHB5_GRP1_PERIPH_CACHEAXI
1750:Drivers/STM32N6xx_HAL_Driver/Inc/stm32n6xx_ll_bus.h ****   *         @arg @ref LL_AHB5_GRP1_PERIPH_NPU
1751:Drivers/STM32N6xx_HAL_Driver/Inc/stm32n6xx_ll_bus.h ****   *
1752:Drivers/STM32N6xx_HAL_Driver/Inc/stm32n6xx_ll_bus.h ****   *         (*) value not defined in all devices.
1753:Drivers/STM32N6xx_HAL_Driver/Inc/stm32n6xx_ll_bus.h ****   * @retval None
1754:Drivers/STM32N6xx_HAL_Driver/Inc/stm32n6xx_ll_bus.h ****   */
1755:Drivers/STM32N6xx_HAL_Driver/Inc/stm32n6xx_ll_bus.h **** __STATIC_INLINE void LL_AHB5_GRP1_EnableClock(uint32_t Periphs)
  83              		.loc 2 1755 22 view .LVU11
  84              	.LBB21:
1756:Drivers/STM32N6xx_HAL_Driver/Inc/stm32n6xx_ll_bus.h **** {
1757:Drivers/STM32N6xx_HAL_Driver/Inc/stm32n6xx_ll_bus.h ****   __IO uint32_t tmpreg;
  85              		.loc 2 1757 3 view .LVU12
1758:Drivers/STM32N6xx_HAL_Driver/Inc/stm32n6xx_ll_bus.h ****   WRITE_REG(RCC->AHB5ENSR, Periphs);
  86              		.loc 2 1758 3 view .LVU13
  87 000e 8023     		movs	r3, #128
  88              	.LBE21:
  89              	.LBE20:
  59:App/src/bsp_sdmmc2.c **** 
ARM GAS  /tmp/cciSlyUQ.s 			page 35


  90              		.loc 1 59 24 is_stmt 0 view .LVU14
  91 0010 0227     		movs	r7, #2
  57:App/src/bsp_sdmmc2.c ****     hsd2.Init.HardwareFlowControl = SDMMC_HARDWARE_FLOW_CONTROL_DISABLE;
  92              		.loc 1 57 23 view .LVU15
  93 0012 4FF48045 		mov	r5, #16384
  54:App/src/bsp_sdmmc2.c ****     hsd2.Init.ClockEdge = SDMMC_CLOCK_EDGE_RISING;
  94              		.loc 1 54 19 view .LVU16
  95 0016 164C     		ldr	r4, .L10+4
  96              	.LBB27:
  97              	.LBB22:
  98              		.loc 2 1758 3 view .LVU17
  99 0018 164A     		ldr	r2, .L10+8
 100              	.LBE22:
 101              	.LBE27:
  56:App/src/bsp_sdmmc2.c ****     hsd2.Init.BusWide = SDMMC_BUS_WIDE_4B;
 102              		.loc 1 56 30 view .LVU18
 103 001a C4E90100 		strd	r0, r0, [r4, #4]
  58:App/src/bsp_sdmmc2.c ****     hsd2.Init.ClockDiv = 2;  /* 200MHz / (2+2) = 50MHz */
 104              		.loc 1 58 35 view .LVU19
 105 001e 2061     		str	r0, [r4, #16]
 106              	.LBB28:
 107              	.LBB23:
 108              		.loc 2 1758 3 view .LVU20
 109 0020 C2F8603A 		str	r3, [r2, #2656]
1759:Drivers/STM32N6xx_HAL_Driver/Inc/stm32n6xx_ll_bus.h ****   /* Delay after an RCC peripheral clock enabling */
1760:Drivers/STM32N6xx_HAL_Driver/Inc/stm32n6xx_ll_bus.h ****   tmpreg = READ_REG(RCC->AHB5ENR);
 110              		.loc 2 1760 3 is_stmt 1 view .LVU21
 111              	.LBE23:
 112              	.LBE28:
  57:App/src/bsp_sdmmc2.c ****     hsd2.Init.HardwareFlowControl = SDMMC_HARDWARE_FLOW_CONTROL_DISABLE;
 113              		.loc 1 57 23 is_stmt 0 view .LVU22
 114 0024 E560     		str	r5, [r4, #12]
  59:App/src/bsp_sdmmc2.c **** 
 115              		.loc 1 59 24 view .LVU23
 116 0026 6761     		str	r7, [r4, #20]
 117              	.LBB29:
 118              	.LBB24:
 119              		.loc 2 1760 12 view .LVU24
 120 0028 D2F86072 		ldr	r7, [r2, #608]
 121              	.LBE24:
 122              	.LBE29:
 123              	.LBB30:
 124              	.LBB31:
1761:Drivers/STM32N6xx_HAL_Driver/Inc/stm32n6xx_ll_bus.h ****   (void)tmpreg;
1762:Drivers/STM32N6xx_HAL_Driver/Inc/stm32n6xx_ll_bus.h **** }
1763:Drivers/STM32N6xx_HAL_Driver/Inc/stm32n6xx_ll_bus.h **** 
1764:Drivers/STM32N6xx_HAL_Driver/Inc/stm32n6xx_ll_bus.h **** /**
1765:Drivers/STM32N6xx_HAL_Driver/Inc/stm32n6xx_ll_bus.h ****   * @brief  Check if AHB5 peripheral clock is enabled or not
1766:Drivers/STM32N6xx_HAL_Driver/Inc/stm32n6xx_ll_bus.h ****   * @rmtoll AHB5ENR      HPDMA1EN      LL_AHB5_GRP1_IsEnabledClock\n
1767:Drivers/STM32N6xx_HAL_Driver/Inc/stm32n6xx_ll_bus.h ****   *         AHB5ENR      DMA2DEN       LL_AHB5_GRP1_IsEnabledClock\n
1768:Drivers/STM32N6xx_HAL_Driver/Inc/stm32n6xx_ll_bus.h ****   *         AHB5ENR      JPEGEN        LL_AHB5_GRP1_IsEnabledClock\n
1769:Drivers/STM32N6xx_HAL_Driver/Inc/stm32n6xx_ll_bus.h ****   *         AHB5ENR      FMCEN         LL_AHB5_GRP1_IsEnabledClock\n
1770:Drivers/STM32N6xx_HAL_Driver/Inc/stm32n6xx_ll_bus.h ****   *         AHB5ENR      XSPI1EN       LL_AHB5_GRP1_IsEnabledClock\n
1771:Drivers/STM32N6xx_HAL_Driver/Inc/stm32n6xx_ll_bus.h ****   *         AHB5ENR      PSSIEN        LL_AHB5_GRP1_IsEnabledClock\n
1772:Drivers/STM32N6xx_HAL_Driver/Inc/stm32n6xx_ll_bus.h ****   *         AHB5ENR      SDMMC2EN      LL_AHB5_GRP1_IsEnabledClock\n
1773:Drivers/STM32N6xx_HAL_Driver/Inc/stm32n6xx_ll_bus.h ****   *         AHB5ENR      SDMMC1EN      LL_AHB5_GRP1_IsEnabledClock\n
1774:Drivers/STM32N6xx_HAL_Driver/Inc/stm32n6xx_ll_bus.h ****   *         AHB5ENR      XSPI2EN       LL_AHB5_GRP1_IsEnabledClock\n
ARM GAS  /tmp/cciSlyUQ.s 			page 36


1775:Drivers/STM32N6xx_HAL_Driver/Inc/stm32n6xx_ll_bus.h ****   *         AHB5ENR      XSPIMEN       LL_AHB5_GRP1_IsEnabledClock\n
1776:Drivers/STM32N6xx_HAL_Driver/Inc/stm32n6xx_ll_bus.h ****   *         AHB5ENR      MCE1EN        LL_AHB5_GRP1_IsEnabledClock\n (*)
1777:Drivers/STM32N6xx_HAL_Driver/Inc/stm32n6xx_ll_bus.h ****   *         AHB5ENR      MCE2EN        LL_AHB5_GRP1_IsEnabledClock\n (*)
1778:Drivers/STM32N6xx_HAL_Driver/Inc/stm32n6xx_ll_bus.h ****   *         AHB5ENR      MCE3EN        LL_AHB5_GRP1_IsEnabledClock\n (*)
1779:Drivers/STM32N6xx_HAL_Driver/Inc/stm32n6xx_ll_bus.h ****   *         AHB5ENR      XSPI3EN       LL_AHB5_GRP1_IsEnabledClock\n
1780:Drivers/STM32N6xx_HAL_Driver/Inc/stm32n6xx_ll_bus.h ****   *         AHB5ENR      MCE4EN        LL_AHB5_GRP1_IsEnabledClock\n (*)
1781:Drivers/STM32N6xx_HAL_Driver/Inc/stm32n6xx_ll_bus.h ****   *         AHB5ENR      GFXMMUEN      LL_AHB5_GRP1_IsEnabledClock\n
1782:Drivers/STM32N6xx_HAL_Driver/Inc/stm32n6xx_ll_bus.h ****   *         AHB5ENR      GPU2DEN       LL_AHB5_GRP1_IsEnabledClock\n
1783:Drivers/STM32N6xx_HAL_Driver/Inc/stm32n6xx_ll_bus.h ****   *         AHB5ENR      ETH1MACEN     LL_AHB5_GRP1_IsEnabledClock\n
1784:Drivers/STM32N6xx_HAL_Driver/Inc/stm32n6xx_ll_bus.h ****   *         AHB5ENR      ETH1TXEN      LL_AHB5_GRP1_IsEnabledClock\n
1785:Drivers/STM32N6xx_HAL_Driver/Inc/stm32n6xx_ll_bus.h ****   *         AHB5ENR      ETH1RXEN      LL_AHB5_GRP1_IsEnabledClock\n
1786:Drivers/STM32N6xx_HAL_Driver/Inc/stm32n6xx_ll_bus.h ****   *         AHB5ENR      ETH1EN        LL_AHB5_GRP1_IsEnabledClock\n
1787:Drivers/STM32N6xx_HAL_Driver/Inc/stm32n6xx_ll_bus.h ****   *         AHB5ENR      OTG1EN        LL_AHB5_GRP1_IsEnabledClock\n
1788:Drivers/STM32N6xx_HAL_Driver/Inc/stm32n6xx_ll_bus.h ****   *         AHB5ENR      OTGPHY1EN     LL_AHB5_GRP1_IsEnabledClock\n
1789:Drivers/STM32N6xx_HAL_Driver/Inc/stm32n6xx_ll_bus.h ****   *         AHB5ENR      OTGPHY2EN     LL_AHB5_GRP1_IsEnabledClock\n
1790:Drivers/STM32N6xx_HAL_Driver/Inc/stm32n6xx_ll_bus.h ****   *         AHB5ENR      OTG2EN        LL_AHB5_GRP1_IsEnabledClock\n
1791:Drivers/STM32N6xx_HAL_Driver/Inc/stm32n6xx_ll_bus.h ****   *         AHB5ENR      CACHEAXIEN    LL_AHB5_GRP1_IsEnabledClock\n
1792:Drivers/STM32N6xx_HAL_Driver/Inc/stm32n6xx_ll_bus.h ****   *         AHB5ENR      NPUEN         LL_AHB5_GRP1_IsEnabledClock
1793:Drivers/STM32N6xx_HAL_Driver/Inc/stm32n6xx_ll_bus.h ****   * @param  Periphs This parameter can be a combination of the following values:
1794:Drivers/STM32N6xx_HAL_Driver/Inc/stm32n6xx_ll_bus.h ****   *         @arg @ref LL_AHB5_GRP1_PERIPH_HPDMA1
1795:Drivers/STM32N6xx_HAL_Driver/Inc/stm32n6xx_ll_bus.h ****   *         @arg @ref LL_AHB5_GRP1_PERIPH_DMA2D
1796:Drivers/STM32N6xx_HAL_Driver/Inc/stm32n6xx_ll_bus.h ****   *         @arg @ref LL_AHB5_GRP1_PERIPH_JPEG
1797:Drivers/STM32N6xx_HAL_Driver/Inc/stm32n6xx_ll_bus.h ****   *         @arg @ref LL_AHB5_GRP1_PERIPH_FMC
1798:Drivers/STM32N6xx_HAL_Driver/Inc/stm32n6xx_ll_bus.h ****   *         @arg @ref LL_AHB5_GRP1_PERIPH_XSPI1
1799:Drivers/STM32N6xx_HAL_Driver/Inc/stm32n6xx_ll_bus.h ****   *         @arg @ref LL_AHB5_GRP1_PERIPH_XSPI2
1800:Drivers/STM32N6xx_HAL_Driver/Inc/stm32n6xx_ll_bus.h ****   *         @arg @ref LL_AHB5_GRP1_PERIPH_XSPI3
1801:Drivers/STM32N6xx_HAL_Driver/Inc/stm32n6xx_ll_bus.h ****   *         @arg @ref LL_AHB5_GRP1_PERIPH_XSPIM
1802:Drivers/STM32N6xx_HAL_Driver/Inc/stm32n6xx_ll_bus.h ****   *         @arg @ref LL_AHB5_GRP1_PERIPH_PSSI
1803:Drivers/STM32N6xx_HAL_Driver/Inc/stm32n6xx_ll_bus.h ****   *         @arg @ref LL_AHB5_GRP1_PERIPH_SDMMC1
1804:Drivers/STM32N6xx_HAL_Driver/Inc/stm32n6xx_ll_bus.h ****   *         @arg @ref LL_AHB5_GRP1_PERIPH_SDMMC2
1805:Drivers/STM32N6xx_HAL_Driver/Inc/stm32n6xx_ll_bus.h ****   *         @arg @ref LL_AHB5_GRP1_PERIPH_MCE1 (*)
1806:Drivers/STM32N6xx_HAL_Driver/Inc/stm32n6xx_ll_bus.h ****   *         @arg @ref LL_AHB5_GRP1_PERIPH_MCE2 (*)
1807:Drivers/STM32N6xx_HAL_Driver/Inc/stm32n6xx_ll_bus.h ****   *         @arg @ref LL_AHB5_GRP1_PERIPH_MCE3 (*)
1808:Drivers/STM32N6xx_HAL_Driver/Inc/stm32n6xx_ll_bus.h ****   *         @arg @ref LL_AHB5_GRP1_PERIPH_MCE4 (*)
1809:Drivers/STM32N6xx_HAL_Driver/Inc/stm32n6xx_ll_bus.h ****   *         @arg @ref LL_AHB5_GRP1_PERIPH_GFXMMU
1810:Drivers/STM32N6xx_HAL_Driver/Inc/stm32n6xx_ll_bus.h ****   *         @arg @ref LL_AHB5_GRP1_PERIPH_GPU2D
1811:Drivers/STM32N6xx_HAL_Driver/Inc/stm32n6xx_ll_bus.h ****   *         @arg @ref LL_AHB5_GRP1_PERIPH_ETH1
1812:Drivers/STM32N6xx_HAL_Driver/Inc/stm32n6xx_ll_bus.h ****   *         @arg @ref LL_AHB5_GRP1_PERIPH_ETH1MAC
1813:Drivers/STM32N6xx_HAL_Driver/Inc/stm32n6xx_ll_bus.h ****   *         @arg @ref LL_AHB5_GRP1_PERIPH_ETH1TX
1814:Drivers/STM32N6xx_HAL_Driver/Inc/stm32n6xx_ll_bus.h ****   *         @arg @ref LL_AHB5_GRP1_PERIPH_ETH1RX
1815:Drivers/STM32N6xx_HAL_Driver/Inc/stm32n6xx_ll_bus.h ****   *         @arg @ref LL_AHB5_GRP1_PERIPH_OTG1
1816:Drivers/STM32N6xx_HAL_Driver/Inc/stm32n6xx_ll_bus.h ****   *         @arg @ref LL_AHB5_GRP1_PERIPH_OTG2
1817:Drivers/STM32N6xx_HAL_Driver/Inc/stm32n6xx_ll_bus.h ****   *         @arg @ref LL_AHB5_GRP1_PERIPH_OTGPHY1
1818:Drivers/STM32N6xx_HAL_Driver/Inc/stm32n6xx_ll_bus.h ****   *         @arg @ref LL_AHB5_GRP1_PERIPH_OTGPHY2
1819:Drivers/STM32N6xx_HAL_Driver/Inc/stm32n6xx_ll_bus.h ****   *         @arg @ref LL_AHB5_GRP1_PERIPH_CACHEAXI
1820:Drivers/STM32N6xx_HAL_Driver/Inc/stm32n6xx_ll_bus.h ****   *         @arg @ref LL_AHB5_GRP1_PERIPH_NPU
1821:Drivers/STM32N6xx_HAL_Driver/Inc/stm32n6xx_ll_bus.h ****   *
1822:Drivers/STM32N6xx_HAL_Driver/Inc/stm32n6xx_ll_bus.h ****   *         (*) value not defined in all devices.
1823:Drivers/STM32N6xx_HAL_Driver/Inc/stm32n6xx_ll_bus.h ****   * @retval uint32_t
1824:Drivers/STM32N6xx_HAL_Driver/Inc/stm32n6xx_ll_bus.h ****   */
1825:Drivers/STM32N6xx_HAL_Driver/Inc/stm32n6xx_ll_bus.h **** __STATIC_INLINE uint32_t LL_AHB5_GRP1_IsEnabledClock(uint32_t Periphs)
1826:Drivers/STM32N6xx_HAL_Driver/Inc/stm32n6xx_ll_bus.h **** {
1827:Drivers/STM32N6xx_HAL_Driver/Inc/stm32n6xx_ll_bus.h ****   return ((READ_BIT(RCC->AHB5ENR, Periphs) == Periphs) ? 1UL : 0UL);
1828:Drivers/STM32N6xx_HAL_Driver/Inc/stm32n6xx_ll_bus.h **** }
1829:Drivers/STM32N6xx_HAL_Driver/Inc/stm32n6xx_ll_bus.h **** 
1830:Drivers/STM32N6xx_HAL_Driver/Inc/stm32n6xx_ll_bus.h **** /**
1831:Drivers/STM32N6xx_HAL_Driver/Inc/stm32n6xx_ll_bus.h ****   * @brief  Disable AHB5 peripherals clock.
ARM GAS  /tmp/cciSlyUQ.s 			page 37


1832:Drivers/STM32N6xx_HAL_Driver/Inc/stm32n6xx_ll_bus.h ****   * @rmtoll AHB5ENCR     HPDMA1ENC     LL_AHB5_GRP1_DisableClock\n
1833:Drivers/STM32N6xx_HAL_Driver/Inc/stm32n6xx_ll_bus.h ****   *         AHB5ENCR     DMA2DENC      LL_AHB5_GRP1_DisableClock\n
1834:Drivers/STM32N6xx_HAL_Driver/Inc/stm32n6xx_ll_bus.h ****   *         AHB5ENCR     JPEGENC       LL_AHB5_GRP1_DisableClock\n
1835:Drivers/STM32N6xx_HAL_Driver/Inc/stm32n6xx_ll_bus.h ****   *         AHB5ENCR     FMCENC        LL_AHB5_GRP1_DisableClock\n
1836:Drivers/STM32N6xx_HAL_Driver/Inc/stm32n6xx_ll_bus.h ****   *         AHB5ENCR     XSPI1ENC      LL_AHB5_GRP1_DisableClock\n
1837:Drivers/STM32N6xx_HAL_Driver/Inc/stm32n6xx_ll_bus.h ****   *         AHB5ENCR     PSSIENC       LL_AHB5_GRP1_DisableClock\n
1838:Drivers/STM32N6xx_HAL_Driver/Inc/stm32n6xx_ll_bus.h ****   *         AHB5ENCR     SDMMC2ENC     LL_AHB5_GRP1_DisableClock\n
1839:Drivers/STM32N6xx_HAL_Driver/Inc/stm32n6xx_ll_bus.h ****   *         AHB5ENCR     SDMMC1ENC     LL_AHB5_GRP1_DisableClock\n
1840:Drivers/STM32N6xx_HAL_Driver/Inc/stm32n6xx_ll_bus.h ****   *         AHB5ENCR     XSPI2ENC      LL_AHB5_GRP1_DisableClock\n
1841:Drivers/STM32N6xx_HAL_Driver/Inc/stm32n6xx_ll_bus.h ****   *         AHB5ENCR     XSPIMENC      LL_AHB5_GRP1_DisableClock\n
1842:Drivers/STM32N6xx_HAL_Driver/Inc/stm32n6xx_ll_bus.h ****   *         AHB5ENCR     MCE1ENC       LL_AHB5_GRP1_DisableClock\n (*)
1843:Drivers/STM32N6xx_HAL_Driver/Inc/stm32n6xx_ll_bus.h ****   *         AHB5ENCR     MCE2ENC       LL_AHB5_GRP1_DisableClock\n (*)
1844:Drivers/STM32N6xx_HAL_Driver/Inc/stm32n6xx_ll_bus.h ****   *         AHB5ENCR     MCE3ENC       LL_AHB5_GRP1_DisableClock\n (*)
1845:Drivers/STM32N6xx_HAL_Driver/Inc/stm32n6xx_ll_bus.h ****   *         AHB5ENCR     XSPI3ENC      LL_AHB5_GRP1_DisableClock\n
1846:Drivers/STM32N6xx_HAL_Driver/Inc/stm32n6xx_ll_bus.h ****   *         AHB5ENCR     MCE4ENC       LL_AHB5_GRP1_DisableClock\n (*)
1847:Drivers/STM32N6xx_HAL_Driver/Inc/stm32n6xx_ll_bus.h ****   *         AHB5ENCR     GFXMMUENC     LL_AHB5_GRP1_DisableClock\n
1848:Drivers/STM32N6xx_HAL_Driver/Inc/stm32n6xx_ll_bus.h ****   *         AHB5ENCR     GPU2DENC      LL_AHB5_GRP1_DisableClock\n
1849:Drivers/STM32N6xx_HAL_Driver/Inc/stm32n6xx_ll_bus.h ****   *         AHB5ENCR     ETH1MACENC    LL_AHB5_GRP1_DisableClock\n
1850:Drivers/STM32N6xx_HAL_Driver/Inc/stm32n6xx_ll_bus.h ****   *         AHB5ENCR     ETH1TXENC     LL_AHB5_GRP1_DisableClock\n
1851:Drivers/STM32N6xx_HAL_Driver/Inc/stm32n6xx_ll_bus.h ****   *         AHB5ENCR     ETH1RXENC     LL_AHB5_GRP1_DisableClock\n
1852:Drivers/STM32N6xx_HAL_Driver/Inc/stm32n6xx_ll_bus.h ****   *         AHB5ENCR     ETH1ENC       LL_AHB5_GRP1_DisableClock\n
1853:Drivers/STM32N6xx_HAL_Driver/Inc/stm32n6xx_ll_bus.h ****   *         AHB5ENCR     OTG1ENC       LL_AHB5_GRP1_DisableClock\n
1854:Drivers/STM32N6xx_HAL_Driver/Inc/stm32n6xx_ll_bus.h ****   *         AHB5ENCR     OTGPHY1ENC    LL_AHB5_GRP1_DisableClock\n
1855:Drivers/STM32N6xx_HAL_Driver/Inc/stm32n6xx_ll_bus.h ****   *         AHB5ENCR     OTGPHY2ENC    LL_AHB5_GRP1_DisableClock\n
1856:Drivers/STM32N6xx_HAL_Driver/Inc/stm32n6xx_ll_bus.h ****   *         AHB5ENCR     OTG2ENC       LL_AHB5_GRP1_DisableClock\n
1857:Drivers/STM32N6xx_HAL_Driver/Inc/stm32n6xx_ll_bus.h ****   *         AHB5ENCR     CACHEAXIENC   LL_AHB5_GRP1_DisableClock\n
1858:Drivers/STM32N6xx_HAL_Driver/Inc/stm32n6xx_ll_bus.h ****   *         AHB5ENCR     NPUENC        LL_AHB5_GRP1_DisableClock
1859:Drivers/STM32N6xx_HAL_Driver/Inc/stm32n6xx_ll_bus.h ****   * @param  Periphs This parameter can be a combination of the following values:
1860:Drivers/STM32N6xx_HAL_Driver/Inc/stm32n6xx_ll_bus.h ****   *         @arg @ref LL_AHB5_GRP1_PERIPH_HPDMA1
1861:Drivers/STM32N6xx_HAL_Driver/Inc/stm32n6xx_ll_bus.h ****   *         @arg @ref LL_AHB5_GRP1_PERIPH_DMA2D
1862:Drivers/STM32N6xx_HAL_Driver/Inc/stm32n6xx_ll_bus.h ****   *         @arg @ref LL_AHB5_GRP1_PERIPH_JPEG
1863:Drivers/STM32N6xx_HAL_Driver/Inc/stm32n6xx_ll_bus.h ****   *         @arg @ref LL_AHB5_GRP1_PERIPH_FMC
1864:Drivers/STM32N6xx_HAL_Driver/Inc/stm32n6xx_ll_bus.h ****   *         @arg @ref LL_AHB5_GRP1_PERIPH_XSPI1
1865:Drivers/STM32N6xx_HAL_Driver/Inc/stm32n6xx_ll_bus.h ****   *         @arg @ref LL_AHB5_GRP1_PERIPH_XSPI2
1866:Drivers/STM32N6xx_HAL_Driver/Inc/stm32n6xx_ll_bus.h ****   *         @arg @ref LL_AHB5_GRP1_PERIPH_XSPI3
1867:Drivers/STM32N6xx_HAL_Driver/Inc/stm32n6xx_ll_bus.h ****   *         @arg @ref LL_AHB5_GRP1_PERIPH_XSPIM
1868:Drivers/STM32N6xx_HAL_Driver/Inc/stm32n6xx_ll_bus.h ****   *         @arg @ref LL_AHB5_GRP1_PERIPH_PSSI
1869:Drivers/STM32N6xx_HAL_Driver/Inc/stm32n6xx_ll_bus.h ****   *         @arg @ref LL_AHB5_GRP1_PERIPH_SDMMC1
1870:Drivers/STM32N6xx_HAL_Driver/Inc/stm32n6xx_ll_bus.h ****   *         @arg @ref LL_AHB5_GRP1_PERIPH_SDMMC2
1871:Drivers/STM32N6xx_HAL_Driver/Inc/stm32n6xx_ll_bus.h ****   *         @arg @ref LL_AHB5_GRP1_PERIPH_MCE1 (*)
1872:Drivers/STM32N6xx_HAL_Driver/Inc/stm32n6xx_ll_bus.h ****   *         @arg @ref LL_AHB5_GRP1_PERIPH_MCE2 (*)
1873:Drivers/STM32N6xx_HAL_Driver/Inc/stm32n6xx_ll_bus.h ****   *         @arg @ref LL_AHB5_GRP1_PERIPH_MCE3 (*)
1874:Drivers/STM32N6xx_HAL_Driver/Inc/stm32n6xx_ll_bus.h ****   *         @arg @ref LL_AHB5_GRP1_PERIPH_MCE4 (*)
1875:Drivers/STM32N6xx_HAL_Driver/Inc/stm32n6xx_ll_bus.h ****   *         @arg @ref LL_AHB5_GRP1_PERIPH_GFXMMU
1876:Drivers/STM32N6xx_HAL_Driver/Inc/stm32n6xx_ll_bus.h ****   *         @arg @ref LL_AHB5_GRP1_PERIPH_GPU2D
1877:Drivers/STM32N6xx_HAL_Driver/Inc/stm32n6xx_ll_bus.h ****   *         @arg @ref LL_AHB5_GRP1_PERIPH_ETH1
1878:Drivers/STM32N6xx_HAL_Driver/Inc/stm32n6xx_ll_bus.h ****   *         @arg @ref LL_AHB5_GRP1_PERIPH_ETH1MAC
1879:Drivers/STM32N6xx_HAL_Driver/Inc/stm32n6xx_ll_bus.h ****   *         @arg @ref LL_AHB5_GRP1_PERIPH_ETH1TX
1880:Drivers/STM32N6xx_HAL_Driver/Inc/stm32n6xx_ll_bus.h ****   *         @arg @ref LL_AHB5_GRP1_PERIPH_ETH1RX
1881:Drivers/STM32N6xx_HAL_Driver/Inc/stm32n6xx_ll_bus.h ****   *         @arg @ref LL_AHB5_GRP1_PERIPH_OTG1
1882:Drivers/STM32N6xx_HAL_Driver/Inc/stm32n6xx_ll_bus.h ****   *         @arg @ref LL_AHB5_GRP1_PERIPH_OTG2
1883:Drivers/STM32N6xx_HAL_Driver/Inc/stm32n6xx_ll_bus.h ****   *         @arg @ref LL_AHB5_GRP1_PERIPH_OTGPHY1
1884:Drivers/STM32N6xx_HAL_Driver/Inc/stm32n6xx_ll_bus.h ****   *         @arg @ref LL_AHB5_GRP1_PERIPH_OTGPHY2
1885:Drivers/STM32N6xx_HAL_Driver/Inc/stm32n6xx_ll_bus.h ****   *         @arg @ref LL_AHB5_GRP1_PERIPH_CACHEAXI
1886:Drivers/STM32N6xx_HAL_Driver/Inc/stm32n6xx_ll_bus.h ****   *         @arg @ref LL_AHB5_GRP1_PERIPH_NPU
1887:Drivers/STM32N6xx_HAL_Driver/Inc/stm32n6xx_ll_bus.h ****   *
1888:Drivers/STM32N6xx_HAL_Driver/Inc/stm32n6xx_ll_bus.h ****   *         (*) value not defined in all devices.
ARM GAS  /tmp/cciSlyUQ.s 			page 38


1889:Drivers/STM32N6xx_HAL_Driver/Inc/stm32n6xx_ll_bus.h ****   * @retval None
1890:Drivers/STM32N6xx_HAL_Driver/Inc/stm32n6xx_ll_bus.h ****   */
1891:Drivers/STM32N6xx_HAL_Driver/Inc/stm32n6xx_ll_bus.h **** __STATIC_INLINE void LL_AHB5_GRP1_DisableClock(uint32_t Periphs)
1892:Drivers/STM32N6xx_HAL_Driver/Inc/stm32n6xx_ll_bus.h **** {
1893:Drivers/STM32N6xx_HAL_Driver/Inc/stm32n6xx_ll_bus.h ****   WRITE_REG(RCC->AHB5ENCR, Periphs);
1894:Drivers/STM32N6xx_HAL_Driver/Inc/stm32n6xx_ll_bus.h **** }
1895:Drivers/STM32N6xx_HAL_Driver/Inc/stm32n6xx_ll_bus.h **** 
1896:Drivers/STM32N6xx_HAL_Driver/Inc/stm32n6xx_ll_bus.h **** /**
1897:Drivers/STM32N6xx_HAL_Driver/Inc/stm32n6xx_ll_bus.h ****   * @brief  Force AHB5 peripherals reset.
1898:Drivers/STM32N6xx_HAL_Driver/Inc/stm32n6xx_ll_bus.h ****   * @rmtoll AHB5RSTSR    HPDMA1RSTS      LL_AHB5_GRP1_ForceReset\n
1899:Drivers/STM32N6xx_HAL_Driver/Inc/stm32n6xx_ll_bus.h ****   *         AHB5RSTSR    DMA2DRSTS       LL_AHB5_GRP1_ForceReset\n
1900:Drivers/STM32N6xx_HAL_Driver/Inc/stm32n6xx_ll_bus.h ****   *         AHB5RSTSR    JPEGRSTS        LL_AHB5_GRP1_ForceReset\n
1901:Drivers/STM32N6xx_HAL_Driver/Inc/stm32n6xx_ll_bus.h ****   *         AHB5RSTSR    FMCRSTS         LL_AHB5_GRP1_ForceReset\n
1902:Drivers/STM32N6xx_HAL_Driver/Inc/stm32n6xx_ll_bus.h ****   *         AHB5RSTSR    XSPI1RSTS       LL_AHB5_GRP1_ForceReset\n
1903:Drivers/STM32N6xx_HAL_Driver/Inc/stm32n6xx_ll_bus.h ****   *         AHB5RSTSR    PSSIRSTS        LL_AHB5_GRP1_ForceReset\n
1904:Drivers/STM32N6xx_HAL_Driver/Inc/stm32n6xx_ll_bus.h ****   *         AHB5RSTSR    SDMMC2RSTS      LL_AHB5_GRP1_ForceReset\n
1905:Drivers/STM32N6xx_HAL_Driver/Inc/stm32n6xx_ll_bus.h ****   *         AHB5RSTSR    SDMMC1RSTS      LL_AHB5_GRP1_ForceReset\n
1906:Drivers/STM32N6xx_HAL_Driver/Inc/stm32n6xx_ll_bus.h ****   *         AHB5RSTSR    XSPI2RSTS       LL_AHB5_GRP1_ForceReset\n
1907:Drivers/STM32N6xx_HAL_Driver/Inc/stm32n6xx_ll_bus.h ****   *         AHB5RSTSR    XSPIMRSTS       LL_AHB5_GRP1_ForceReset\n
1908:Drivers/STM32N6xx_HAL_Driver/Inc/stm32n6xx_ll_bus.h ****   *         AHB5RSTSR    XSPI3RSTS       LL_AHB5_GRP1_ForceReset\n
1909:Drivers/STM32N6xx_HAL_Driver/Inc/stm32n6xx_ll_bus.h ****   *         AHB5RSTSR    GFXMMURSTS      LL_AHB5_GRP1_ForceReset\n
1910:Drivers/STM32N6xx_HAL_Driver/Inc/stm32n6xx_ll_bus.h ****   *         AHB5RSTSR    GPU2DRSTS       LL_AHB5_GRP1_ForceReset\n
1911:Drivers/STM32N6xx_HAL_Driver/Inc/stm32n6xx_ll_bus.h ****   *         AHB5RSTSR    OTG1PHYCTLRSTS  LL_AHB5_GRP1_ForceReset\n
1912:Drivers/STM32N6xx_HAL_Driver/Inc/stm32n6xx_ll_bus.h ****   *         AHB5RSTSR    OTG2PHYCTLRSTS  LL_AHB5_GRP1_ForceReset\n
1913:Drivers/STM32N6xx_HAL_Driver/Inc/stm32n6xx_ll_bus.h ****   *         AHB5RSTSR    ETH1RSTS        LL_AHB5_GRP1_ForceReset\n
1914:Drivers/STM32N6xx_HAL_Driver/Inc/stm32n6xx_ll_bus.h ****   *         AHB5RSTSR    OTG1RSTS        LL_AHB5_GRP1_ForceReset\n
1915:Drivers/STM32N6xx_HAL_Driver/Inc/stm32n6xx_ll_bus.h ****   *         AHB5RSTSR    OTGPHY1RSTS     LL_AHB5_GRP1_ForceReset\n
1916:Drivers/STM32N6xx_HAL_Driver/Inc/stm32n6xx_ll_bus.h ****   *         AHB5RSTSR    OTGPHY2RSTS     LL_AHB5_GRP1_ForceReset\n
1917:Drivers/STM32N6xx_HAL_Driver/Inc/stm32n6xx_ll_bus.h ****   *         AHB5RSTSR    OTG2RSTS        LL_AHB5_GRP1_ForceReset\n
1918:Drivers/STM32N6xx_HAL_Driver/Inc/stm32n6xx_ll_bus.h ****   *         AHB5RSTSR    CACHEAXIRSTS    LL_AHB5_GRP1_ForceReset\n
1919:Drivers/STM32N6xx_HAL_Driver/Inc/stm32n6xx_ll_bus.h ****   *         AHB5RSTSR    NPURSTS         LL_AHB5_GRP1_ForceReset
1920:Drivers/STM32N6xx_HAL_Driver/Inc/stm32n6xx_ll_bus.h ****   * @param  Periphs This parameter can be a combination of the following values:
1921:Drivers/STM32N6xx_HAL_Driver/Inc/stm32n6xx_ll_bus.h ****   *         @arg @ref LL_AHB5_GRP1_PERIPH_HPDMA1
1922:Drivers/STM32N6xx_HAL_Driver/Inc/stm32n6xx_ll_bus.h ****   *         @arg @ref LL_AHB5_GRP1_PERIPH_DMA2D
1923:Drivers/STM32N6xx_HAL_Driver/Inc/stm32n6xx_ll_bus.h ****   *         @arg @ref LL_AHB5_GRP1_PERIPH_JPEG
1924:Drivers/STM32N6xx_HAL_Driver/Inc/stm32n6xx_ll_bus.h ****   *         @arg @ref LL_AHB5_GRP1_PERIPH_FMC
1925:Drivers/STM32N6xx_HAL_Driver/Inc/stm32n6xx_ll_bus.h ****   *         @arg @ref LL_AHB5_GRP1_PERIPH_XSPI1
1926:Drivers/STM32N6xx_HAL_Driver/Inc/stm32n6xx_ll_bus.h ****   *         @arg @ref LL_AHB5_GRP1_PERIPH_XSPI2
1927:Drivers/STM32N6xx_HAL_Driver/Inc/stm32n6xx_ll_bus.h ****   *         @arg @ref LL_AHB5_GRP1_PERIPH_XSPI3
1928:Drivers/STM32N6xx_HAL_Driver/Inc/stm32n6xx_ll_bus.h ****   *         @arg @ref LL_AHB5_GRP1_PERIPH_XSPIM
1929:Drivers/STM32N6xx_HAL_Driver/Inc/stm32n6xx_ll_bus.h ****   *         @arg @ref LL_AHB5_GRP1_PERIPH_PSSI
1930:Drivers/STM32N6xx_HAL_Driver/Inc/stm32n6xx_ll_bus.h ****   *         @arg @ref LL_AHB5_GRP1_PERIPH_SDMMC1
1931:Drivers/STM32N6xx_HAL_Driver/Inc/stm32n6xx_ll_bus.h ****   *         @arg @ref LL_AHB5_GRP1_PERIPH_SDMMC2
1932:Drivers/STM32N6xx_HAL_Driver/Inc/stm32n6xx_ll_bus.h ****   *         @arg @ref LL_AHB5_GRP1_PERIPH_GFXMMU
1933:Drivers/STM32N6xx_HAL_Driver/Inc/stm32n6xx_ll_bus.h ****   *         @arg @ref LL_AHB5_GRP1_PERIPH_GPU2D
1934:Drivers/STM32N6xx_HAL_Driver/Inc/stm32n6xx_ll_bus.h ****   *         @arg @ref LL_AHB5_GRP1_PERIPH_OTG1PHYCTL
1935:Drivers/STM32N6xx_HAL_Driver/Inc/stm32n6xx_ll_bus.h ****   *         @arg @ref LL_AHB5_GRP1_PERIPH_OTG2PHYCTL
1936:Drivers/STM32N6xx_HAL_Driver/Inc/stm32n6xx_ll_bus.h ****   *         @arg @ref LL_AHB5_GRP1_PERIPH_ETH1
1937:Drivers/STM32N6xx_HAL_Driver/Inc/stm32n6xx_ll_bus.h ****   *         @arg @ref LL_AHB5_GRP1_PERIPH_OTG1
1938:Drivers/STM32N6xx_HAL_Driver/Inc/stm32n6xx_ll_bus.h ****   *         @arg @ref LL_AHB5_GRP1_PERIPH_OTG2
1939:Drivers/STM32N6xx_HAL_Driver/Inc/stm32n6xx_ll_bus.h ****   *         @arg @ref LL_AHB5_GRP1_PERIPH_OTGPHY1
1940:Drivers/STM32N6xx_HAL_Driver/Inc/stm32n6xx_ll_bus.h ****   *         @arg @ref LL_AHB5_GRP1_PERIPH_OTGPHY2
1941:Drivers/STM32N6xx_HAL_Driver/Inc/stm32n6xx_ll_bus.h ****   *         @arg @ref LL_AHB5_GRP1_PERIPH_CACHEAXI
1942:Drivers/STM32N6xx_HAL_Driver/Inc/stm32n6xx_ll_bus.h ****   *         @arg @ref LL_AHB5_GRP1_PERIPH_NPU
1943:Drivers/STM32N6xx_HAL_Driver/Inc/stm32n6xx_ll_bus.h ****   * @retval None
1944:Drivers/STM32N6xx_HAL_Driver/Inc/stm32n6xx_ll_bus.h ****   */
1945:Drivers/STM32N6xx_HAL_Driver/Inc/stm32n6xx_ll_bus.h **** __STATIC_INLINE void LL_AHB5_GRP1_ForceReset(uint32_t Periphs)
ARM GAS  /tmp/cciSlyUQ.s 			page 39


1946:Drivers/STM32N6xx_HAL_Driver/Inc/stm32n6xx_ll_bus.h **** {
1947:Drivers/STM32N6xx_HAL_Driver/Inc/stm32n6xx_ll_bus.h ****   WRITE_REG(RCC->AHB5RSTSR, Periphs);
1948:Drivers/STM32N6xx_HAL_Driver/Inc/stm32n6xx_ll_bus.h **** }
1949:Drivers/STM32N6xx_HAL_Driver/Inc/stm32n6xx_ll_bus.h **** 
1950:Drivers/STM32N6xx_HAL_Driver/Inc/stm32n6xx_ll_bus.h **** /**
1951:Drivers/STM32N6xx_HAL_Driver/Inc/stm32n6xx_ll_bus.h ****   * @brief  Release AHB5 peripherals reset.
1952:Drivers/STM32N6xx_HAL_Driver/Inc/stm32n6xx_ll_bus.h ****   * @rmtoll AHB5RSTCR    HPDMA1RSTC      LL_AHB5_GRP1_ReleaseReset\n
1953:Drivers/STM32N6xx_HAL_Driver/Inc/stm32n6xx_ll_bus.h ****   *         AHB5RSTCR    DMA2DRSTC       LL_AHB5_GRP1_ReleaseReset\n
1954:Drivers/STM32N6xx_HAL_Driver/Inc/stm32n6xx_ll_bus.h ****   *         AHB5RSTCR    JPEGRSTC        LL_AHB5_GRP1_ReleaseReset\n
1955:Drivers/STM32N6xx_HAL_Driver/Inc/stm32n6xx_ll_bus.h ****   *         AHB5RSTCR    FMCRSTC         LL_AHB5_GRP1_ReleaseReset\n
1956:Drivers/STM32N6xx_HAL_Driver/Inc/stm32n6xx_ll_bus.h ****   *         AHB5RSTCR    XSPI1RSTC       LL_AHB5_GRP1_ReleaseReset\n
1957:Drivers/STM32N6xx_HAL_Driver/Inc/stm32n6xx_ll_bus.h ****   *         AHB5RSTCR    PSSIRSTC        LL_AHB5_GRP1_ReleaseReset\n
1958:Drivers/STM32N6xx_HAL_Driver/Inc/stm32n6xx_ll_bus.h ****   *         AHB5RSTCR    SDMMC2RSTC      LL_AHB5_GRP1_ReleaseReset\n
1959:Drivers/STM32N6xx_HAL_Driver/Inc/stm32n6xx_ll_bus.h ****   *         AHB5RSTCR    SDMMC1RSTC      LL_AHB5_GRP1_ReleaseReset\n
1960:Drivers/STM32N6xx_HAL_Driver/Inc/stm32n6xx_ll_bus.h ****   *         AHB5RSTCR    XSPI2RSTC       LL_AHB5_GRP1_ReleaseReset\n
1961:Drivers/STM32N6xx_HAL_Driver/Inc/stm32n6xx_ll_bus.h ****   *         AHB5RSTCR    XSPIMRSTC       LL_AHB5_GRP1_ReleaseReset\n
1962:Drivers/STM32N6xx_HAL_Driver/Inc/stm32n6xx_ll_bus.h ****   *         AHB5RSTCR    XSPI3RSTC       LL_AHB5_GRP1_ReleaseReset\n
1963:Drivers/STM32N6xx_HAL_Driver/Inc/stm32n6xx_ll_bus.h ****   *         AHB5RSTCR    GFXMMURSTC      LL_AHB5_GRP1_ReleaseReset\n
1964:Drivers/STM32N6xx_HAL_Driver/Inc/stm32n6xx_ll_bus.h ****   *         AHB5RSTCR    GPU2DRSTC       LL_AHB5_GRP1_ReleaseReset\n
1965:Drivers/STM32N6xx_HAL_Driver/Inc/stm32n6xx_ll_bus.h ****   *         AHB5RSTCR    OTG1PHYCTLRSTC  LL_AHB5_GRP1_ReleaseReset\n
1966:Drivers/STM32N6xx_HAL_Driver/Inc/stm32n6xx_ll_bus.h ****   *         AHB5RSTCR    OTG2PHYCTLRSTC  LL_AHB5_GRP1_ReleaseReset\n
1967:Drivers/STM32N6xx_HAL_Driver/Inc/stm32n6xx_ll_bus.h ****   *         AHB5RSTCR    ETH1RSTC        LL_AHB5_GRP1_ReleaseReset\n
1968:Drivers/STM32N6xx_HAL_Driver/Inc/stm32n6xx_ll_bus.h ****   *         AHB5RSTCR    OTG1RSTC        LL_AHB5_GRP1_ReleaseReset\n
1969:Drivers/STM32N6xx_HAL_Driver/Inc/stm32n6xx_ll_bus.h ****   *         AHB5RSTCR    OTGPHY1RSTC     LL_AHB5_GRP1_ReleaseReset\n
1970:Drivers/STM32N6xx_HAL_Driver/Inc/stm32n6xx_ll_bus.h ****   *         AHB5RSTCR    OTGPHY2RSTC     LL_AHB5_GRP1_ReleaseReset\n
1971:Drivers/STM32N6xx_HAL_Driver/Inc/stm32n6xx_ll_bus.h ****   *         AHB5RSTCR    OTG2RSTC        LL_AHB5_GRP1_ReleaseReset\n
1972:Drivers/STM32N6xx_HAL_Driver/Inc/stm32n6xx_ll_bus.h ****   *         AHB5RSTCR    CACHEAXIRSTC    LL_AHB5_GRP1_ReleaseReset\n
1973:Drivers/STM32N6xx_HAL_Driver/Inc/stm32n6xx_ll_bus.h ****   *         AHB5RSTCR    NPURSTS         LL_AHB5_GRP1_ReleaseReset
1974:Drivers/STM32N6xx_HAL_Driver/Inc/stm32n6xx_ll_bus.h ****   * @param  Periphs This parameter can be a combination of the following values:
1975:Drivers/STM32N6xx_HAL_Driver/Inc/stm32n6xx_ll_bus.h ****   *         @arg @ref LL_AHB5_GRP1_PERIPH_HPDMA1
1976:Drivers/STM32N6xx_HAL_Driver/Inc/stm32n6xx_ll_bus.h ****   *         @arg @ref LL_AHB5_GRP1_PERIPH_DMA2D
1977:Drivers/STM32N6xx_HAL_Driver/Inc/stm32n6xx_ll_bus.h ****   *         @arg @ref LL_AHB5_GRP1_PERIPH_JPEG
1978:Drivers/STM32N6xx_HAL_Driver/Inc/stm32n6xx_ll_bus.h ****   *         @arg @ref LL_AHB5_GRP1_PERIPH_FMC
1979:Drivers/STM32N6xx_HAL_Driver/Inc/stm32n6xx_ll_bus.h ****   *         @arg @ref LL_AHB5_GRP1_PERIPH_XSPI1
1980:Drivers/STM32N6xx_HAL_Driver/Inc/stm32n6xx_ll_bus.h ****   *         @arg @ref LL_AHB5_GRP1_PERIPH_XSPI2
1981:Drivers/STM32N6xx_HAL_Driver/Inc/stm32n6xx_ll_bus.h ****   *         @arg @ref LL_AHB5_GRP1_PERIPH_XSPI3
1982:Drivers/STM32N6xx_HAL_Driver/Inc/stm32n6xx_ll_bus.h ****   *         @arg @ref LL_AHB5_GRP1_PERIPH_XSPIM
1983:Drivers/STM32N6xx_HAL_Driver/Inc/stm32n6xx_ll_bus.h ****   *         @arg @ref LL_AHB5_GRP1_PERIPH_PSSI
1984:Drivers/STM32N6xx_HAL_Driver/Inc/stm32n6xx_ll_bus.h ****   *         @arg @ref LL_AHB5_GRP1_PERIPH_SDMMC1
1985:Drivers/STM32N6xx_HAL_Driver/Inc/stm32n6xx_ll_bus.h ****   *         @arg @ref LL_AHB5_GRP1_PERIPH_SDMMC2
1986:Drivers/STM32N6xx_HAL_Driver/Inc/stm32n6xx_ll_bus.h ****   *         @arg @ref LL_AHB5_GRP1_PERIPH_GFXMMU
1987:Drivers/STM32N6xx_HAL_Driver/Inc/stm32n6xx_ll_bus.h ****   *         @arg @ref LL_AHB5_GRP1_PERIPH_GPU2D
1988:Drivers/STM32N6xx_HAL_Driver/Inc/stm32n6xx_ll_bus.h ****   *         @arg @ref LL_AHB5_GRP1_PERIPH_OTG1PHYCTL
1989:Drivers/STM32N6xx_HAL_Driver/Inc/stm32n6xx_ll_bus.h ****   *         @arg @ref LL_AHB5_GRP1_PERIPH_OTG2PHYCTL
1990:Drivers/STM32N6xx_HAL_Driver/Inc/stm32n6xx_ll_bus.h ****   *         @arg @ref LL_AHB5_GRP1_PERIPH_ETH1
1991:Drivers/STM32N6xx_HAL_Driver/Inc/stm32n6xx_ll_bus.h ****   *         @arg @ref LL_AHB5_GRP1_PERIPH_OTG1
1992:Drivers/STM32N6xx_HAL_Driver/Inc/stm32n6xx_ll_bus.h ****   *         @arg @ref LL_AHB5_GRP1_PERIPH_OTG2
1993:Drivers/STM32N6xx_HAL_Driver/Inc/stm32n6xx_ll_bus.h ****   *         @arg @ref LL_AHB5_GRP1_PERIPH_OTGPHY1
1994:Drivers/STM32N6xx_HAL_Driver/Inc/stm32n6xx_ll_bus.h ****   *         @arg @ref LL_AHB5_GRP1_PERIPH_OTGPHY2
1995:Drivers/STM32N6xx_HAL_Driver/Inc/stm32n6xx_ll_bus.h ****   *         @arg @ref LL_AHB5_GRP1_PERIPH_CACHEAXI
1996:Drivers/STM32N6xx_HAL_Driver/Inc/stm32n6xx_ll_bus.h ****   *         @arg @ref LL_AHB5_GRP1_PERIPH_NPU
1997:Drivers/STM32N6xx_HAL_Driver/Inc/stm32n6xx_ll_bus.h ****   * @retval None
1998:Drivers/STM32N6xx_HAL_Driver/Inc/stm32n6xx_ll_bus.h ****   */
1999:Drivers/STM32N6xx_HAL_Driver/Inc/stm32n6xx_ll_bus.h **** __STATIC_INLINE void LL_AHB5_GRP1_ReleaseReset(uint32_t Periphs)
2000:Drivers/STM32N6xx_HAL_Driver/Inc/stm32n6xx_ll_bus.h **** {
2001:Drivers/STM32N6xx_HAL_Driver/Inc/stm32n6xx_ll_bus.h ****   WRITE_REG(RCC->AHB5RSTCR, Periphs);
 125              		.loc 2 2001 3 view .LVU25
ARM GAS  /tmp/cciSlyUQ.s 			page 40


 126 002c 124E     		ldr	r6, .L10+12
 127              	.LBE31:
 128              	.LBE30:
 129              	.LBB33:
 130              	.LBB25:
1760:Drivers/STM32N6xx_HAL_Driver/Inc/stm32n6xx_ll_bus.h ****   (void)tmpreg;
 131              		.loc 2 1760 10 view .LVU26
 132 002e 0197     		str	r7, [sp, #4]
1761:Drivers/STM32N6xx_HAL_Driver/Inc/stm32n6xx_ll_bus.h ****   (void)tmpreg;
 133              		.loc 2 1761 3 is_stmt 1 view .LVU27
 134              	.LBE25:
 135              	.LBE33:
  54:App/src/bsp_sdmmc2.c ****     hsd2.Init.ClockEdge = SDMMC_CLOCK_EDGE_RISING;
 136              		.loc 1 54 19 is_stmt 0 view .LVU28
 137 0030 1249     		ldr	r1, .L10+16
 138              	.LBB34:
 139              	.LBB26:
1761:Drivers/STM32N6xx_HAL_Driver/Inc/stm32n6xx_ll_bus.h ****   (void)tmpreg;
 140              		.loc 2 1761 3 view .LVU29
 141 0032 019F     		ldr	r7, [sp, #4]
 142              	.LVL2:
1761:Drivers/STM32N6xx_HAL_Driver/Inc/stm32n6xx_ll_bus.h ****   (void)tmpreg;
 143              		.loc 2 1761 3 view .LVU30
 144              	.LBE26:
 145              	.LBE34:
  50:App/src/bsp_sdmmc2.c ****     __HAL_RCC_SDMMC2_RELEASE_RESET();
 146              		.loc 1 50 5 is_stmt 1 view .LVU31
 147              	.LBB35:
 148              	.LBI35:
1945:Drivers/STM32N6xx_HAL_Driver/Inc/stm32n6xx_ll_bus.h **** {
 149              		.loc 2 1945 22 view .LVU32
 150              	.LBB36:
1947:Drivers/STM32N6xx_HAL_Driver/Inc/stm32n6xx_ll_bus.h **** }
 151              		.loc 2 1947 3 view .LVU33
 152              	.LBE36:
 153              	.LBE35:
  61:App/src/bsp_sdmmc2.c ****     if (status != HAL_OK) {
 154              		.loc 1 61 14 is_stmt 0 view .LVU34
 155 0034 2046     		mov	r0, r4
 156              	.LBB38:
 157              	.LBB37:
1947:Drivers/STM32N6xx_HAL_Driver/Inc/stm32n6xx_ll_bus.h **** }
 158              		.loc 2 1947 3 view .LVU35
 159 0036 C2F8203A 		str	r3, [r2, #2592]
 160              	.LVL3:
1947:Drivers/STM32N6xx_HAL_Driver/Inc/stm32n6xx_ll_bus.h **** }
 161              		.loc 2 1947 3 view .LVU36
 162              	.LBE37:
 163              	.LBE38:
  51:App/src/bsp_sdmmc2.c **** 
 164              		.loc 1 51 5 is_stmt 1 view .LVU37
 165              	.LBB39:
 166              	.LBI30:
1999:Drivers/STM32N6xx_HAL_Driver/Inc/stm32n6xx_ll_bus.h **** {
 167              		.loc 2 1999 22 view .LVU38
 168              	.LBB32:
 169              		.loc 2 2001 3 view .LVU39
ARM GAS  /tmp/cciSlyUQ.s 			page 41


 170 003a C6F82032 		str	r3, [r6, #544]
 171              	.LVL4:
 172              		.loc 2 2001 3 is_stmt 0 view .LVU40
 173              	.LBE32:
 174              	.LBE39:
  54:App/src/bsp_sdmmc2.c ****     hsd2.Init.ClockEdge = SDMMC_CLOCK_EDGE_RISING;
 175              		.loc 1 54 5 is_stmt 1 view .LVU41
  54:App/src/bsp_sdmmc2.c ****     hsd2.Init.ClockEdge = SDMMC_CLOCK_EDGE_RISING;
 176              		.loc 1 54 19 is_stmt 0 view .LVU42
 177 003e 2160     		str	r1, [r4]
  55:App/src/bsp_sdmmc2.c ****     hsd2.Init.ClockPowerSave = SDMMC_CLOCK_POWER_SAVE_DISABLE;
 178              		.loc 1 55 5 is_stmt 1 view .LVU43
  56:App/src/bsp_sdmmc2.c ****     hsd2.Init.BusWide = SDMMC_BUS_WIDE_4B;
 179              		.loc 1 56 5 view .LVU44
  57:App/src/bsp_sdmmc2.c ****     hsd2.Init.HardwareFlowControl = SDMMC_HARDWARE_FLOW_CONTROL_DISABLE;
 180              		.loc 1 57 5 view .LVU45
  58:App/src/bsp_sdmmc2.c ****     hsd2.Init.ClockDiv = 2;  /* 200MHz / (2+2) = 50MHz */
 181              		.loc 1 58 5 view .LVU46
  59:App/src/bsp_sdmmc2.c **** 
 182              		.loc 1 59 5 view .LVU47
  61:App/src/bsp_sdmmc2.c ****     if (status != HAL_OK) {
 183              		.loc 1 61 5 view .LVU48
  61:App/src/bsp_sdmmc2.c ****     if (status != HAL_OK) {
 184              		.loc 1 61 14 is_stmt 0 view .LVU49
 185 0040 FFF7FEFF 		bl	HAL_SD_Init
 186              	.LVL5:
  62:App/src/bsp_sdmmc2.c ****         LX_ERR_PRINT("SDMMC2 HAL_SD_Init failed: %d", status);
 187              		.loc 1 62 5 is_stmt 1 view .LVU50
  62:App/src/bsp_sdmmc2.c ****         LX_ERR_PRINT("SDMMC2 HAL_SD_Init failed: %d", status);
 188              		.loc 1 62 8 is_stmt 0 view .LVU51
 189 0044 70B9     		cbnz	r0, .L7
  68:App/src/bsp_sdmmc2.c ****     if (status != HAL_OK) {
 190              		.loc 1 68 5 is_stmt 1 view .LVU52
  68:App/src/bsp_sdmmc2.c ****     if (status != HAL_OK) {
 191              		.loc 1 68 14 is_stmt 0 view .LVU53
 192 0046 2946     		mov	r1, r5
 193 0048 2046     		mov	r0, r4
 194              	.LVL6:
  68:App/src/bsp_sdmmc2.c ****     if (status != HAL_OK) {
 195              		.loc 1 68 14 view .LVU54
 196 004a FFF7FEFF 		bl	HAL_SD_ConfigWideBusOperation
 197              	.LVL7:
  69:App/src/bsp_sdmmc2.c ****         LX_ERR_PRINT("SDMMC2 wide bus config failed: %d", status);
 198              		.loc 1 69 5 is_stmt 1 view .LVU55
  69:App/src/bsp_sdmmc2.c ****         LX_ERR_PRINT("SDMMC2 wide bus config failed: %d", status);
 199              		.loc 1 69 8 is_stmt 0 view .LVU56
 200 004e 30B9     		cbnz	r0, .L9
  75:App/src/bsp_sdmmc2.c ****     s_sdmmc2_card_present = 1;
 201              		.loc 1 75 5 is_stmt 1 view .LVU57
  75:App/src/bsp_sdmmc2.c ****     s_sdmmc2_card_present = 1;
 202              		.loc 1 75 26 is_stmt 0 view .LVU58
 203 0050 0123     		movs	r3, #1
 204 0052 0B49     		ldr	r1, .L10+20
  76:App/src/bsp_sdmmc2.c **** 
 205              		.loc 1 76 27 view .LVU59
 206 0054 0B4A     		ldr	r2, .L10+24
  75:App/src/bsp_sdmmc2.c ****     s_sdmmc2_card_present = 1;
ARM GAS  /tmp/cciSlyUQ.s 			page 42


 207              		.loc 1 75 26 view .LVU60
 208 0056 0B70     		strb	r3, [r1]
  76:App/src/bsp_sdmmc2.c **** 
 209              		.loc 1 76 5 is_stmt 1 view .LVU61
  76:App/src/bsp_sdmmc2.c **** 
 210              		.loc 1 76 27 is_stmt 0 view .LVU62
 211 0058 1370     		strb	r3, [r2]
  78:App/src/bsp_sdmmc2.c ****     return LINGXI_OK;
 212              		.loc 1 78 5 is_stmt 1 view .LVU63
  79:App/src/bsp_sdmmc2.c **** }
 213              		.loc 1 79 5 view .LVU64
 214              	.LVL8:
 215              	.L3:
  80:App/src/bsp_sdmmc2.c **** 
 216              		.loc 1 80 1 is_stmt 0 view .LVU65
 217 005a 03B0     		add	sp, sp, #12
 218              		.cfi_remember_state
 219              		.cfi_def_cfa_offset 20
 220              		@ sp needed
 221 005c F0BD     		pop	{r4, r5, r6, r7, pc}
 222              	.LVL9:
 223              	.L9:
 224              		.cfi_restore_state
  70:App/src/bsp_sdmmc2.c ****         HAL_SD_DeInit(&hsd2);
 225              		.loc 1 70 9 is_stmt 1 view .LVU66
  71:App/src/bsp_sdmmc2.c ****         return LINGXI_ERR_IO;
 226              		.loc 1 71 9 view .LVU67
 227 005e 2046     		mov	r0, r4
 228              	.LVL10:
  71:App/src/bsp_sdmmc2.c ****         return LINGXI_ERR_IO;
 229              		.loc 1 71 9 is_stmt 0 view .LVU68
 230 0060 FFF7FEFF 		bl	HAL_SD_DeInit
 231              	.LVL11:
 232              	.L7:
  72:App/src/bsp_sdmmc2.c ****     }
 233              		.loc 1 72 9 is_stmt 1 view .LVU69
  72:App/src/bsp_sdmmc2.c ****     }
 234              		.loc 1 72 16 is_stmt 0 view .LVU70
 235 0064 6FF00700 		mvn	r0, #7
 236 0068 F7E7     		b	.L3
 237              	.L11:
 238 006a 00BF     		.align	2
 239              	.L10:
 240 006c 000C0246 		.word	1174539264
 241 0070 00000000 		.word	.LANCHOR0
 242 0074 00800246 		.word	1174568960
 243 0078 00900246 		.word	1174573056
 244 007c 00680248 		.word	1208117248
 245 0080 00000000 		.word	.LANCHOR1
 246 0084 00000000 		.word	.LANCHOR2
 247              		.cfi_endproc
 248              	.LFE811:
 250              		.section	.text.bsp_sdmmc2_is_present,"ax",%progbits
 251              		.align	1
 252              		.p2align 2,,3
 253              		.global	bsp_sdmmc2_is_present
 254              		.syntax unified
ARM GAS  /tmp/cciSlyUQ.s 			page 43


 255              		.thumb
 256              		.thumb_func
 257              		.fpu fpv5-d16
 259              	bsp_sdmmc2_is_present:
 260              	.LFB812:
  86:App/src/bsp_sdmmc2.c ****     return (HAL_GPIO_ReadPin(SDMMC2_CD_GPIO_PORT, SDMMC2_CD_PIN) == GPIO_PIN_RESET);
 261              		.loc 1 86 1 is_stmt 1 view -0
 262              		.cfi_startproc
 263              		@ args = 0, pretend = 0, frame = 0
 264              		@ frame_needed = 0, uses_anonymous_args = 0
 265              		.loc 1 87 5 view .LVU72
 266              		.loc 1 87 13 is_stmt 0 view .LVU73
 267 0000 0821     		movs	r1, #8
  86:App/src/bsp_sdmmc2.c ****     return (HAL_GPIO_ReadPin(SDMMC2_CD_GPIO_PORT, SDMMC2_CD_PIN) == GPIO_PIN_RESET);
 268              		.loc 1 86 1 view .LVU74
 269 0002 08B5     		push	{r3, lr}
 270              		.cfi_def_cfa_offset 8
 271              		.cfi_offset 3, -8
 272              		.cfi_offset 14, -4
 273              		.loc 1 87 13 view .LVU75
 274 0004 0348     		ldr	r0, .L14
 275 0006 FFF7FEFF 		bl	HAL_GPIO_ReadPin
 276              	.LVL12:
  88:App/src/bsp_sdmmc2.c **** }
 277              		.loc 1 88 1 view .LVU76
 278 000a B0FA80F0 		clz	r0, r0
 279 000e 4009     		lsrs	r0, r0, #5
 280 0010 08BD     		pop	{r3, pc}
 281              	.L15:
 282 0012 00BF     		.align	2
 283              	.L14:
 284 0014 000C0246 		.word	1174539264
 285              		.cfi_endproc
 286              	.LFE812:
 288              		.section	.text.bsp_sdmmc2_read_blocks,"ax",%progbits
 289              		.align	1
 290              		.p2align 2,,3
 291              		.global	bsp_sdmmc2_read_blocks
 292              		.syntax unified
 293              		.thumb
 294              		.thumb_func
 295              		.fpu fpv5-d16
 297              	bsp_sdmmc2_read_blocks:
 298              	.LVL13:
 299              	.LFB813:
  89:App/src/bsp_sdmmc2.c **** 
  90:App/src/bsp_sdmmc2.c **** /**
  91:App/src/bsp_sdmmc2.c ****  * @brief  读取块
  92:App/src/bsp_sdmmc2.c ****  */
  93:App/src/bsp_sdmmc2.c **** lingxi_err_t bsp_sdmmc2_read_blocks(uint32_t block_addr, uint8_t *buf, uint32_t count)
  94:App/src/bsp_sdmmc2.c **** {
 300              		.loc 1 94 1 is_stmt 1 view -0
 301              		.cfi_startproc
 302              		@ args = 0, pretend = 0, frame = 0
 303              		@ frame_needed = 0, uses_anonymous_args = 0
  95:App/src/bsp_sdmmc2.c ****     LX_RETURN_IF_NULL(buf);
 304              		.loc 1 95 5 view .LVU78
ARM GAS  /tmp/cciSlyUQ.s 			page 44


 305              		.loc 1 95 5 view .LVU79
 306 0000 29B3     		cbz	r1, .L21
 307              		.loc 1 95 5 discriminator 2 view .LVU80
  96:App/src/bsp_sdmmc2.c **** 
  97:App/src/bsp_sdmmc2.c ****     if (!s_sdmmc2_initialized) {
 308              		.loc 1 97 5 discriminator 2 view .LVU81
 309              		.loc 1 97 9 is_stmt 0 discriminator 2 view .LVU82
 310 0002 144B     		ldr	r3, .L28
 311 0004 1B78     		ldrb	r3, [r3]	@ zero_extendqisi2
 312              		.loc 1 97 8 discriminator 2 view .LVU83
 313 0006 FBB1     		cbz	r3, .L22
  98:App/src/bsp_sdmmc2.c ****         return LINGXI_ERR_NOT_INIT;
  99:App/src/bsp_sdmmc2.c ****     }
 100:App/src/bsp_sdmmc2.c **** 
 101:App/src/bsp_sdmmc2.c ****     if (!bsp_sdmmc2_is_present()) {
 314              		.loc 1 101 5 is_stmt 1 view .LVU84
 315              	.LBB40:
 316              	.LBI40:
  85:App/src/bsp_sdmmc2.c **** {
 317              		.loc 1 85 6 view .LVU85
 318              	.LBB41:
  87:App/src/bsp_sdmmc2.c **** }
 319              		.loc 1 87 5 view .LVU86
 320              	.LBE41:
 321              	.LBE40:
  94:App/src/bsp_sdmmc2.c ****     LX_RETURN_IF_NULL(buf);
 322              		.loc 1 94 1 is_stmt 0 view .LVU87
 323 0008 F0B5     		push	{r4, r5, r6, r7, lr}
 324              		.cfi_def_cfa_offset 20
 325              		.cfi_offset 4, -20
 326              		.cfi_offset 5, -16
 327              		.cfi_offset 6, -12
 328              		.cfi_offset 7, -8
 329              		.cfi_offset 14, -4
 330 000a 0546     		mov	r5, r0
 331 000c 0C46     		mov	r4, r1
 332 000e 83B0     		sub	sp, sp, #12
 333              		.cfi_def_cfa_offset 32
 334              	.LBB43:
 335              	.LBB42:
  87:App/src/bsp_sdmmc2.c **** }
 336              		.loc 1 87 13 view .LVU88
 337 0010 0821     		movs	r1, #8
 338              	.LVL14:
  87:App/src/bsp_sdmmc2.c **** }
 339              		.loc 1 87 13 view .LVU89
 340 0012 1148     		ldr	r0, .L28+4
 341              	.LVL15:
  87:App/src/bsp_sdmmc2.c **** }
 342              		.loc 1 87 13 view .LVU90
 343 0014 1646     		mov	r6, r2
 344 0016 FFF7FEFF 		bl	HAL_GPIO_ReadPin
 345              	.LVL16:
  87:App/src/bsp_sdmmc2.c **** }
 346              		.loc 1 87 13 view .LVU91
 347              	.LBE42:
 348              	.LBE43:
ARM GAS  /tmp/cciSlyUQ.s 			page 45


 349              		.loc 1 101 8 view .LVU92
 350 001a 90B9     		cbnz	r0, .L19
 102:App/src/bsp_sdmmc2.c ****         return LINGXI_ERR_IO;
 103:App/src/bsp_sdmmc2.c ****     }
 104:App/src/bsp_sdmmc2.c **** 
 105:App/src/bsp_sdmmc2.c ****     HAL_StatusTypeDef status = HAL_SD_ReadBlocks(&hsd2, buf, block_addr, count, SDMMC2_TIMEOUT_MS);
 351              		.loc 1 105 5 is_stmt 1 view .LVU93
 352              		.loc 1 105 32 is_stmt 0 view .LVU94
 353 001c 4FF47A77 		mov	r7, #1000
 354 0020 3346     		mov	r3, r6
 355 0022 2A46     		mov	r2, r5
 356 0024 2146     		mov	r1, r4
 357 0026 0D48     		ldr	r0, .L28+8
 358 0028 0097     		str	r7, [sp]
 359 002a FFF7FEFF 		bl	HAL_SD_ReadBlocks
 360              	.LVL17:
 106:App/src/bsp_sdmmc2.c ****     if (status != HAL_OK) {
 361              		.loc 1 106 5 is_stmt 1 view .LVU95
 362              		.loc 1 106 8 is_stmt 0 view .LVU96
 363 002e 40B9     		cbnz	r0, .L19
 107:App/src/bsp_sdmmc2.c ****         LX_ERR_PRINT("SDMMC2 read failed: %d", status);
 108:App/src/bsp_sdmmc2.c ****         return LINGXI_ERR_IO;
 109:App/src/bsp_sdmmc2.c ****     }
 110:App/src/bsp_sdmmc2.c **** 
 111:App/src/bsp_sdmmc2.c ****     /* 等待传输完成 */
 112:App/src/bsp_sdmmc2.c ****     while (HAL_SD_GetCardState(&hsd2) != HAL_SD_CARD_TRANSFER);
 364              		.loc 1 112 12 view .LVU97
 365 0030 0A4C     		ldr	r4, .L28+8
 366              	.LVL18:
 367              	.L20:
 368              		.loc 1 112 63 is_stmt 1 discriminator 1 view .LVU98
 369              		.loc 1 112 11 discriminator 1 view .LVU99
 370              		.loc 1 112 12 is_stmt 0 discriminator 1 view .LVU100
 371 0032 2046     		mov	r0, r4
 372 0034 FFF7FEFF 		bl	HAL_SD_GetCardState
 373              	.LVL19:
 374              		.loc 1 112 11 discriminator 1 view .LVU101
 375 0038 0428     		cmp	r0, #4
 376 003a FAD1     		bne	.L20
 113:App/src/bsp_sdmmc2.c **** 
 114:App/src/bsp_sdmmc2.c ****     return LINGXI_OK;
 377              		.loc 1 114 12 view .LVU102
 378 003c 0020     		movs	r0, #0
 379              	.L17:
 115:App/src/bsp_sdmmc2.c **** }
 380              		.loc 1 115 1 view .LVU103
 381 003e 03B0     		add	sp, sp, #12
 382              		.cfi_remember_state
 383              		.cfi_def_cfa_offset 20
 384              		@ sp needed
 385 0040 F0BD     		pop	{r4, r5, r6, r7, pc}
 386              	.LVL20:
 387              	.L19:
 388              		.cfi_restore_state
 102:App/src/bsp_sdmmc2.c ****     }
 389              		.loc 1 102 16 view .LVU104
 390 0042 6FF00700 		mvn	r0, #7
ARM GAS  /tmp/cciSlyUQ.s 			page 46


 391 0046 FAE7     		b	.L17
 392              	.LVL21:
 393              	.L22:
 394              		.cfi_def_cfa_offset 0
 395              		.cfi_restore 4
 396              		.cfi_restore 5
 397              		.cfi_restore 6
 398              		.cfi_restore 7
 399              		.cfi_restore 14
  98:App/src/bsp_sdmmc2.c ****     }
 400              		.loc 1 98 16 view .LVU105
 401 0048 6FF00500 		mvn	r0, #5
 402              	.LVL22:
 403              		.loc 1 115 1 view .LVU106
 404 004c 7047     		bx	lr
 405              	.LVL23:
 406              	.L21:
  95:App/src/bsp_sdmmc2.c **** 
 407              		.loc 1 95 5 view .LVU107
 408 004e 6FF00200 		mvn	r0, #2
 409              	.LVL24:
  95:App/src/bsp_sdmmc2.c **** 
 410              		.loc 1 95 5 view .LVU108
 411 0052 7047     		bx	lr
 412              	.L29:
 413              		.align	2
 414              	.L28:
 415 0054 00000000 		.word	.LANCHOR1
 416 0058 000C0246 		.word	1174539264
 417 005c 00000000 		.word	.LANCHOR0
 418              		.cfi_endproc
 419              	.LFE813:
 421              		.section	.text.bsp_sdmmc2_write_blocks,"ax",%progbits
 422              		.align	1
 423              		.p2align 2,,3
 424              		.global	bsp_sdmmc2_write_blocks
 425              		.syntax unified
 426              		.thumb
 427              		.thumb_func
 428              		.fpu fpv5-d16
 430              	bsp_sdmmc2_write_blocks:
 431              	.LVL25:
 432              	.LFB814:
 116:App/src/bsp_sdmmc2.c **** 
 117:App/src/bsp_sdmmc2.c **** /**
 118:App/src/bsp_sdmmc2.c ****  * @brief  写入块
 119:App/src/bsp_sdmmc2.c ****  */
 120:App/src/bsp_sdmmc2.c **** lingxi_err_t bsp_sdmmc2_write_blocks(uint32_t block_addr, const uint8_t *buf, uint32_t count)
 121:App/src/bsp_sdmmc2.c **** {
 433              		.loc 1 121 1 is_stmt 1 view -0
 434              		.cfi_startproc
 435              		@ args = 0, pretend = 0, frame = 0
 436              		@ frame_needed = 0, uses_anonymous_args = 0
 122:App/src/bsp_sdmmc2.c ****     LX_RETURN_IF_NULL(buf);
 437              		.loc 1 122 5 view .LVU110
 438              		.loc 1 122 5 view .LVU111
 439 0000 29B3     		cbz	r1, .L35
ARM GAS  /tmp/cciSlyUQ.s 			page 47


 440              		.loc 1 122 5 discriminator 2 view .LVU112
 123:App/src/bsp_sdmmc2.c **** 
 124:App/src/bsp_sdmmc2.c ****     if (!s_sdmmc2_initialized) {
 441              		.loc 1 124 5 discriminator 2 view .LVU113
 442              		.loc 1 124 9 is_stmt 0 discriminator 2 view .LVU114
 443 0002 144B     		ldr	r3, .L42
 444 0004 1B78     		ldrb	r3, [r3]	@ zero_extendqisi2
 445              		.loc 1 124 8 discriminator 2 view .LVU115
 446 0006 FBB1     		cbz	r3, .L36
 125:App/src/bsp_sdmmc2.c ****         return LINGXI_ERR_NOT_INIT;
 126:App/src/bsp_sdmmc2.c ****     }
 127:App/src/bsp_sdmmc2.c **** 
 128:App/src/bsp_sdmmc2.c ****     if (!bsp_sdmmc2_is_present()) {
 447              		.loc 1 128 5 is_stmt 1 view .LVU116
 448              	.LBB44:
 449              	.LBI44:
  85:App/src/bsp_sdmmc2.c **** {
 450              		.loc 1 85 6 view .LVU117
 451              	.LBB45:
  87:App/src/bsp_sdmmc2.c **** }
 452              		.loc 1 87 5 view .LVU118
 453              	.LBE45:
 454              	.LBE44:
 121:App/src/bsp_sdmmc2.c ****     LX_RETURN_IF_NULL(buf);
 455              		.loc 1 121 1 is_stmt 0 view .LVU119
 456 0008 F0B5     		push	{r4, r5, r6, r7, lr}
 457              		.cfi_def_cfa_offset 20
 458              		.cfi_offset 4, -20
 459              		.cfi_offset 5, -16
 460              		.cfi_offset 6, -12
 461              		.cfi_offset 7, -8
 462              		.cfi_offset 14, -4
 463 000a 0546     		mov	r5, r0
 464 000c 0C46     		mov	r4, r1
 465 000e 83B0     		sub	sp, sp, #12
 466              		.cfi_def_cfa_offset 32
 467              	.LBB47:
 468              	.LBB46:
  87:App/src/bsp_sdmmc2.c **** }
 469              		.loc 1 87 13 view .LVU120
 470 0010 0821     		movs	r1, #8
 471              	.LVL26:
  87:App/src/bsp_sdmmc2.c **** }
 472              		.loc 1 87 13 view .LVU121
 473 0012 1148     		ldr	r0, .L42+4
 474              	.LVL27:
  87:App/src/bsp_sdmmc2.c **** }
 475              		.loc 1 87 13 view .LVU122
 476 0014 1646     		mov	r6, r2
 477 0016 FFF7FEFF 		bl	HAL_GPIO_ReadPin
 478              	.LVL28:
  87:App/src/bsp_sdmmc2.c **** }
 479              		.loc 1 87 13 view .LVU123
 480              	.LBE46:
 481              	.LBE47:
 482              		.loc 1 128 8 view .LVU124
 483 001a 90B9     		cbnz	r0, .L33
ARM GAS  /tmp/cciSlyUQ.s 			page 48


 129:App/src/bsp_sdmmc2.c ****         return LINGXI_ERR_IO;
 130:App/src/bsp_sdmmc2.c ****     }
 131:App/src/bsp_sdmmc2.c **** 
 132:App/src/bsp_sdmmc2.c ****     HAL_StatusTypeDef status = HAL_SD_WriteBlocks(&hsd2, (uint8_t *)buf, block_addr, count, SDMMC2_
 484              		.loc 1 132 5 is_stmt 1 view .LVU125
 485              		.loc 1 132 32 is_stmt 0 view .LVU126
 486 001c 4FF47A77 		mov	r7, #1000
 487 0020 3346     		mov	r3, r6
 488 0022 2A46     		mov	r2, r5
 489 0024 2146     		mov	r1, r4
 490 0026 0D48     		ldr	r0, .L42+8
 491 0028 0097     		str	r7, [sp]
 492 002a FFF7FEFF 		bl	HAL_SD_WriteBlocks
 493              	.LVL29:
 133:App/src/bsp_sdmmc2.c ****     if (status != HAL_OK) {
 494              		.loc 1 133 5 is_stmt 1 view .LVU127
 495              		.loc 1 133 8 is_stmt 0 view .LVU128
 496 002e 40B9     		cbnz	r0, .L33
 134:App/src/bsp_sdmmc2.c ****         LX_ERR_PRINT("SDMMC2 write failed: %d", status);
 135:App/src/bsp_sdmmc2.c ****         return LINGXI_ERR_IO;
 136:App/src/bsp_sdmmc2.c ****     }
 137:App/src/bsp_sdmmc2.c **** 
 138:App/src/bsp_sdmmc2.c ****     /* 等待传输完成 */
 139:App/src/bsp_sdmmc2.c ****     while (HAL_SD_GetCardState(&hsd2) != HAL_SD_CARD_TRANSFER);
 497              		.loc 1 139 12 view .LVU129
 498 0030 0A4C     		ldr	r4, .L42+8
 499              	.LVL30:
 500              	.L34:
 501              		.loc 1 139 63 is_stmt 1 discriminator 1 view .LVU130
 502              		.loc 1 139 11 discriminator 1 view .LVU131
 503              		.loc 1 139 12 is_stmt 0 discriminator 1 view .LVU132
 504 0032 2046     		mov	r0, r4
 505 0034 FFF7FEFF 		bl	HAL_SD_GetCardState
 506              	.LVL31:
 507              		.loc 1 139 11 discriminator 1 view .LVU133
 508 0038 0428     		cmp	r0, #4
 509 003a FAD1     		bne	.L34
 140:App/src/bsp_sdmmc2.c **** 
 141:App/src/bsp_sdmmc2.c ****     return LINGXI_OK;
 510              		.loc 1 141 12 view .LVU134
 511 003c 0020     		movs	r0, #0
 512              	.L31:
 142:App/src/bsp_sdmmc2.c **** }
 513              		.loc 1 142 1 view .LVU135
 514 003e 03B0     		add	sp, sp, #12
 515              		.cfi_remember_state
 516              		.cfi_def_cfa_offset 20
 517              		@ sp needed
 518 0040 F0BD     		pop	{r4, r5, r6, r7, pc}
 519              	.LVL32:
 520              	.L33:
 521              		.cfi_restore_state
 129:App/src/bsp_sdmmc2.c ****     }
 522              		.loc 1 129 16 view .LVU136
 523 0042 6FF00700 		mvn	r0, #7
 524 0046 FAE7     		b	.L31
 525              	.LVL33:
ARM GAS  /tmp/cciSlyUQ.s 			page 49


 526              	.L36:
 527              		.cfi_def_cfa_offset 0
 528              		.cfi_restore 4
