ARM GAS  /tmp/ccUfYlKQ.s 			page 1


   1              		.arch armv8.1-m.main
   2              		.arch_extension dsp
   3              		.arch_extension fp
   4              		.arch_extension fp.dp
   5              		.arch_extension mve
   6              		.eabi_attribute 28, 1
   7              		.eabi_attribute 20, 1
   8              		.eabi_attribute 21, 1
   9              		.eabi_attribute 23, 3
  10              		.eabi_attribute 24, 1
  11              		.eabi_attribute 25, 1
  12              		.eabi_attribute 26, 1
  13              		.eabi_attribute 30, 2
  14              		.eabi_attribute 34, 1
  15              		.eabi_attribute 38, 1
  16              		.eabi_attribute 18, 4
  17              		.file	"stm32n6xx_hal_pwr_ex.c"
  18              		.text
  19              	.Ltext0:
  20              		.cfi_sections	.debug_frame
  21              		.section	.text.HAL_PWREx_ConfigSupply,"ax",%progbits
  22              		.align	1
  23              		.p2align 2,,3
  24              		.global	HAL_PWREx_ConfigSupply
  25              		.arch armv8.1-m.main
  26              		.arch_extension dsp
  27              		.arch_extension fp
  28              		.arch_extension fp.dp
  29              		.arch_extension mve
  30              		.syntax unified
  31              		.thumb
  32              		.thumb_func
  33              		.fpu fpv5-d16
  35              	HAL_PWREx_ConfigSupply:
  36              	.LVL0:
  37              	.LFB808:
  38              		.file 1 "Drivers/STM32N6xx_HAL_Driver/Src/stm32n6xx_hal_pwr_ex.c"
   1:Drivers/STM32N6xx_HAL_Driver/Src/stm32n6xx_hal_pwr_ex.c **** /**
   2:Drivers/STM32N6xx_HAL_Driver/Src/stm32n6xx_hal_pwr_ex.c ****   ******************************************************************************
   3:Drivers/STM32N6xx_HAL_Driver/Src/stm32n6xx_hal_pwr_ex.c ****   * @file    stm32n6xx_hal_pwr_ex.c
   4:Drivers/STM32N6xx_HAL_Driver/Src/stm32n6xx_hal_pwr_ex.c ****   * @author  MCD Application Team
   5:Drivers/STM32N6xx_HAL_Driver/Src/stm32n6xx_hal_pwr_ex.c ****   * @brief   Extended PWR HAL module driver.
   6:Drivers/STM32N6xx_HAL_Driver/Src/stm32n6xx_hal_pwr_ex.c ****   *          This file provides firmware functions to manage the following
   7:Drivers/STM32N6xx_HAL_Driver/Src/stm32n6xx_hal_pwr_ex.c ****   *          functionalities of the Power Controller extension peripheral :
   8:Drivers/STM32N6xx_HAL_Driver/Src/stm32n6xx_hal_pwr_ex.c ****   *           + Power Supply Control Functions
   9:Drivers/STM32N6xx_HAL_Driver/Src/stm32n6xx_hal_pwr_ex.c ****   *           + Low Power Control Functions
  10:Drivers/STM32N6xx_HAL_Driver/Src/stm32n6xx_hal_pwr_ex.c ****   *           + Voltage Monitoring Functions
  11:Drivers/STM32N6xx_HAL_Driver/Src/stm32n6xx_hal_pwr_ex.c ****   *           + Memories Retention Functions
  12:Drivers/STM32N6xx_HAL_Driver/Src/stm32n6xx_hal_pwr_ex.c ****   *           + I/O Pull-Up Pull-Down Configuration Functions
  13:Drivers/STM32N6xx_HAL_Driver/Src/stm32n6xx_hal_pwr_ex.c ****   ******************************************************************************
  14:Drivers/STM32N6xx_HAL_Driver/Src/stm32n6xx_hal_pwr_ex.c ****   * @attention
  15:Drivers/STM32N6xx_HAL_Driver/Src/stm32n6xx_hal_pwr_ex.c ****   *
  16:Drivers/STM32N6xx_HAL_Driver/Src/stm32n6xx_hal_pwr_ex.c ****   * Copyright (c) 2023 STMicroelectronics.
  17:Drivers/STM32N6xx_HAL_Driver/Src/stm32n6xx_hal_pwr_ex.c ****   * All rights reserved.
  18:Drivers/STM32N6xx_HAL_Driver/Src/stm32n6xx_hal_pwr_ex.c ****   *
  19:Drivers/STM32N6xx_HAL_Driver/Src/stm32n6xx_hal_pwr_ex.c ****   * This software is licensed under terms that can be found in the LICENSE file
  20:Drivers/STM32N6xx_HAL_Driver/Src/stm32n6xx_hal_pwr_ex.c ****   * in the root directory of this software component.
ARM GAS  /tmp/ccUfYlKQ.s 			page 2


  21:Drivers/STM32N6xx_HAL_Driver/Src/stm32n6xx_hal_pwr_ex.c ****   * If no LICENSE file comes with this software, it is provided AS-IS.
  22:Drivers/STM32N6xx_HAL_Driver/Src/stm32n6xx_hal_pwr_ex.c ****   *
  23:Drivers/STM32N6xx_HAL_Driver/Src/stm32n6xx_hal_pwr_ex.c ****   ******************************************************************************
  24:Drivers/STM32N6xx_HAL_Driver/Src/stm32n6xx_hal_pwr_ex.c ****   @verbatim
  25:Drivers/STM32N6xx_HAL_Driver/Src/stm32n6xx_hal_pwr_ex.c ****   ==============================================================================
  26:Drivers/STM32N6xx_HAL_Driver/Src/stm32n6xx_hal_pwr_ex.c ****                         ##### How to use this driver #####
  27:Drivers/STM32N6xx_HAL_Driver/Src/stm32n6xx_hal_pwr_ex.c ****   ==============================================================================
  28:Drivers/STM32N6xx_HAL_Driver/Src/stm32n6xx_hal_pwr_ex.c ****   [..]
  29:Drivers/STM32N6xx_HAL_Driver/Src/stm32n6xx_hal_pwr_ex.c ****    (#) Call HAL_PWREx_ConfigSupply() function to configure the regulator supply
  30:Drivers/STM32N6xx_HAL_Driver/Src/stm32n6xx_hal_pwr_ex.c ****        with the following different setups according to hardware:
  31:Drivers/STM32N6xx_HAL_Driver/Src/stm32n6xx_hal_pwr_ex.c ****        (+) PWR_SMPS_SUPPLY
  32:Drivers/STM32N6xx_HAL_Driver/Src/stm32n6xx_hal_pwr_ex.c ****        (+) PWR_EXTERNAL_SOURCE_SUPPLY
  33:Drivers/STM32N6xx_HAL_Driver/Src/stm32n6xx_hal_pwr_ex.c **** 
  34:Drivers/STM32N6xx_HAL_Driver/Src/stm32n6xx_hal_pwr_ex.c ****    (#) Call HAL_PWREx_GetSupplyConfig() function to get the current supply setup.
  35:Drivers/STM32N6xx_HAL_Driver/Src/stm32n6xx_hal_pwr_ex.c **** 
  36:Drivers/STM32N6xx_HAL_Driver/Src/stm32n6xx_hal_pwr_ex.c ****    (#) Call HAL_PWREx_ControlVoltageScaling() function to configure the main
  37:Drivers/STM32N6xx_HAL_Driver/Src/stm32n6xx_hal_pwr_ex.c ****        internal regulator output voltage. The voltage scaling could be one of
  38:Drivers/STM32N6xx_HAL_Driver/Src/stm32n6xx_hal_pwr_ex.c ****        the following scales :
  39:Drivers/STM32N6xx_HAL_Driver/Src/stm32n6xx_hal_pwr_ex.c ****        (+) PWR_REGULATOR_VOLTAGE_SCALE0
  40:Drivers/STM32N6xx_HAL_Driver/Src/stm32n6xx_hal_pwr_ex.c ****        (+) PWR_REGULATOR_VOLTAGE_SCALE1
  41:Drivers/STM32N6xx_HAL_Driver/Src/stm32n6xx_hal_pwr_ex.c **** 
  42:Drivers/STM32N6xx_HAL_Driver/Src/stm32n6xx_hal_pwr_ex.c ****    (#) Call HAL_PWREx_GetVoltageRange() function to get the current output
  43:Drivers/STM32N6xx_HAL_Driver/Src/stm32n6xx_hal_pwr_ex.c ****        voltage applied to the main regulator.
  44:Drivers/STM32N6xx_HAL_Driver/Src/stm32n6xx_hal_pwr_ex.c **** 
  45:Drivers/STM32N6xx_HAL_Driver/Src/stm32n6xx_hal_pwr_ex.c ****    (#) Call HAL_PWREx_ControlStopModeVoltageScaling() function to configure the main
  46:Drivers/STM32N6xx_HAL_Driver/Src/stm32n6xx_hal_pwr_ex.c ****        internal regulator output voltage in STOP mode. The voltage scaling could be one of
  47:Drivers/STM32N6xx_HAL_Driver/Src/stm32n6xx_hal_pwr_ex.c ****        the following scales :
  48:Drivers/STM32N6xx_HAL_Driver/Src/stm32n6xx_hal_pwr_ex.c ****        (+) PWR_REGULATOR_STOP_VOLTAGE_SCALE3
  49:Drivers/STM32N6xx_HAL_Driver/Src/stm32n6xx_hal_pwr_ex.c ****        (+) PWR_REGULATOR_STOP_VOLTAGE_SCALE5
  50:Drivers/STM32N6xx_HAL_Driver/Src/stm32n6xx_hal_pwr_ex.c **** 
  51:Drivers/STM32N6xx_HAL_Driver/Src/stm32n6xx_hal_pwr_ex.c ****    (#) Call HAL_PWREx_GetStopModeVoltageRange() function to get the current output
  52:Drivers/STM32N6xx_HAL_Driver/Src/stm32n6xx_hal_pwr_ex.c ****        voltage applied to the main regulator in STOP mode.
  53:Drivers/STM32N6xx_HAL_Driver/Src/stm32n6xx_hal_pwr_ex.c **** 
  54:Drivers/STM32N6xx_HAL_Driver/Src/stm32n6xx_hal_pwr_ex.c ****    (#) Call HAL_PWREx_EnableWakeUpPin() functions to enable the Wake-up pin
  55:Drivers/STM32N6xx_HAL_Driver/Src/stm32n6xx_hal_pwr_ex.c ****        functionality for the selected pin.
  56:Drivers/STM32N6xx_HAL_Driver/Src/stm32n6xx_hal_pwr_ex.c **** 
  57:Drivers/STM32N6xx_HAL_Driver/Src/stm32n6xx_hal_pwr_ex.c ****    (#) Call HAL_PWREx_EnableBkupRAMRetention() and HAL_PWREx_DisableBkupRAMRetention()
  58:Drivers/STM32N6xx_HAL_Driver/Src/stm32n6xx_hal_pwr_ex.c ****        functions to enable and disable BKPSRAM retention in Standby mode.
  59:Drivers/STM32N6xx_HAL_Driver/Src/stm32n6xx_hal_pwr_ex.c **** 
  60:Drivers/STM32N6xx_HAL_Driver/Src/stm32n6xx_hal_pwr_ex.c ****    (#) Call HAL_PWREx_EnableTCMRetention() and HAL_PWREx_DisableTCMRetention() functions
  61:Drivers/STM32N6xx_HAL_Driver/Src/stm32n6xx_hal_pwr_ex.c ****        to enable and disable the I-TCM and D-TCM RAMs retention in Standby mode.
  62:Drivers/STM32N6xx_HAL_Driver/Src/stm32n6xx_hal_pwr_ex.c **** 
  63:Drivers/STM32N6xx_HAL_Driver/Src/stm32n6xx_hal_pwr_ex.c ****    (#) Call HAL_PWREx_EnableTCMFLXRetention() and HAL_PWREx_DisableTCMFLXRetention()
  64:Drivers/STM32N6xx_HAL_Driver/Src/stm32n6xx_hal_pwr_ex.c ****        functions to enable and disable the I-TCM FLEXMEM retention in Standby mode.
  65:Drivers/STM32N6xx_HAL_Driver/Src/stm32n6xx_hal_pwr_ex.c **** 
  66:Drivers/STM32N6xx_HAL_Driver/Src/stm32n6xx_hal_pwr_ex.c ****    (#) Call HAL_PWREx_SetPulseLow() function to configure the minimum guaranteed
  67:Drivers/STM32N6xx_HAL_Driver/Src/stm32n6xx_hal_pwr_ex.c ****        duration of the pwr_on low pulse in Standby mode ( between ~ 0 -> 31 ms).
  68:Drivers/STM32N6xx_HAL_Driver/Src/stm32n6xx_hal_pwr_ex.c **** 
  69:Drivers/STM32N6xx_HAL_Driver/Src/stm32n6xx_hal_pwr_ex.c ****    (#) Call HAL_PWREx_GetPulseLow() function to get the minimum guaranteed
  70:Drivers/STM32N6xx_HAL_Driver/Src/stm32n6xx_hal_pwr_ex.c ****        duration of the pwr_on low pulse in Standby mode.
  71:Drivers/STM32N6xx_HAL_Driver/Src/stm32n6xx_hal_pwr_ex.c **** 
  72:Drivers/STM32N6xx_HAL_Driver/Src/stm32n6xx_hal_pwr_ex.c ****    (#) Call HAL_PWREx_EnableTCMFLXRetention() and HAL_PWREx_DisableTCMFLXRetention()
  73:Drivers/STM32N6xx_HAL_Driver/Src/stm32n6xx_hal_pwr_ex.c ****        functions to enable and disable the I-TCM FLEXMEM retention in Standby mode.
  74:Drivers/STM32N6xx_HAL_Driver/Src/stm32n6xx_hal_pwr_ex.c **** 
  75:Drivers/STM32N6xx_HAL_Driver/Src/stm32n6xx_hal_pwr_ex.c ****    (#) Call HAL_PWREx_EnableSMPSPWM() and HAL_PWREx_DisableSMPSPWM() functions to
  76:Drivers/STM32N6xx_HAL_Driver/Src/stm32n6xx_hal_pwr_ex.c ****        enable and disable the SMPS low-power mode in Stop SVOS range 3.
  77:Drivers/STM32N6xx_HAL_Driver/Src/stm32n6xx_hal_pwr_ex.c **** 
ARM GAS  /tmp/ccUfYlKQ.s 			page 3


  78:Drivers/STM32N6xx_HAL_Driver/Src/stm32n6xx_hal_pwr_ex.c ****    (#) Call HAL_PWREx_EnablePullDownOutput() and HAL_PWREx_DisablePullDownOutput()
  79:Drivers/STM32N6xx_HAL_Driver/Src/stm32n6xx_hal_pwr_ex.c ****        functions to enable and disable the pull down on output voltage during
  80:Drivers/STM32N6xx_HAL_Driver/Src/stm32n6xx_hal_pwr_ex.c ****        power-down mode.
  81:Drivers/STM32N6xx_HAL_Driver/Src/stm32n6xx_hal_pwr_ex.c **** 
  82:Drivers/STM32N6xx_HAL_Driver/Src/stm32n6xx_hal_pwr_ex.c ****    (#) Call HAL_PWREx_EnableMonitoring() and HAL_PWREx_DisableMonitoring()
  83:Drivers/STM32N6xx_HAL_Driver/Src/stm32n6xx_hal_pwr_ex.c ****        functions to enable and disable the VBAT and Temperature monitoring.
  84:Drivers/STM32N6xx_HAL_Driver/Src/stm32n6xx_hal_pwr_ex.c ****        When VBAT and Temperature monitoring feature is enables, use
  85:Drivers/STM32N6xx_HAL_Driver/Src/stm32n6xx_hal_pwr_ex.c ****        HAL_PWREx_GetTemperatureLevel() and HAL_PWREx_GetVBATLevel() to get
  86:Drivers/STM32N6xx_HAL_Driver/Src/stm32n6xx_hal_pwr_ex.c ****        respectively the Temperature level and VBAT level.
  87:Drivers/STM32N6xx_HAL_Driver/Src/stm32n6xx_hal_pwr_ex.c **** 
  88:Drivers/STM32N6xx_HAL_Driver/Src/stm32n6xx_hal_pwr_ex.c ****    (#) Call HAL_PWREx_EnableVDDCOREMonitoring() and HAL_PWREx_EnableVDDCOREMonitoring()
  89:Drivers/STM32N6xx_HAL_Driver/Src/stm32n6xx_hal_pwr_ex.c ****        functions to enable and disable the VCORE monitoring.
  90:Drivers/STM32N6xx_HAL_Driver/Src/stm32n6xx_hal_pwr_ex.c ****        When VDDCORE monitoring feature is enables, use HAL_PWREx_GetVDDCORELevel()
  91:Drivers/STM32N6xx_HAL_Driver/Src/stm32n6xx_hal_pwr_ex.c ****        function to get the current VDDCORE level.
  92:Drivers/STM32N6xx_HAL_Driver/Src/stm32n6xx_hal_pwr_ex.c **** 
  93:Drivers/STM32N6xx_HAL_Driver/Src/stm32n6xx_hal_pwr_ex.c ****    (#) Call HAL_PWREx_ConfigVDDCORELevel() function to configure the VDDCORE
  94:Drivers/STM32N6xx_HAL_Driver/Src/stm32n6xx_hal_pwr_ex.c ****        voltage detector low-level selection.
  95:Drivers/STM32N6xx_HAL_Driver/Src/stm32n6xx_hal_pwr_ex.c **** 
  96:Drivers/STM32N6xx_HAL_Driver/Src/stm32n6xx_hal_pwr_ex.c ****    (#) Call HAL_PWREx_ConfigVddIORange() functions to configure the Vdd IO range:
  97:Drivers/STM32N6xx_HAL_Driver/Src/stm32n6xx_hal_pwr_ex.c ****        (+) PWR_VDDIO
  98:Drivers/STM32N6xx_HAL_Driver/Src/stm32n6xx_hal_pwr_ex.c ****        (+) PWR_VDDIO2
  99:Drivers/STM32N6xx_HAL_Driver/Src/stm32n6xx_hal_pwr_ex.c ****        (+) PWR_VDDIO3
 100:Drivers/STM32N6xx_HAL_Driver/Src/stm32n6xx_hal_pwr_ex.c ****        (+) PWR_VDDIO4
 101:Drivers/STM32N6xx_HAL_Driver/Src/stm32n6xx_hal_pwr_ex.c ****        (+) PWR_VDDIO5
 102:Drivers/STM32N6xx_HAL_Driver/Src/stm32n6xx_hal_pwr_ex.c ****        The voltage range setting could be one of the following values:
 103:Drivers/STM32N6xx_HAL_Driver/Src/stm32n6xx_hal_pwr_ex.c ****        (+) PWR_VDDIO_RANGE_3V3
 104:Drivers/STM32N6xx_HAL_Driver/Src/stm32n6xx_hal_pwr_ex.c ****        (+) PWR_VDDIO_RANGE_1V8
 105:Drivers/STM32N6xx_HAL_Driver/Src/stm32n6xx_hal_pwr_ex.c **** 
 106:Drivers/STM32N6xx_HAL_Driver/Src/stm32n6xx_hal_pwr_ex.c ****    (#) Call HAL_PWREx_GetVddIORange() function to get the current
 107:Drivers/STM32N6xx_HAL_Driver/Src/stm32n6xx_hal_pwr_ex.c ****        voltage range setting on the selected Vdd IO.
 108:Drivers/STM32N6xx_HAL_Driver/Src/stm32n6xx_hal_pwr_ex.c **** 
 109:Drivers/STM32N6xx_HAL_Driver/Src/stm32n6xx_hal_pwr_ex.c ****    (#) Call HAL_PWREx_EnableVddIO4RangeSTBY() and HAL_PWREx_DisableVddIO4RangeSTBY()
 110:Drivers/STM32N6xx_HAL_Driver/Src/stm32n6xx_hal_pwr_ex.c ****        functions to enable and disable the VDD IO4 voltage range Standby mode.
 111:Drivers/STM32N6xx_HAL_Driver/Src/stm32n6xx_hal_pwr_ex.c **** 
 112:Drivers/STM32N6xx_HAL_Driver/Src/stm32n6xx_hal_pwr_ex.c ****    (#) Call HAL_PWREx_EnableVddIO5RangeSTBY() and HAL_PWREx_DisableVddIO5RangeSTBY()
 113:Drivers/STM32N6xx_HAL_Driver/Src/stm32n6xx_hal_pwr_ex.c ****        functions to enable and disable the VDD IO5 voltage range Standby mode.
 114:Drivers/STM32N6xx_HAL_Driver/Src/stm32n6xx_hal_pwr_ex.c **** 
 115:Drivers/STM32N6xx_HAL_Driver/Src/stm32n6xx_hal_pwr_ex.c ****    (#) Call HAL_PWREx_EnableVddUSB() and HAL_PWREx_DisableVddUSB()
 116:Drivers/STM32N6xx_HAL_Driver/Src/stm32n6xx_hal_pwr_ex.c ****        functions to enable and disable the VDD33USB supply valid.
 117:Drivers/STM32N6xx_HAL_Driver/Src/stm32n6xx_hal_pwr_ex.c **** 
 118:Drivers/STM32N6xx_HAL_Driver/Src/stm32n6xx_hal_pwr_ex.c ****    (#) Call HAL_PWREx_EnableVddIO2() and HAL_PWREx_DisableVddIO2()
 119:Drivers/STM32N6xx_HAL_Driver/Src/stm32n6xx_hal_pwr_ex.c ****        functions to enable and disable the VDDIO2 supply valid.
 120:Drivers/STM32N6xx_HAL_Driver/Src/stm32n6xx_hal_pwr_ex.c **** 
 121:Drivers/STM32N6xx_HAL_Driver/Src/stm32n6xx_hal_pwr_ex.c ****    (#) Call HAL_PWREx_EnableVddIO3() and HAL_PWREx_DisableVddIO3()
 122:Drivers/STM32N6xx_HAL_Driver/Src/stm32n6xx_hal_pwr_ex.c ****        functions to enable and disable the VDDIO3 supply valid.
 123:Drivers/STM32N6xx_HAL_Driver/Src/stm32n6xx_hal_pwr_ex.c **** 
 124:Drivers/STM32N6xx_HAL_Driver/Src/stm32n6xx_hal_pwr_ex.c ****    (#) Call HAL_PWREx_EnableVddIO4() and HAL_PWREx_DisableVddIO4()
 125:Drivers/STM32N6xx_HAL_Driver/Src/stm32n6xx_hal_pwr_ex.c ****        functions to enable and disable the VDDIO4 supply valid.
 126:Drivers/STM32N6xx_HAL_Driver/Src/stm32n6xx_hal_pwr_ex.c **** 
 127:Drivers/STM32N6xx_HAL_Driver/Src/stm32n6xx_hal_pwr_ex.c ****    (#) Call HAL_PWREx_EnableVddIO5() and HAL_PWREx_DisableVddIO5()
 128:Drivers/STM32N6xx_HAL_Driver/Src/stm32n6xx_hal_pwr_ex.c ****        functions to enable and disable the VDDIO5 supply valid.
 129:Drivers/STM32N6xx_HAL_Driver/Src/stm32n6xx_hal_pwr_ex.c **** 
 130:Drivers/STM32N6xx_HAL_Driver/Src/stm32n6xx_hal_pwr_ex.c ****    (#) Call HAL_PWREx_EnableVddA() and HAL_PWREx_DisableVddA()
 131:Drivers/STM32N6xx_HAL_Driver/Src/stm32n6xx_hal_pwr_ex.c ****        functions to enable and disable the VDDA18ADC supply valid.
 132:Drivers/STM32N6xx_HAL_Driver/Src/stm32n6xx_hal_pwr_ex.c **** 
 133:Drivers/STM32N6xx_HAL_Driver/Src/stm32n6xx_hal_pwr_ex.c ****    (#) Call HAL_PWREx_ConfigPVM() after setting parameters to be configured
 134:Drivers/STM32N6xx_HAL_Driver/Src/stm32n6xx_hal_pwr_ex.c ****        (event mode and PVD type) in order to set up the Peripheral Voltage
ARM GAS  /tmp/ccUfYlKQ.s 			page 4


 135:Drivers/STM32N6xx_HAL_Driver/Src/stm32n6xx_hal_pwr_ex.c ****        Monitor, then use HAL_PWREx_EnableVddUSBVMEN(), HAL_PWREx_EnableVddIO2VMEN(),
 136:Drivers/STM32N6xx_HAL_Driver/Src/stm32n6xx_hal_pwr_ex.c ****        HAL_PWREx_EnableVddIO3VMEN(), HAL_PWREx_EnableVddIO4VMEN(),
 137:Drivers/STM32N6xx_HAL_Driver/Src/stm32n6xx_hal_pwr_ex.c ****        HAL_PWREx_EnableVddIO5VMEN() and HAL_PWREx_EnableVddAVMEN() functions to
 138:Drivers/STM32N6xx_HAL_Driver/Src/stm32n6xx_hal_pwr_ex.c ****        start the PVM VDDx monitoring.
 139:Drivers/STM32N6xx_HAL_Driver/Src/stm32n6xx_hal_pwr_ex.c ****        Use HAL_PWREx_DisableVddUSBVMEN(), HAL_PWREx_DisableVddIO2VMEN(),
 140:Drivers/STM32N6xx_HAL_Driver/Src/stm32n6xx_hal_pwr_ex.c ****        HAL_PWREx_DisableVddIO3VMEN(), HAL_PWREx_DisableVddIO4VMEN(),
 141:Drivers/STM32N6xx_HAL_Driver/Src/stm32n6xx_hal_pwr_ex.c ****        HAL_PWREx_DisableVddIO5VMEN() and HAL_PWREx_DisableVddAVMEN() to stop
 142:Drivers/STM32N6xx_HAL_Driver/Src/stm32n6xx_hal_pwr_ex.c ****        the PVM VDDx monitoring.
 143:Drivers/STM32N6xx_HAL_Driver/Src/stm32n6xx_hal_pwr_ex.c ****        (+) PVM monitored voltages are :
 144:Drivers/STM32N6xx_HAL_Driver/Src/stm32n6xx_hal_pwr_ex.c ****              (++) VDDUSB
 145:Drivers/STM32N6xx_HAL_Driver/Src/stm32n6xx_hal_pwr_ex.c ****              (++) VDDIO2
 146:Drivers/STM32N6xx_HAL_Driver/Src/stm32n6xx_hal_pwr_ex.c ****              (++) VDDIO3
 147:Drivers/STM32N6xx_HAL_Driver/Src/stm32n6xx_hal_pwr_ex.c ****              (++) VDDIO4
 148:Drivers/STM32N6xx_HAL_Driver/Src/stm32n6xx_hal_pwr_ex.c ****              (++) VDDIO5
 149:Drivers/STM32N6xx_HAL_Driver/Src/stm32n6xx_hal_pwr_ex.c ****              (++) VDDA
 150:Drivers/STM32N6xx_HAL_Driver/Src/stm32n6xx_hal_pwr_ex.c **** 
 151:Drivers/STM32N6xx_HAL_Driver/Src/stm32n6xx_hal_pwr_ex.c ****    (#) Call HAL_PWREx_PVD_PVM_IRQHandler() function to handle the PWR PVD and
 152:Drivers/STM32N6xx_HAL_Driver/Src/stm32n6xx_hal_pwr_ex.c ****        PVM interrupt request.
 153:Drivers/STM32N6xx_HAL_Driver/Src/stm32n6xx_hal_pwr_ex.c **** 
 154:Drivers/STM32N6xx_HAL_Driver/Src/stm32n6xx_hal_pwr_ex.c ****   @endverbatim
 155:Drivers/STM32N6xx_HAL_Driver/Src/stm32n6xx_hal_pwr_ex.c ****   ******************************************************************************
 156:Drivers/STM32N6xx_HAL_Driver/Src/stm32n6xx_hal_pwr_ex.c ****   */
 157:Drivers/STM32N6xx_HAL_Driver/Src/stm32n6xx_hal_pwr_ex.c **** 
 158:Drivers/STM32N6xx_HAL_Driver/Src/stm32n6xx_hal_pwr_ex.c **** /* Includes ------------------------------------------------------------------*/
 159:Drivers/STM32N6xx_HAL_Driver/Src/stm32n6xx_hal_pwr_ex.c **** #include "stm32n6xx_hal.h"
 160:Drivers/STM32N6xx_HAL_Driver/Src/stm32n6xx_hal_pwr_ex.c **** 
 161:Drivers/STM32N6xx_HAL_Driver/Src/stm32n6xx_hal_pwr_ex.c **** /** @addtogroup STM32N6xx_HAL_Driver
 162:Drivers/STM32N6xx_HAL_Driver/Src/stm32n6xx_hal_pwr_ex.c ****   * @{
 163:Drivers/STM32N6xx_HAL_Driver/Src/stm32n6xx_hal_pwr_ex.c ****   */
 164:Drivers/STM32N6xx_HAL_Driver/Src/stm32n6xx_hal_pwr_ex.c **** 
 165:Drivers/STM32N6xx_HAL_Driver/Src/stm32n6xx_hal_pwr_ex.c **** /** @defgroup PWREx PWREx
 166:Drivers/STM32N6xx_HAL_Driver/Src/stm32n6xx_hal_pwr_ex.c ****   * @brief    PWR Extended HAL module driver
 167:Drivers/STM32N6xx_HAL_Driver/Src/stm32n6xx_hal_pwr_ex.c ****   * @{
 168:Drivers/STM32N6xx_HAL_Driver/Src/stm32n6xx_hal_pwr_ex.c ****   */
 169:Drivers/STM32N6xx_HAL_Driver/Src/stm32n6xx_hal_pwr_ex.c **** 
 170:Drivers/STM32N6xx_HAL_Driver/Src/stm32n6xx_hal_pwr_ex.c **** #if defined (HAL_PWR_MODULE_ENABLED)
 171:Drivers/STM32N6xx_HAL_Driver/Src/stm32n6xx_hal_pwr_ex.c **** 
 172:Drivers/STM32N6xx_HAL_Driver/Src/stm32n6xx_hal_pwr_ex.c **** /* Private typedef -----------------------------------------------------------*/
 173:Drivers/STM32N6xx_HAL_Driver/Src/stm32n6xx_hal_pwr_ex.c **** /* Private define ------------------------------------------------------------*/
 174:Drivers/STM32N6xx_HAL_Driver/Src/stm32n6xx_hal_pwr_ex.c **** 
 175:Drivers/STM32N6xx_HAL_Driver/Src/stm32n6xx_hal_pwr_ex.c **** /** @defgroup PWREx_REG_SET_TIMEOUT PWR Extended Flag Setting Time Out Value
 176:Drivers/STM32N6xx_HAL_Driver/Src/stm32n6xx_hal_pwr_ex.c ****   * @{
 177:Drivers/STM32N6xx_HAL_Driver/Src/stm32n6xx_hal_pwr_ex.c ****   */
 178:Drivers/STM32N6xx_HAL_Driver/Src/stm32n6xx_hal_pwr_ex.c **** #define PWR_FLAG_SETTING_DELAY         (1000U)
 179:Drivers/STM32N6xx_HAL_Driver/Src/stm32n6xx_hal_pwr_ex.c **** /**
 180:Drivers/STM32N6xx_HAL_Driver/Src/stm32n6xx_hal_pwr_ex.c ****   * @}
 181:Drivers/STM32N6xx_HAL_Driver/Src/stm32n6xx_hal_pwr_ex.c ****   */
 182:Drivers/STM32N6xx_HAL_Driver/Src/stm32n6xx_hal_pwr_ex.c **** 
 183:Drivers/STM32N6xx_HAL_Driver/Src/stm32n6xx_hal_pwr_ex.c **** /** @defgroup PWREx_WakeUp_Pins_Offsets PWREx Wake-Up Pins masks and offsets
 184:Drivers/STM32N6xx_HAL_Driver/Src/stm32n6xx_hal_pwr_ex.c ****   * @{
 185:Drivers/STM32N6xx_HAL_Driver/Src/stm32n6xx_hal_pwr_ex.c ****   */
 186:Drivers/STM32N6xx_HAL_Driver/Src/stm32n6xx_hal_pwr_ex.c **** /* Wake-Up Pins EXTI register mask */
 187:Drivers/STM32N6xx_HAL_Driver/Src/stm32n6xx_hal_pwr_ex.c **** #define PWR_EXTI_WAKEUP_PINS_MASK      (EXTI_IMR2_IM60 | EXTI_IMR2_IM61 |\
 188:Drivers/STM32N6xx_HAL_Driver/Src/stm32n6xx_hal_pwr_ex.c ****                                         EXTI_IMR2_IM62 | EXTI_IMR2_IM63 )
 189:Drivers/STM32N6xx_HAL_Driver/Src/stm32n6xx_hal_pwr_ex.c **** 
 190:Drivers/STM32N6xx_HAL_Driver/Src/stm32n6xx_hal_pwr_ex.c **** /* Wake-Up Pins PWR Pin Pull shift offsets */
 191:Drivers/STM32N6xx_HAL_Driver/Src/stm32n6xx_hal_pwr_ex.c **** #define PWR_WAKEUP_PINS_PULL_SHIFT_OFFSET (2U)
ARM GAS  /tmp/ccUfYlKQ.s 			page 5


 192:Drivers/STM32N6xx_HAL_Driver/Src/stm32n6xx_hal_pwr_ex.c **** /**
 193:Drivers/STM32N6xx_HAL_Driver/Src/stm32n6xx_hal_pwr_ex.c ****   * @}
 194:Drivers/STM32N6xx_HAL_Driver/Src/stm32n6xx_hal_pwr_ex.c ****   */
 195:Drivers/STM32N6xx_HAL_Driver/Src/stm32n6xx_hal_pwr_ex.c **** 
 196:Drivers/STM32N6xx_HAL_Driver/Src/stm32n6xx_hal_pwr_ex.c **** /** @defgroup PWR_PVM_Mode_Mask PWR PVM Mode Mask
 197:Drivers/STM32N6xx_HAL_Driver/Src/stm32n6xx_hal_pwr_ex.c ****   * @{
 198:Drivers/STM32N6xx_HAL_Driver/Src/stm32n6xx_hal_pwr_ex.c ****   */
 199:Drivers/STM32N6xx_HAL_Driver/Src/stm32n6xx_hal_pwr_ex.c **** #define PVM_RISING_EDGE                (1U)                                    /*!< Mask for rising
 200:Drivers/STM32N6xx_HAL_Driver/Src/stm32n6xx_hal_pwr_ex.c **** #define PVM_FALLING_EDGE               (2U)                                    /*!< Mask for fallin
 201:Drivers/STM32N6xx_HAL_Driver/Src/stm32n6xx_hal_pwr_ex.c **** #define PVM_MODE_IT                    (4U)                                    /*!< Mask for interr
 202:Drivers/STM32N6xx_HAL_Driver/Src/stm32n6xx_hal_pwr_ex.c **** #define PVM_MODE_EVT                   (8U)                                    /*!< Mask for event 
 203:Drivers/STM32N6xx_HAL_Driver/Src/stm32n6xx_hal_pwr_ex.c **** /**
 204:Drivers/STM32N6xx_HAL_Driver/Src/stm32n6xx_hal_pwr_ex.c ****   * @}
 205:Drivers/STM32N6xx_HAL_Driver/Src/stm32n6xx_hal_pwr_ex.c ****   */
 206:Drivers/STM32N6xx_HAL_Driver/Src/stm32n6xx_hal_pwr_ex.c **** 
 207:Drivers/STM32N6xx_HAL_Driver/Src/stm32n6xx_hal_pwr_ex.c **** /** @defgroup PWR_VDDCOREVM_Mode_Mask PWR VddCORE VM Mode Mask
 208:Drivers/STM32N6xx_HAL_Driver/Src/stm32n6xx_hal_pwr_ex.c ****   * @{
 209:Drivers/STM32N6xx_HAL_Driver/Src/stm32n6xx_hal_pwr_ex.c ****   */
 210:Drivers/STM32N6xx_HAL_Driver/Src/stm32n6xx_hal_pwr_ex.c **** #define VDDCOREVM_RISING_EDGE          (1U)                                    /*!< Mask for rising
 211:Drivers/STM32N6xx_HAL_Driver/Src/stm32n6xx_hal_pwr_ex.c **** #define VDDCOREVM_FALLING_EDGE         (2U)                                    /*!< Mask for fallin
 212:Drivers/STM32N6xx_HAL_Driver/Src/stm32n6xx_hal_pwr_ex.c **** #define VDDCOREVM_MODE_IT              (4U)                                    /*!< Mask for interr
 213:Drivers/STM32N6xx_HAL_Driver/Src/stm32n6xx_hal_pwr_ex.c **** #define VDDCOREVM_MODE_EVT             (8U)                                    /*!< Mask for event 
 214:Drivers/STM32N6xx_HAL_Driver/Src/stm32n6xx_hal_pwr_ex.c **** /**
 215:Drivers/STM32N6xx_HAL_Driver/Src/stm32n6xx_hal_pwr_ex.c ****   * @}
 216:Drivers/STM32N6xx_HAL_Driver/Src/stm32n6xx_hal_pwr_ex.c ****   */
 217:Drivers/STM32N6xx_HAL_Driver/Src/stm32n6xx_hal_pwr_ex.c **** 
 218:Drivers/STM32N6xx_HAL_Driver/Src/stm32n6xx_hal_pwr_ex.c **** 
 219:Drivers/STM32N6xx_HAL_Driver/Src/stm32n6xx_hal_pwr_ex.c **** 
 220:Drivers/STM32N6xx_HAL_Driver/Src/stm32n6xx_hal_pwr_ex.c **** /* Private macro -------------------------------------------------------------*/
 221:Drivers/STM32N6xx_HAL_Driver/Src/stm32n6xx_hal_pwr_ex.c **** /* Private variables ---------------------------------------------------------*/
 222:Drivers/STM32N6xx_HAL_Driver/Src/stm32n6xx_hal_pwr_ex.c **** /* Private function prototypes -----------------------------------------------*/
 223:Drivers/STM32N6xx_HAL_Driver/Src/stm32n6xx_hal_pwr_ex.c **** /* Exported functions --------------------------------------------------------*/
 224:Drivers/STM32N6xx_HAL_Driver/Src/stm32n6xx_hal_pwr_ex.c **** 
 225:Drivers/STM32N6xx_HAL_Driver/Src/stm32n6xx_hal_pwr_ex.c **** /** @defgroup PWREx_Exported_Functions PWR Extended Exported Functions
 226:Drivers/STM32N6xx_HAL_Driver/Src/stm32n6xx_hal_pwr_ex.c ****   * @{
 227:Drivers/STM32N6xx_HAL_Driver/Src/stm32n6xx_hal_pwr_ex.c ****   */
 228:Drivers/STM32N6xx_HAL_Driver/Src/stm32n6xx_hal_pwr_ex.c **** 
 229:Drivers/STM32N6xx_HAL_Driver/Src/stm32n6xx_hal_pwr_ex.c **** /** @defgroup PWREx_Exported_Functions_Group1 Power Supply Control Functions
 230:Drivers/STM32N6xx_HAL_Driver/Src/stm32n6xx_hal_pwr_ex.c ****   * @brief    Power supply control functions
 231:Drivers/STM32N6xx_HAL_Driver/Src/stm32n6xx_hal_pwr_ex.c ****   *
 232:Drivers/STM32N6xx_HAL_Driver/Src/stm32n6xx_hal_pwr_ex.c **** @verbatim
 233:Drivers/STM32N6xx_HAL_Driver/Src/stm32n6xx_hal_pwr_ex.c ****  ===============================================================================
 234:Drivers/STM32N6xx_HAL_Driver/Src/stm32n6xx_hal_pwr_ex.c ****                   ##### Power supply control functions #####
 235:Drivers/STM32N6xx_HAL_Driver/Src/stm32n6xx_hal_pwr_ex.c ****  ===============================================================================
 236:Drivers/STM32N6xx_HAL_Driver/Src/stm32n6xx_hal_pwr_ex.c ****     [..]
 237:Drivers/STM32N6xx_HAL_Driver/Src/stm32n6xx_hal_pwr_ex.c ****        This section provides functions allowing to control power supply.
 238:Drivers/STM32N6xx_HAL_Driver/Src/stm32n6xx_hal_pwr_ex.c **** 
 239:Drivers/STM32N6xx_HAL_Driver/Src/stm32n6xx_hal_pwr_ex.c ****    (+) The STM32N6 series devices allows two different supply configurations:
 240:Drivers/STM32N6xx_HAL_Driver/Src/stm32n6xx_hal_pwr_ex.c ****        Direct SMPS supply and external supply.
 241:Drivers/STM32N6xx_HAL_Driver/Src/stm32n6xx_hal_pwr_ex.c **** 
 242:Drivers/STM32N6xx_HAL_Driver/Src/stm32n6xx_hal_pwr_ex.c ****    (#) After a system reset, the software must configure the used supply configuration
 243:Drivers/STM32N6xx_HAL_Driver/Src/stm32n6xx_hal_pwr_ex.c ****        in PWR_CR1 using  HAL_PWREx_ConfigSupply() function before changing VOS in PWR_VOSCR,
 244:Drivers/STM32N6xx_HAL_Driver/Src/stm32n6xx_hal_pwr_ex.c ****        or the RCC sys_ck frequency.
 245:Drivers/STM32N6xx_HAL_Driver/Src/stm32n6xx_hal_pwr_ex.c **** 
 246:Drivers/STM32N6xx_HAL_Driver/Src/stm32n6xx_hal_pwr_ex.c **** @endverbatim
 247:Drivers/STM32N6xx_HAL_Driver/Src/stm32n6xx_hal_pwr_ex.c ****   * @{
 248:Drivers/STM32N6xx_HAL_Driver/Src/stm32n6xx_hal_pwr_ex.c ****   */
ARM GAS  /tmp/ccUfYlKQ.s 			page 6


 249:Drivers/STM32N6xx_HAL_Driver/Src/stm32n6xx_hal_pwr_ex.c **** 
 250:Drivers/STM32N6xx_HAL_Driver/Src/stm32n6xx_hal_pwr_ex.c **** /**
 251:Drivers/STM32N6xx_HAL_Driver/Src/stm32n6xx_hal_pwr_ex.c ****   * @brief Configure the system Power Supply.
 252:Drivers/STM32N6xx_HAL_Driver/Src/stm32n6xx_hal_pwr_ex.c ****   * @param  SupplySource : Specifies the Power Supply source to set after a
 253:Drivers/STM32N6xx_HAL_Driver/Src/stm32n6xx_hal_pwr_ex.c ****   *                        system startup.
 254:Drivers/STM32N6xx_HAL_Driver/Src/stm32n6xx_hal_pwr_ex.c ****   *         This parameter can be one of the following values :
 255:Drivers/STM32N6xx_HAL_Driver/Src/stm32n6xx_hal_pwr_ex.c ****   *            @arg @ref PWR_SMPS_SUPPLY            : VCORE power domains are supplied
 256:Drivers/STM32N6xx_HAL_Driver/Src/stm32n6xx_hal_pwr_ex.c ****   *                                                   from SMPS step-down converter
 257:Drivers/STM32N6xx_HAL_Driver/Src/stm32n6xx_hal_pwr_ex.c ****   *                                                   according to VOS.
 258:Drivers/STM32N6xx_HAL_Driver/Src/stm32n6xx_hal_pwr_ex.c ****   *            @arg @ref PWR_EXTERNAL_SOURCE_SUPPLY : VCORE supplied from external source.
 259:Drivers/STM32N6xx_HAL_Driver/Src/stm32n6xx_hal_pwr_ex.c ****   *                                                   SMPS step-down converter disabled.
 260:Drivers/STM32N6xx_HAL_Driver/Src/stm32n6xx_hal_pwr_ex.c ****   * @note: The power supply configuration can be written only one time after POR.
 261:Drivers/STM32N6xx_HAL_Driver/Src/stm32n6xx_hal_pwr_ex.c ****   * @note: The power supply configuration is not reset by wakeup from Standby mode and
 262:Drivers/STM32N6xx_HAL_Driver/Src/stm32n6xx_hal_pwr_ex.c ****   *        application reset, but only reset by VDD POR.
 263:Drivers/STM32N6xx_HAL_Driver/Src/stm32n6xx_hal_pwr_ex.c ****   * @retval HAL status.
 264:Drivers/STM32N6xx_HAL_Driver/Src/stm32n6xx_hal_pwr_ex.c ****   */
 265:Drivers/STM32N6xx_HAL_Driver/Src/stm32n6xx_hal_pwr_ex.c **** HAL_StatusTypeDef HAL_PWREx_ConfigSupply(uint32_t SupplySource)
 266:Drivers/STM32N6xx_HAL_Driver/Src/stm32n6xx_hal_pwr_ex.c **** {
  39              		.loc 1 266 1 view -0
  40              		.cfi_startproc
  41              		@ args = 0, pretend = 0, frame = 0
  42              		@ frame_needed = 0, uses_anonymous_args = 0
 267:Drivers/STM32N6xx_HAL_Driver/Src/stm32n6xx_hal_pwr_ex.c ****   uint32_t tickstart;
  43              		.loc 1 267 3 view .LVU1
 268:Drivers/STM32N6xx_HAL_Driver/Src/stm32n6xx_hal_pwr_ex.c **** 
 269:Drivers/STM32N6xx_HAL_Driver/Src/stm32n6xx_hal_pwr_ex.c ****   /* Check the parameters */
 270:Drivers/STM32N6xx_HAL_Driver/Src/stm32n6xx_hal_pwr_ex.c ****   assert_param(IS_PWR_SUPPLY(SupplySource));
  44              		.loc 1 270 3 view .LVU2
 271:Drivers/STM32N6xx_HAL_Driver/Src/stm32n6xx_hal_pwr_ex.c **** 
 272:Drivers/STM32N6xx_HAL_Driver/Src/stm32n6xx_hal_pwr_ex.c ****   /* Set the power supply configuration */
 273:Drivers/STM32N6xx_HAL_Driver/Src/stm32n6xx_hal_pwr_ex.c ****   MODIFY_REG(PWR->CR1, PWR_SUPPLY_CONFIG_MASK, SupplySource);
  45              		.loc 1 273 3 view .LVU3
 266:Drivers/STM32N6xx_HAL_Driver/Src/stm32n6xx_hal_pwr_ex.c ****   uint32_t tickstart;
  46              		.loc 1 266 1 is_stmt 0 view .LVU4
  47 0000 38B5     		push	{r3, r4, r5, lr}
  48              		.cfi_def_cfa_offset 16
  49              		.cfi_offset 3, -16
  50              		.cfi_offset 4, -12
  51              		.cfi_offset 5, -8
  52              		.cfi_offset 14, -4
  53              		.loc 1 273 3 view .LVU5
  54 0002 0B4C     		ldr	r4, .L8
  55 0004 2368     		ldr	r3, [r4]
  56 0006 23F00403 		bic	r3, r3, #4
  57 000a 1843     		orrs	r0, r0, r3
  58              	.LVL1:
  59              		.loc 1 273 3 view .LVU6
  60 000c 2060     		str	r0, [r4]
 274:Drivers/STM32N6xx_HAL_Driver/Src/stm32n6xx_hal_pwr_ex.c **** 
 275:Drivers/STM32N6xx_HAL_Driver/Src/stm32n6xx_hal_pwr_ex.c ****   /* Get tick */
 276:Drivers/STM32N6xx_HAL_Driver/Src/stm32n6xx_hal_pwr_ex.c ****   tickstart = HAL_GetTick();
  61              		.loc 1 276 3 is_stmt 1 view .LVU7
  62              		.loc 1 276 15 is_stmt 0 view .LVU8
  63 000e FFF7FEFF 		bl	HAL_GetTick
  64              	.LVL2:
  65 0012 0546     		mov	r5, r0
  66              	.LVL3:
ARM GAS  /tmp/ccUfYlKQ.s 			page 7


 277:Drivers/STM32N6xx_HAL_Driver/Src/stm32n6xx_hal_pwr_ex.c **** 
 278:Drivers/STM32N6xx_HAL_Driver/Src/stm32n6xx_hal_pwr_ex.c ****   /* Wait till voltage level flag is set */
 279:Drivers/STM32N6xx_HAL_Driver/Src/stm32n6xx_hal_pwr_ex.c ****   while ((PWR->VOSCR & PWR_VOSCR_ACTVOSRDY) == 0U)
  67              		.loc 1 279 3 is_stmt 1 view .LVU9
  68              		.loc 1 279 9 is_stmt 0 view .LVU10
  69 0014 05E0     		b	.L2
  70              	.LVL4:
  71              	.L4:
 280:Drivers/STM32N6xx_HAL_Driver/Src/stm32n6xx_hal_pwr_ex.c ****   {
 281:Drivers/STM32N6xx_HAL_Driver/Src/stm32n6xx_hal_pwr_ex.c ****     if ((HAL_GetTick() - tickstart) > PWR_FLAG_SETTING_DELAY)
  72              		.loc 1 281 10 view .LVU11
  73 0016 FFF7FEFF 		bl	HAL_GetTick
  74              	.LVL5:
  75              		.loc 1 281 24 view .LVU12
  76 001a 401B     		subs	r0, r0, r5
  77              		.loc 1 281 8 view .LVU13
  78 001c B0F57A7F 		cmp	r0, #1000
  79 0020 04D8     		bhi	.L5
  80              	.L2:
  81              		.loc 1 281 5 is_stmt 1 view .LVU14
 279:Drivers/STM32N6xx_HAL_Driver/Src/stm32n6xx_hal_pwr_ex.c ****   {
  82              		.loc 1 279 9 view .LVU15
 279:Drivers/STM32N6xx_HAL_Driver/Src/stm32n6xx_hal_pwr_ex.c ****   {
  83              		.loc 1 279 14 is_stmt 0 view .LVU16
  84 0022 236A     		ldr	r3, [r4, #32]
 279:Drivers/STM32N6xx_HAL_Driver/Src/stm32n6xx_hal_pwr_ex.c ****   {
  85              		.loc 1 279 9 view .LVU17
  86 0024 9B03     		lsls	r3, r3, #14
  87 0026 F6D5     		bpl	.L4
 282:Drivers/STM32N6xx_HAL_Driver/Src/stm32n6xx_hal_pwr_ex.c ****     {
 283:Drivers/STM32N6xx_HAL_Driver/Src/stm32n6xx_hal_pwr_ex.c ****       return HAL_ERROR;
 284:Drivers/STM32N6xx_HAL_Driver/Src/stm32n6xx_hal_pwr_ex.c ****     }
 285:Drivers/STM32N6xx_HAL_Driver/Src/stm32n6xx_hal_pwr_ex.c ****   }
 286:Drivers/STM32N6xx_HAL_Driver/Src/stm32n6xx_hal_pwr_ex.c **** 
 287:Drivers/STM32N6xx_HAL_Driver/Src/stm32n6xx_hal_pwr_ex.c ****   return HAL_OK;
  88              		.loc 1 287 10 view .LVU18
  89 0028 0020     		movs	r0, #0
 288:Drivers/STM32N6xx_HAL_Driver/Src/stm32n6xx_hal_pwr_ex.c **** }
  90              		.loc 1 288 1 view .LVU19
  91 002a 38BD     		pop	{r3, r4, r5, pc}
  92              	.LVL6:
  93              	.L5:
 283:Drivers/STM32N6xx_HAL_Driver/Src/stm32n6xx_hal_pwr_ex.c ****     }
  94              		.loc 1 283 14 view .LVU20
  95 002c 0120     		movs	r0, #1
  96              		.loc 1 288 1 view .LVU21
  97 002e 38BD     		pop	{r3, r4, r5, pc}
  98              	.LVL7:
  99              	.L9:
 100              		.loc 1 288 1 view .LVU22
 101              		.align	2
 102              	.L8:
 103 0030 00480246 		.word	1174554624
 104              		.cfi_endproc
 105              	.LFE808:
 107              		.section	.text.HAL_PWREx_GetSupplyConfig,"ax",%progbits
 108              		.align	1
ARM GAS  /tmp/ccUfYlKQ.s 			page 8


 109              		.p2align 2,,3
 110              		.global	HAL_PWREx_GetSupplyConfig
 111              		.syntax unified
 112              		.thumb
 113              		.thumb_func
 114              		.fpu fpv5-d16
 116              	HAL_PWREx_GetSupplyConfig:
 117              	.LFB809:
 289:Drivers/STM32N6xx_HAL_Driver/Src/stm32n6xx_hal_pwr_ex.c **** 
 290:Drivers/STM32N6xx_HAL_Driver/Src/stm32n6xx_hal_pwr_ex.c **** /**
 291:Drivers/STM32N6xx_HAL_Driver/Src/stm32n6xx_hal_pwr_ex.c ****   * @brief Get the power supply configuration.
 292:Drivers/STM32N6xx_HAL_Driver/Src/stm32n6xx_hal_pwr_ex.c ****   * @retval The supply configuration.
 293:Drivers/STM32N6xx_HAL_Driver/Src/stm32n6xx_hal_pwr_ex.c ****   */
 294:Drivers/STM32N6xx_HAL_Driver/Src/stm32n6xx_hal_pwr_ex.c **** uint32_t HAL_PWREx_GetSupplyConfig(void)
 295:Drivers/STM32N6xx_HAL_Driver/Src/stm32n6xx_hal_pwr_ex.c **** {
 118              		.loc 1 295 1 is_stmt 1 view -0
 119              		.cfi_startproc
 120              		@ args = 0, pretend = 0, frame = 0
 121              		@ frame_needed = 0, uses_anonymous_args = 0
 122              		@ link register save eliminated.
 296:Drivers/STM32N6xx_HAL_Driver/Src/stm32n6xx_hal_pwr_ex.c ****   return (PWR->CR1 & PWR_SUPPLY_CONFIG_MASK);
 123              		.loc 1 296 3 view .LVU24
 124              		.loc 1 296 14 is_stmt 0 view .LVU25
 125 0000 024B     		ldr	r3, .L11
 126 0002 1868     		ldr	r0, [r3]
 297:Drivers/STM32N6xx_HAL_Driver/Src/stm32n6xx_hal_pwr_ex.c **** }
 127              		.loc 1 297 1 view .LVU26
 128 0004 00F00400 		and	r0, r0, #4
 129 0008 7047     		bx	lr
 130              	.L12:
 131 000a 00BF     		.align	2
 132              	.L11:
 133 000c 00480246 		.word	1174554624
 134              		.cfi_endproc
 135              	.LFE809:
 137              		.section	.text.HAL_PWREx_ControlVoltageScaling,"ax",%progbits
 138              		.align	1
 139              		.p2align 2,,3
 140              		.global	HAL_PWREx_ControlVoltageScaling
 141              		.syntax unified
 142              		.thumb
 143              		.thumb_func
 144              		.fpu fpv5-d16
 146              	HAL_PWREx_ControlVoltageScaling:
 147              	.LVL8:
 148              	.LFB810:
 298:Drivers/STM32N6xx_HAL_Driver/Src/stm32n6xx_hal_pwr_ex.c **** 
 299:Drivers/STM32N6xx_HAL_Driver/Src/stm32n6xx_hal_pwr_ex.c **** /**
 300:Drivers/STM32N6xx_HAL_Driver/Src/stm32n6xx_hal_pwr_ex.c ****   * @brief Configure the main internal regulator output voltage.
 301:Drivers/STM32N6xx_HAL_Driver/Src/stm32n6xx_hal_pwr_ex.c ****   * @param  VoltageScaling : Specifies the regulator output voltage to achieve
 302:Drivers/STM32N6xx_HAL_Driver/Src/stm32n6xx_hal_pwr_ex.c ****   *                          a tradeoff between performance and power
 303:Drivers/STM32N6xx_HAL_Driver/Src/stm32n6xx_hal_pwr_ex.c ****   *                          consumption.
 304:Drivers/STM32N6xx_HAL_Driver/Src/stm32n6xx_hal_pwr_ex.c ****   *          This parameter can be one of the following values :
 305:Drivers/STM32N6xx_HAL_Driver/Src/stm32n6xx_hal_pwr_ex.c ****   *            @arg PWR_REGULATOR_VOLTAGE_SCALE0 : Regulator voltage scaling range 0 (highest frequ
 306:Drivers/STM32N6xx_HAL_Driver/Src/stm32n6xx_hal_pwr_ex.c ****   *            @arg PWR_REGULATOR_VOLTAGE_SCALE1 : Regulator voltage scaling range 1 (lowest power)
 307:Drivers/STM32N6xx_HAL_Driver/Src/stm32n6xx_hal_pwr_ex.c ****   * @note After reset, the system starts from HSI with VOS low.
 308:Drivers/STM32N6xx_HAL_Driver/Src/stm32n6xx_hal_pwr_ex.c ****   * @note When increasing the performance, the voltage scaling must be changed
ARM GAS  /tmp/ccUfYlKQ.s 			page 9


 309:Drivers/STM32N6xx_HAL_Driver/Src/stm32n6xx_hal_pwr_ex.c ****   *       before increasing the system frequency.
 310:Drivers/STM32N6xx_HAL_Driver/Src/stm32n6xx_hal_pwr_ex.c ****   *       When decreasing performance, the system frequency must first be decreased
 311:Drivers/STM32N6xx_HAL_Driver/Src/stm32n6xx_hal_pwr_ex.c ****   *       before changing the voltage scaling.
 312:Drivers/STM32N6xx_HAL_Driver/Src/stm32n6xx_hal_pwr_ex.c ****   * @note When exiting from Stop mode or Standby mode, the Run mode voltage
 313:Drivers/STM32N6xx_HAL_Driver/Src/stm32n6xx_hal_pwr_ex.c ****   *       scaling is reset to the default VOS low value.
 314:Drivers/STM32N6xx_HAL_Driver/Src/stm32n6xx_hal_pwr_ex.c ****   * @retval HAL Status
 315:Drivers/STM32N6xx_HAL_Driver/Src/stm32n6xx_hal_pwr_ex.c ****   */
 316:Drivers/STM32N6xx_HAL_Driver/Src/stm32n6xx_hal_pwr_ex.c **** HAL_StatusTypeDef HAL_PWREx_ControlVoltageScaling(uint32_t VoltageScaling)
 317:Drivers/STM32N6xx_HAL_Driver/Src/stm32n6xx_hal_pwr_ex.c **** {
 149              		.loc 1 317 1 is_stmt 1 view -0
 150              		.cfi_startproc
 151              		@ args = 0, pretend = 0, frame = 0
 152              		@ frame_needed = 0, uses_anonymous_args = 0
 318:Drivers/STM32N6xx_HAL_Driver/Src/stm32n6xx_hal_pwr_ex.c ****   uint32_t tickstart;
 153              		.loc 1 318 3 view .LVU28
 319:Drivers/STM32N6xx_HAL_Driver/Src/stm32n6xx_hal_pwr_ex.c **** 
 320:Drivers/STM32N6xx_HAL_Driver/Src/stm32n6xx_hal_pwr_ex.c ****   /* Check the parameters */
 321:Drivers/STM32N6xx_HAL_Driver/Src/stm32n6xx_hal_pwr_ex.c ****   assert_param(IS_PWR_REGULATOR_VOLTAGE(VoltageScaling));
 154              		.loc 1 321 3 view .LVU29
 322:Drivers/STM32N6xx_HAL_Driver/Src/stm32n6xx_hal_pwr_ex.c **** 
 323:Drivers/STM32N6xx_HAL_Driver/Src/stm32n6xx_hal_pwr_ex.c ****   /* Set the voltage range */
 324:Drivers/STM32N6xx_HAL_Driver/Src/stm32n6xx_hal_pwr_ex.c ****   MODIFY_REG(PWR->VOSCR, PWR_VOSCR_VOS, VoltageScaling);
 155              		.loc 1 324 3 view .LVU30
 317:Drivers/STM32N6xx_HAL_Driver/Src/stm32n6xx_hal_pwr_ex.c ****   uint32_t tickstart;
 156              		.loc 1 317 1 is_stmt 0 view .LVU31
 157 0000 38B5     		push	{r3, r4, r5, lr}
 158              		.cfi_def_cfa_offset 16
 159              		.cfi_offset 3, -16
 160              		.cfi_offset 4, -12
 161              		.cfi_offset 5, -8
 162              		.cfi_offset 14, -4
 163              		.loc 1 324 3 view .LVU32
 164 0002 0B4C     		ldr	r4, .L19
 165 0004 236A     		ldr	r3, [r4, #32]
 166 0006 23F00103 		bic	r3, r3, #1
 167 000a 1843     		orrs	r0, r0, r3
 168              	.LVL9:
 169              		.loc 1 324 3 view .LVU33
 170 000c 2062     		str	r0, [r4, #32]
 325:Drivers/STM32N6xx_HAL_Driver/Src/stm32n6xx_hal_pwr_ex.c **** 
 326:Drivers/STM32N6xx_HAL_Driver/Src/stm32n6xx_hal_pwr_ex.c ****   /* Get tick */
 327:Drivers/STM32N6xx_HAL_Driver/Src/stm32n6xx_hal_pwr_ex.c ****   tickstart = HAL_GetTick();
 171              		.loc 1 327 3 is_stmt 1 view .LVU34
 172              		.loc 1 327 15 is_stmt 0 view .LVU35
 173 000e FFF7FEFF 		bl	HAL_GetTick
 174              	.LVL10:
 175 0012 0546     		mov	r5, r0
 176              	.LVL11:
 328:Drivers/STM32N6xx_HAL_Driver/Src/stm32n6xx_hal_pwr_ex.c **** 
 329:Drivers/STM32N6xx_HAL_Driver/Src/stm32n6xx_hal_pwr_ex.c ****   /* Wait till voltage level flag is set */
 330:Drivers/STM32N6xx_HAL_Driver/Src/stm32n6xx_hal_pwr_ex.c ****   while ((PWR->VOSCR & PWR_VOSCR_VOSRDY) == 0U)
 177              		.loc 1 330 3 is_stmt 1 view .LVU36
 178              		.loc 1 330 9 is_stmt 0 view .LVU37
 179 0014 05E0     		b	.L14
 180              	.LVL12:
 181              	.L16:
 331:Drivers/STM32N6xx_HAL_Driver/Src/stm32n6xx_hal_pwr_ex.c ****   {
ARM GAS  /tmp/ccUfYlKQ.s 			page 10


 332:Drivers/STM32N6xx_HAL_Driver/Src/stm32n6xx_hal_pwr_ex.c ****     if ((HAL_GetTick() - tickstart) > PWR_FLAG_SETTING_DELAY)
 182              		.loc 1 332 10 view .LVU38
 183 0016 FFF7FEFF 		bl	HAL_GetTick
 184              	.LVL13:
 185              		.loc 1 332 24 view .LVU39
 186 001a 401B     		subs	r0, r0, r5
 187              		.loc 1 332 8 view .LVU40
 188 001c B0F57A7F 		cmp	r0, #1000
 189 0020 04D8     		bhi	.L17
 190              	.L14:
 191              		.loc 1 332 5 is_stmt 1 view .LVU41
 330:Drivers/STM32N6xx_HAL_Driver/Src/stm32n6xx_hal_pwr_ex.c ****   {
 192              		.loc 1 330 9 view .LVU42
 330:Drivers/STM32N6xx_HAL_Driver/Src/stm32n6xx_hal_pwr_ex.c ****   {
 193              		.loc 1 330 14 is_stmt 0 view .LVU43
 194 0022 236A     		ldr	r3, [r4, #32]
 330:Drivers/STM32N6xx_HAL_Driver/Src/stm32n6xx_hal_pwr_ex.c ****   {
 195              		.loc 1 330 9 view .LVU44
 196 0024 9B07     		lsls	r3, r3, #30
 197 0026 F6D5     		bpl	.L16
 333:Drivers/STM32N6xx_HAL_Driver/Src/stm32n6xx_hal_pwr_ex.c ****     {
 334:Drivers/STM32N6xx_HAL_Driver/Src/stm32n6xx_hal_pwr_ex.c ****       return HAL_ERROR;
 335:Drivers/STM32N6xx_HAL_Driver/Src/stm32n6xx_hal_pwr_ex.c ****     }
 336:Drivers/STM32N6xx_HAL_Driver/Src/stm32n6xx_hal_pwr_ex.c ****   }
 337:Drivers/STM32N6xx_HAL_Driver/Src/stm32n6xx_hal_pwr_ex.c **** 
 338:Drivers/STM32N6xx_HAL_Driver/Src/stm32n6xx_hal_pwr_ex.c ****   return HAL_OK;
 198              		.loc 1 338 10 view .LVU45
 199 0028 0020     		movs	r0, #0
 339:Drivers/STM32N6xx_HAL_Driver/Src/stm32n6xx_hal_pwr_ex.c **** }
 200              		.loc 1 339 1 view .LVU46
 201 002a 38BD     		pop	{r3, r4, r5, pc}
 202              	.LVL14:
 203              	.L17:
 334:Drivers/STM32N6xx_HAL_Driver/Src/stm32n6xx_hal_pwr_ex.c ****     }
 204              		.loc 1 334 14 view .LVU47
 205 002c 0120     		movs	r0, #1
 206              		.loc 1 339 1 view .LVU48
 207 002e 38BD     		pop	{r3, r4, r5, pc}
 208              	.LVL15:
 209              	.L20:
 210              		.loc 1 339 1 view .LVU49
 211              		.align	2
 212              	.L19:
 213 0030 00480246 		.word	1174554624
 214              		.cfi_endproc
 215              	.LFE810:
 217              		.section	.text.HAL_PWREx_GetVoltageRange,"ax",%progbits
 218              		.align	1
 219              		.p2align 2,,3
 220              		.global	HAL_PWREx_GetVoltageRange
 221              		.syntax unified
 222              		.thumb
 223              		.thumb_func
 224              		.fpu fpv5-d16
 226              	HAL_PWREx_GetVoltageRange:
 227              	.LFB811:
 340:Drivers/STM32N6xx_HAL_Driver/Src/stm32n6xx_hal_pwr_ex.c **** 
ARM GAS  /tmp/ccUfYlKQ.s 			page 11


 341:Drivers/STM32N6xx_HAL_Driver/Src/stm32n6xx_hal_pwr_ex.c **** /**
 342:Drivers/STM32N6xx_HAL_Driver/Src/stm32n6xx_hal_pwr_ex.c ****   * @brief Get the main internal regulator output voltage. Reflecting the last
 343:Drivers/STM32N6xx_HAL_Driver/Src/stm32n6xx_hal_pwr_ex.c ****   *        VOS value applied to the PMU.
 344:Drivers/STM32N6xx_HAL_Driver/Src/stm32n6xx_hal_pwr_ex.c ****   * @retval The current applied VOS selection.
 345:Drivers/STM32N6xx_HAL_Driver/Src/stm32n6xx_hal_pwr_ex.c ****   */
 346:Drivers/STM32N6xx_HAL_Driver/Src/stm32n6xx_hal_pwr_ex.c **** uint32_t HAL_PWREx_GetVoltageRange(void)
 347:Drivers/STM32N6xx_HAL_Driver/Src/stm32n6xx_hal_pwr_ex.c **** {
 228              		.loc 1 347 1 is_stmt 1 view -0
 229              		.cfi_startproc
 230              		@ args = 0, pretend = 0, frame = 0
 231              		@ frame_needed = 0, uses_anonymous_args = 0
 232              		@ link register save eliminated.
 348:Drivers/STM32N6xx_HAL_Driver/Src/stm32n6xx_hal_pwr_ex.c ****   /* Get the active voltage scaling */
 349:Drivers/STM32N6xx_HAL_Driver/Src/stm32n6xx_hal_pwr_ex.c ****   return ((PWR->VOSCR & PWR_VOSCR_ACTVOS) >> PWR_VOSCR_ACTVOS_Pos);
 233              		.loc 1 349 3 view .LVU51
 234              		.loc 1 349 15 is_stmt 0 view .LVU52
 235 0000 024B     		ldr	r3, .L22
 236 0002 186A     		ldr	r0, [r3, #32]
 350:Drivers/STM32N6xx_HAL_Driver/Src/stm32n6xx_hal_pwr_ex.c **** }
 237              		.loc 1 350 1 view .LVU53
 238 0004 C0F30040 		ubfx	r0, r0, #16, #1
 239 0008 7047     		bx	lr
 240              	.L23:
 241 000a 00BF     		.align	2
 242              	.L22:
 243 000c 00480246 		.word	1174554624
 244              		.cfi_endproc
 245              	.LFE811:
 247              		.section	.text.HAL_PWREx_ControlStopModeVoltageScaling,"ax",%progbits
 248              		.align	1
 249              		.p2align 2,,3
 250              		.global	HAL_PWREx_ControlStopModeVoltageScaling
 251              		.syntax unified
 252              		.thumb
 253              		.thumb_func
 254              		.fpu fpv5-d16
 256              	HAL_PWREx_ControlStopModeVoltageScaling:
 257              	.LVL16:
 258              	.LFB812:
 351:Drivers/STM32N6xx_HAL_Driver/Src/stm32n6xx_hal_pwr_ex.c **** 
 352:Drivers/STM32N6xx_HAL_Driver/Src/stm32n6xx_hal_pwr_ex.c **** /**
 353:Drivers/STM32N6xx_HAL_Driver/Src/stm32n6xx_hal_pwr_ex.c ****   * @brief Configure the main internal regulator output voltage in STOP mode.
 354:Drivers/STM32N6xx_HAL_Driver/Src/stm32n6xx_hal_pwr_ex.c ****   * @param  VoltageScaling : Specifies the regulator output voltage when the
 355:Drivers/STM32N6xx_HAL_Driver/Src/stm32n6xx_hal_pwr_ex.c ****   *         system enters Stop mode to achieve a tradeoff between performance
 356:Drivers/STM32N6xx_HAL_Driver/Src/stm32n6xx_hal_pwr_ex.c ****   *         and power consumption.
 357:Drivers/STM32N6xx_HAL_Driver/Src/stm32n6xx_hal_pwr_ex.c ****   *          This parameter can be one of the following values:
 358:Drivers/STM32N6xx_HAL_Driver/Src/stm32n6xx_hal_pwr_ex.c ****   *            @arg PWR_REGULATOR_STOP_VOLTAGE_SCALE3 : System Stop mode voltage scaling range 3 (h
 359:Drivers/STM32N6xx_HAL_Driver/Src/stm32n6xx_hal_pwr_ex.c ****   *            @arg PWR_REGULATOR_STOP_VOLTAGE_SCALE5 : System Stop mode voltage scaling range 5 (l
 360:Drivers/STM32N6xx_HAL_Driver/Src/stm32n6xx_hal_pwr_ex.c ****   * @retval None.
 361:Drivers/STM32N6xx_HAL_Driver/Src/stm32n6xx_hal_pwr_ex.c ****   */
 362:Drivers/STM32N6xx_HAL_Driver/Src/stm32n6xx_hal_pwr_ex.c **** void HAL_PWREx_ControlStopModeVoltageScaling(uint32_t VoltageScaling)
 363:Drivers/STM32N6xx_HAL_Driver/Src/stm32n6xx_hal_pwr_ex.c **** {
 259              		.loc 1 363 1 is_stmt 1 view -0
 260              		.cfi_startproc
 261              		@ args = 0, pretend = 0, frame = 0
 262              		@ frame_needed = 0, uses_anonymous_args = 0
 263              		@ link register save eliminated.
ARM GAS  /tmp/ccUfYlKQ.s 			page 12


 364:Drivers/STM32N6xx_HAL_Driver/Src/stm32n6xx_hal_pwr_ex.c ****   /* Check the parameters */
 365:Drivers/STM32N6xx_HAL_Driver/Src/stm32n6xx_hal_pwr_ex.c ****   assert_param(IS_PWR_STOP_MODE_REGULATOR_VOLTAGE(VoltageScaling));
 264              		.loc 1 365 3 view .LVU55
 366:Drivers/STM32N6xx_HAL_Driver/Src/stm32n6xx_hal_pwr_ex.c **** 
 367:Drivers/STM32N6xx_HAL_Driver/Src/stm32n6xx_hal_pwr_ex.c ****   /* Return the stop mode voltage range */
 368:Drivers/STM32N6xx_HAL_Driver/Src/stm32n6xx_hal_pwr_ex.c ****   MODIFY_REG(PWR->CPUCR, PWR_CPUCR_SVOS, VoltageScaling);
 265              		.loc 1 368 3 view .LVU56
 266 0000 034A     		ldr	r2, .L25
 267 0002 136B     		ldr	r3, [r2, #48]
 268 0004 23F48033 		bic	r3, r3, #65536
 269 0008 1843     		orrs	r0, r0, r3
 270              	.LVL17:
 271              		.loc 1 368 3 is_stmt 0 view .LVU57
 272 000a 1063     		str	r0, [r2, #48]
 369:Drivers/STM32N6xx_HAL_Driver/Src/stm32n6xx_hal_pwr_ex.c **** }
 273              		.loc 1 369 1 view .LVU58
 274 000c 7047     		bx	lr
 275              	.L26:
 276 000e 00BF     		.align	2
 277              	.L25:
 278 0010 00480246 		.word	1174554624
 279              		.cfi_endproc
 280              	.LFE812:
 282              		.section	.text.HAL_PWREx_GetStopModeVoltageRange,"ax",%progbits
 283              		.align	1
 284              		.p2align 2,,3
 285              		.global	HAL_PWREx_GetStopModeVoltageRange
 286              		.syntax unified
 287              		.thumb
 288              		.thumb_func
 289              		.fpu fpv5-d16
 291              	HAL_PWREx_GetStopModeVoltageRange:
 292              	.LFB813:
 370:Drivers/STM32N6xx_HAL_Driver/Src/stm32n6xx_hal_pwr_ex.c **** 
 371:Drivers/STM32N6xx_HAL_Driver/Src/stm32n6xx_hal_pwr_ex.c **** /**
 372:Drivers/STM32N6xx_HAL_Driver/Src/stm32n6xx_hal_pwr_ex.c ****   * @brief Get the main internal regulator output voltage in STOP mode.
 373:Drivers/STM32N6xx_HAL_Driver/Src/stm32n6xx_hal_pwr_ex.c ****   * @retval The actual applied SVOS selection.
 374:Drivers/STM32N6xx_HAL_Driver/Src/stm32n6xx_hal_pwr_ex.c ****   */
 375:Drivers/STM32N6xx_HAL_Driver/Src/stm32n6xx_hal_pwr_ex.c **** uint32_t HAL_PWREx_GetStopModeVoltageRange(void)
 376:Drivers/STM32N6xx_HAL_Driver/Src/stm32n6xx_hal_pwr_ex.c **** {
 293              		.loc 1 376 1 is_stmt 1 view -0
 294              		.cfi_startproc
 295              		@ args = 0, pretend = 0, frame = 0
 296              		@ frame_needed = 0, uses_anonymous_args = 0
 297              		@ link register save eliminated.
 377:Drivers/STM32N6xx_HAL_Driver/Src/stm32n6xx_hal_pwr_ex.c ****   /* Return the stop voltage scaling */
 378:Drivers/STM32N6xx_HAL_Driver/Src/stm32n6xx_hal_pwr_ex.c ****   return (PWR->CPUCR & PWR_CPUCR_SVOS);
 298              		.loc 1 378 3 view .LVU60
 299              		.loc 1 378 14 is_stmt 0 view .LVU61
 300 0000 024B     		ldr	r3, .L28
 301 0002 186B     		ldr	r0, [r3, #48]
 379:Drivers/STM32N6xx_HAL_Driver/Src/stm32n6xx_hal_pwr_ex.c **** }
 302              		.loc 1 379 1 view .LVU62
 303 0004 00F48030 		and	r0, r0, #65536
 304 0008 7047     		bx	lr
 305              	.L29:
 306 000a 00BF     		.align	2
ARM GAS  /tmp/ccUfYlKQ.s 			page 13


 307              	.L28:
 308 000c 00480246 		.word	1174554624
 309              		.cfi_endproc
 310              	.LFE813:
 312              		.section	.text.HAL_PWREx_EnableWakeUpPin,"ax",%progbits
 313              		.align	1
 314              		.p2align 2,,3
 315              		.global	HAL_PWREx_EnableWakeUpPin
 316              		.syntax unified
 317              		.thumb
 318              		.thumb_func
 319              		.fpu fpv5-d16
 321              	HAL_PWREx_EnableWakeUpPin:
 322              	.LVL18:
 323              	.LFB814:
 380:Drivers/STM32N6xx_HAL_Driver/Src/stm32n6xx_hal_pwr_ex.c **** /**
 381:Drivers/STM32N6xx_HAL_Driver/Src/stm32n6xx_hal_pwr_ex.c ****   * @}
 382:Drivers/STM32N6xx_HAL_Driver/Src/stm32n6xx_hal_pwr_ex.c ****   */
 383:Drivers/STM32N6xx_HAL_Driver/Src/stm32n6xx_hal_pwr_ex.c **** 
 384:Drivers/STM32N6xx_HAL_Driver/Src/stm32n6xx_hal_pwr_ex.c **** /** @defgroup PWREx_Exported_Functions_Group2 Wakeup Pins configuration functions
 385:Drivers/STM32N6xx_HAL_Driver/Src/stm32n6xx_hal_pwr_ex.c ****   * @brief     Wakeup Pins configuration functions
 386:Drivers/STM32N6xx_HAL_Driver/Src/stm32n6xx_hal_pwr_ex.c ****   *
 387:Drivers/STM32N6xx_HAL_Driver/Src/stm32n6xx_hal_pwr_ex.c **** @verbatim
 388:Drivers/STM32N6xx_HAL_Driver/Src/stm32n6xx_hal_pwr_ex.c ****  ===============================================================================
 389:Drivers/STM32N6xx_HAL_Driver/Src/stm32n6xx_hal_pwr_ex.c ****                      ##### Wakeup Pins configuration functions #####
 390:Drivers/STM32N6xx_HAL_Driver/Src/stm32n6xx_hal_pwr_ex.c ****  ===============================================================================
 391:Drivers/STM32N6xx_HAL_Driver/Src/stm32n6xx_hal_pwr_ex.c ****     [..]
 392:Drivers/STM32N6xx_HAL_Driver/Src/stm32n6xx_hal_pwr_ex.c **** 
 393:Drivers/STM32N6xx_HAL_Driver/Src/stm32n6xx_hal_pwr_ex.c ****     *** Wakeup Pins configuration ****
 394:Drivers/STM32N6xx_HAL_Driver/Src/stm32n6xx_hal_pwr_ex.c ****     ===================================
 395:Drivers/STM32N6xx_HAL_Driver/Src/stm32n6xx_hal_pwr_ex.c ****     [..]
 396:Drivers/STM32N6xx_HAL_Driver/Src/stm32n6xx_hal_pwr_ex.c ****       Wakeup pins allow the system to exit from Standby mode. The configuration
 397:Drivers/STM32N6xx_HAL_Driver/Src/stm32n6xx_hal_pwr_ex.c ****       of wakeup pins is done with the HAL_PWREx_EnableWakeUpPin(sPinParams)
 398:Drivers/STM32N6xx_HAL_Driver/Src/stm32n6xx_hal_pwr_ex.c ****       function with:
 399:Drivers/STM32N6xx_HAL_Driver/Src/stm32n6xx_hal_pwr_ex.c ****        (+) sPinParams: structure to enable and configure a wakeup pin:
 400:Drivers/STM32N6xx_HAL_Driver/Src/stm32n6xx_hal_pwr_ex.c ****         (++) WakeUpPin: Wakeup pin to be enabled.
 401:Drivers/STM32N6xx_HAL_Driver/Src/stm32n6xx_hal_pwr_ex.c ****         (++) PinPolarity: Wakeup pin polarity (rising or falling edge).
 402:Drivers/STM32N6xx_HAL_Driver/Src/stm32n6xx_hal_pwr_ex.c ****         (++) PinPull: Wakeup pin pull (no pull, pull-up or pull-down).
 403:Drivers/STM32N6xx_HAL_Driver/Src/stm32n6xx_hal_pwr_ex.c ****     [..]
 404:Drivers/STM32N6xx_HAL_Driver/Src/stm32n6xx_hal_pwr_ex.c ****       The wakeup pins are internally connected to the EXTI lines [60-63] to
 405:Drivers/STM32N6xx_HAL_Driver/Src/stm32n6xx_hal_pwr_ex.c ****       generate an interrupt if enabled.
 406:Drivers/STM32N6xx_HAL_Driver/Src/stm32n6xx_hal_pwr_ex.c ****     [..]
 407:Drivers/STM32N6xx_HAL_Driver/Src/stm32n6xx_hal_pwr_ex.c ****       When a wakeup pin event is received the HAL_PWR_WAKEUP_PIN_IRQHandler is
 408:Drivers/STM32N6xx_HAL_Driver/Src/stm32n6xx_hal_pwr_ex.c ****       called and the appropriate flag is set in the PWR_WKUPSR register. Then in
 409:Drivers/STM32N6xx_HAL_Driver/Src/stm32n6xx_hal_pwr_ex.c ****       the HAL_PWR_WAKEUP_PIN_IRQHandler function the wakeup pin flag will be
 410:Drivers/STM32N6xx_HAL_Driver/Src/stm32n6xx_hal_pwr_ex.c ****       cleared and the appropriate user callback will be called. The user can add
 411:Drivers/STM32N6xx_HAL_Driver/Src/stm32n6xx_hal_pwr_ex.c ****       his own code by customization of function pointer HAL_PWR_WKUPx_Callback.
 412:Drivers/STM32N6xx_HAL_Driver/Src/stm32n6xx_hal_pwr_ex.c **** 
 413:Drivers/STM32N6xx_HAL_Driver/Src/stm32n6xx_hal_pwr_ex.c **** @endverbatim
 414:Drivers/STM32N6xx_HAL_Driver/Src/stm32n6xx_hal_pwr_ex.c ****   * @{
 415:Drivers/STM32N6xx_HAL_Driver/Src/stm32n6xx_hal_pwr_ex.c ****   */
 416:Drivers/STM32N6xx_HAL_Driver/Src/stm32n6xx_hal_pwr_ex.c **** /**
 417:Drivers/STM32N6xx_HAL_Driver/Src/stm32n6xx_hal_pwr_ex.c ****   * @brief Enable the Wake-up PINx functionality.
 418:Drivers/STM32N6xx_HAL_Driver/Src/stm32n6xx_hal_pwr_ex.c ****   * @param  sPinParams : Pointer to a PWREx_WakeupPinTypeDef structure that
 419:Drivers/STM32N6xx_HAL_Driver/Src/stm32n6xx_hal_pwr_ex.c ****   *                      contains the configuration information for the wake-up
 420:Drivers/STM32N6xx_HAL_Driver/Src/stm32n6xx_hal_pwr_ex.c ****   *                      Pin.
 421:Drivers/STM32N6xx_HAL_Driver/Src/stm32n6xx_hal_pwr_ex.c ****   * @retval None.
ARM GAS  /tmp/ccUfYlKQ.s 			page 14


 422:Drivers/STM32N6xx_HAL_Driver/Src/stm32n6xx_hal_pwr_ex.c ****   */
 423:Drivers/STM32N6xx_HAL_Driver/Src/stm32n6xx_hal_pwr_ex.c **** void HAL_PWREx_EnableWakeUpPin(const PWREx_WakeupPinTypeDef *sPinParams)
 424:Drivers/STM32N6xx_HAL_Driver/Src/stm32n6xx_hal_pwr_ex.c **** {
 324              		.loc 1 424 1 is_stmt 1 view -0
 325              		.cfi_startproc
 326              		@ args = 0, pretend = 0, frame = 0
 327              		@ frame_needed = 0, uses_anonymous_args = 0
 328              		@ link register save eliminated.
 425:Drivers/STM32N6xx_HAL_Driver/Src/stm32n6xx_hal_pwr_ex.c ****   uint32_t pinConfig;
 329              		.loc 1 425 3 view .LVU64
 426:Drivers/STM32N6xx_HAL_Driver/Src/stm32n6xx_hal_pwr_ex.c ****   uint32_t regMask;
 330              		.loc 1 426 3 view .LVU65
 427:Drivers/STM32N6xx_HAL_Driver/Src/stm32n6xx_hal_pwr_ex.c ****   const uint32_t pullMask = PWR_WKUPEPR_WKUPPUPD1;
 331              		.loc 1 427 3 view .LVU66
 428:Drivers/STM32N6xx_HAL_Driver/Src/stm32n6xx_hal_pwr_ex.c **** 
 429:Drivers/STM32N6xx_HAL_Driver/Src/stm32n6xx_hal_pwr_ex.c ****   /* Check the parameters */
 430:Drivers/STM32N6xx_HAL_Driver/Src/stm32n6xx_hal_pwr_ex.c ****   assert_param(IS_PWR_WAKEUP_PIN(sPinParams->WakeUpPin));
 332              		.loc 1 430 3 view .LVU67
 431:Drivers/STM32N6xx_HAL_Driver/Src/stm32n6xx_hal_pwr_ex.c ****   assert_param(IS_PWR_WAKEUP_PIN_POLARITY(sPinParams->PinPolarity));
 333              		.loc 1 431 3 view .LVU68
 432:Drivers/STM32N6xx_HAL_Driver/Src/stm32n6xx_hal_pwr_ex.c ****   assert_param(IS_PWR_WAKEUP_PIN_PULL(sPinParams->PinPull));
 334              		.loc 1 432 3 view .LVU69
 433:Drivers/STM32N6xx_HAL_Driver/Src/stm32n6xx_hal_pwr_ex.c **** 
 434:Drivers/STM32N6xx_HAL_Driver/Src/stm32n6xx_hal_pwr_ex.c ****   pinConfig = sPinParams->WakeUpPin | \
 335              		.loc 1 434 3 view .LVU70
 435:Drivers/STM32N6xx_HAL_Driver/Src/stm32n6xx_hal_pwr_ex.c ****               (sPinParams->PinPolarity << ((POSITION_VAL(sPinParams->WakeUpPin) + PWR_WKUPEPR_WKUPP
 336              		.loc 1 435 26 is_stmt 0 view .LVU71
 337 0000 D0E90021 		ldrd	r2, r1, [r0]
 338              	.LVL19:
 339              	.LBB18:
 340              	.LBI18:
 341              		.file 2 "Drivers/CMSIS/Core/Include/cmsis_gcc.h"
   1:Drivers/CMSIS/Core/Include/cmsis_gcc.h **** /**************************************************************************//**
   2:Drivers/CMSIS/Core/Include/cmsis_gcc.h ****  * @file     cmsis_gcc.h
   3:Drivers/CMSIS/Core/Include/cmsis_gcc.h ****  * @brief    CMSIS compiler GCC header file
   4:Drivers/CMSIS/Core/Include/cmsis_gcc.h ****  * @version  V6.0.0
   5:Drivers/CMSIS/Core/Include/cmsis_gcc.h ****  * @date     27. July 2024
   6:Drivers/CMSIS/Core/Include/cmsis_gcc.h ****  ******************************************************************************/
   7:Drivers/CMSIS/Core/Include/cmsis_gcc.h **** /*
   8:Drivers/CMSIS/Core/Include/cmsis_gcc.h ****  * Copyright (c) 2009-2023 Arm Limited. All rights reserved.
   9:Drivers/CMSIS/Core/Include/cmsis_gcc.h ****  *
  10:Drivers/CMSIS/Core/Include/cmsis_gcc.h ****  * SPDX-License-Identifier: Apache-2.0
  11:Drivers/CMSIS/Core/Include/cmsis_gcc.h ****  *
  12:Drivers/CMSIS/Core/Include/cmsis_gcc.h ****  * Licensed under the Apache License, Version 2.0 (the License); you may
  13:Drivers/CMSIS/Core/Include/cmsis_gcc.h ****  * not use this file except in compliance with the License.
  14:Drivers/CMSIS/Core/Include/cmsis_gcc.h ****  * You may obtain a copy of the License at
  15:Drivers/CMSIS/Core/Include/cmsis_gcc.h ****  *
  16:Drivers/CMSIS/Core/Include/cmsis_gcc.h ****  * www.apache.org/licenses/LICENSE-2.0
  17:Drivers/CMSIS/Core/Include/cmsis_gcc.h ****  *
  18:Drivers/CMSIS/Core/Include/cmsis_gcc.h ****  * Unless required by applicable law or agreed to in writing, software
  19:Drivers/CMSIS/Core/Include/cmsis_gcc.h ****  * distributed under the License is distributed on an AS IS BASIS, WITHOUT
  20:Drivers/CMSIS/Core/Include/cmsis_gcc.h ****  * WARRANTIES OR CONDITIONS OF ANY KIND, either express or implied.
  21:Drivers/CMSIS/Core/Include/cmsis_gcc.h ****  * See the License for the specific language governing permissions and
  22:Drivers/CMSIS/Core/Include/cmsis_gcc.h ****  * limitations under the License.
  23:Drivers/CMSIS/Core/Include/cmsis_gcc.h ****  */
  24:Drivers/CMSIS/Core/Include/cmsis_gcc.h **** 
  25:Drivers/CMSIS/Core/Include/cmsis_gcc.h **** #ifndef __CMSIS_GCC_H
ARM GAS  /tmp/ccUfYlKQ.s 			page 15


  26:Drivers/CMSIS/Core/Include/cmsis_gcc.h **** #define __CMSIS_GCC_H
  27:Drivers/CMSIS/Core/Include/cmsis_gcc.h **** 
  28:Drivers/CMSIS/Core/Include/cmsis_gcc.h **** #pragma GCC system_header   /* treat file as system include file */
  29:Drivers/CMSIS/Core/Include/cmsis_gcc.h **** 
  30:Drivers/CMSIS/Core/Include/cmsis_gcc.h **** #include <arm_acle.h>
  31:Drivers/CMSIS/Core/Include/cmsis_gcc.h **** 
  32:Drivers/CMSIS/Core/Include/cmsis_gcc.h **** /* Fallback for __has_builtin */
  33:Drivers/CMSIS/Core/Include/cmsis_gcc.h **** #ifndef __has_builtin
  34:Drivers/CMSIS/Core/Include/cmsis_gcc.h ****   #define __has_builtin(x) (0)
  35:Drivers/CMSIS/Core/Include/cmsis_gcc.h **** #endif
  36:Drivers/CMSIS/Core/Include/cmsis_gcc.h **** 
  37:Drivers/CMSIS/Core/Include/cmsis_gcc.h **** /* CMSIS compiler specific defines */
  38:Drivers/CMSIS/Core/Include/cmsis_gcc.h **** #ifndef   __ASM
  39:Drivers/CMSIS/Core/Include/cmsis_gcc.h ****   #define __ASM                                  __asm
  40:Drivers/CMSIS/Core/Include/cmsis_gcc.h **** #endif
  41:Drivers/CMSIS/Core/Include/cmsis_gcc.h **** #ifndef   __INLINE
  42:Drivers/CMSIS/Core/Include/cmsis_gcc.h ****   #define __INLINE                               inline
  43:Drivers/CMSIS/Core/Include/cmsis_gcc.h **** #endif
  44:Drivers/CMSIS/Core/Include/cmsis_gcc.h **** #ifndef   __STATIC_INLINE
  45:Drivers/CMSIS/Core/Include/cmsis_gcc.h ****   #define __STATIC_INLINE                        static inline
  46:Drivers/CMSIS/Core/Include/cmsis_gcc.h **** #endif
  47:Drivers/CMSIS/Core/Include/cmsis_gcc.h **** #ifndef   __STATIC_FORCEINLINE
  48:Drivers/CMSIS/Core/Include/cmsis_gcc.h ****   #define __STATIC_FORCEINLINE                   __attribute__((always_inline)) static inline
  49:Drivers/CMSIS/Core/Include/cmsis_gcc.h **** #endif
  50:Drivers/CMSIS/Core/Include/cmsis_gcc.h **** #ifndef   __NO_RETURN
  51:Drivers/CMSIS/Core/Include/cmsis_gcc.h ****   #define __NO_RETURN                            __attribute__((__noreturn__))
  52:Drivers/CMSIS/Core/Include/cmsis_gcc.h **** #endif
  53:Drivers/CMSIS/Core/Include/cmsis_gcc.h **** #ifndef   CMSIS_DEPRECATED
  54:Drivers/CMSIS/Core/Include/cmsis_gcc.h ****   #define CMSIS_DEPRECATED                       __attribute__((deprecated))
  55:Drivers/CMSIS/Core/Include/cmsis_gcc.h **** #endif
  56:Drivers/CMSIS/Core/Include/cmsis_gcc.h **** #ifndef   __USED
  57:Drivers/CMSIS/Core/Include/cmsis_gcc.h ****   #define __USED                                 __attribute__((used))
  58:Drivers/CMSIS/Core/Include/cmsis_gcc.h **** #endif
  59:Drivers/CMSIS/Core/Include/cmsis_gcc.h **** #ifndef   __WEAK
  60:Drivers/CMSIS/Core/Include/cmsis_gcc.h ****   #define __WEAK                                 __attribute__((weak))
  61:Drivers/CMSIS/Core/Include/cmsis_gcc.h **** #endif
  62:Drivers/CMSIS/Core/Include/cmsis_gcc.h **** #ifndef   __PACKED
  63:Drivers/CMSIS/Core/Include/cmsis_gcc.h ****   #define __PACKED                               __attribute__((packed, aligned(1)))
  64:Drivers/CMSIS/Core/Include/cmsis_gcc.h **** #endif
  65:Drivers/CMSIS/Core/Include/cmsis_gcc.h **** #ifndef   __PACKED_STRUCT
  66:Drivers/CMSIS/Core/Include/cmsis_gcc.h ****   #define __PACKED_STRUCT                        struct __attribute__((packed, aligned(1)))
  67:Drivers/CMSIS/Core/Include/cmsis_gcc.h **** #endif
  68:Drivers/CMSIS/Core/Include/cmsis_gcc.h **** #ifndef   __PACKED_UNION
  69:Drivers/CMSIS/Core/Include/cmsis_gcc.h ****   #define __PACKED_UNION                         union __attribute__((packed, aligned(1)))
  70:Drivers/CMSIS/Core/Include/cmsis_gcc.h **** #endif
  71:Drivers/CMSIS/Core/Include/cmsis_gcc.h **** #ifndef   __UNALIGNED_UINT16_WRITE
  72:Drivers/CMSIS/Core/Include/cmsis_gcc.h ****   #pragma GCC diagnostic push
  73:Drivers/CMSIS/Core/Include/cmsis_gcc.h ****   #pragma GCC diagnostic ignored "-Wpacked"
  74:Drivers/CMSIS/Core/Include/cmsis_gcc.h ****   #pragma GCC diagnostic ignored "-Wattributes"
  75:Drivers/CMSIS/Core/Include/cmsis_gcc.h ****   __PACKED_STRUCT T_UINT16_WRITE { uint16_t v; };
  76:Drivers/CMSIS/Core/Include/cmsis_gcc.h ****   #pragma GCC diagnostic pop
  77:Drivers/CMSIS/Core/Include/cmsis_gcc.h ****   #define __UNALIGNED_UINT16_WRITE(addr, val)    (void)((((struct T_UINT16_WRITE *)(void *)(addr))-
  78:Drivers/CMSIS/Core/Include/cmsis_gcc.h **** #endif
  79:Drivers/CMSIS/Core/Include/cmsis_gcc.h **** #ifndef   __UNALIGNED_UINT16_READ
  80:Drivers/CMSIS/Core/Include/cmsis_gcc.h ****   #pragma GCC diagnostic push
  81:Drivers/CMSIS/Core/Include/cmsis_gcc.h ****   #pragma GCC diagnostic ignored "-Wpacked"
  82:Drivers/CMSIS/Core/Include/cmsis_gcc.h ****   #pragma GCC diagnostic ignored "-Wattributes"
ARM GAS  /tmp/ccUfYlKQ.s 			page 16


  83:Drivers/CMSIS/Core/Include/cmsis_gcc.h ****   __PACKED_STRUCT T_UINT16_READ { uint16_t v; };
  84:Drivers/CMSIS/Core/Include/cmsis_gcc.h ****   #pragma GCC diagnostic pop
  85:Drivers/CMSIS/Core/Include/cmsis_gcc.h ****   #define __UNALIGNED_UINT16_READ(addr)          (((const struct T_UINT16_READ *)(const void *)(add
  86:Drivers/CMSIS/Core/Include/cmsis_gcc.h **** #endif
  87:Drivers/CMSIS/Core/Include/cmsis_gcc.h **** #ifndef   __UNALIGNED_UINT32_WRITE
  88:Drivers/CMSIS/Core/Include/cmsis_gcc.h ****   #pragma GCC diagnostic push
  89:Drivers/CMSIS/Core/Include/cmsis_gcc.h ****   #pragma GCC diagnostic ignored "-Wpacked"
  90:Drivers/CMSIS/Core/Include/cmsis_gcc.h ****   #pragma GCC diagnostic ignored "-Wattributes"
  91:Drivers/CMSIS/Core/Include/cmsis_gcc.h ****   __PACKED_STRUCT T_UINT32_WRITE { uint32_t v; };
  92:Drivers/CMSIS/Core/Include/cmsis_gcc.h ****   #pragma GCC diagnostic pop
  93:Drivers/CMSIS/Core/Include/cmsis_gcc.h ****   #define __UNALIGNED_UINT32_WRITE(addr, val)    (void)((((struct T_UINT32_WRITE *)(void *)(addr))-
  94:Drivers/CMSIS/Core/Include/cmsis_gcc.h **** #endif
  95:Drivers/CMSIS/Core/Include/cmsis_gcc.h **** #ifndef   __UNALIGNED_UINT32_READ
  96:Drivers/CMSIS/Core/Include/cmsis_gcc.h ****   #pragma GCC diagnostic push
  97:Drivers/CMSIS/Core/Include/cmsis_gcc.h ****   #pragma GCC diagnostic ignored "-Wpacked"
  98:Drivers/CMSIS/Core/Include/cmsis_gcc.h ****   #pragma GCC diagnostic ignored "-Wattributes"
  99:Drivers/CMSIS/Core/Include/cmsis_gcc.h ****   __PACKED_STRUCT T_UINT32_READ { uint32_t v; };
 100:Drivers/CMSIS/Core/Include/cmsis_gcc.h ****   #pragma GCC diagnostic pop
 101:Drivers/CMSIS/Core/Include/cmsis_gcc.h ****   #define __UNALIGNED_UINT32_READ(addr)          (((const struct T_UINT32_READ *)(const void *)(add
 102:Drivers/CMSIS/Core/Include/cmsis_gcc.h **** #endif
 103:Drivers/CMSIS/Core/Include/cmsis_gcc.h **** #ifndef   __ALIGNED
 104:Drivers/CMSIS/Core/Include/cmsis_gcc.h ****   #define __ALIGNED(x)                           __attribute__((aligned(x)))
 105:Drivers/CMSIS/Core/Include/cmsis_gcc.h **** #endif
 106:Drivers/CMSIS/Core/Include/cmsis_gcc.h **** #ifndef   __RESTRICT
 107:Drivers/CMSIS/Core/Include/cmsis_gcc.h ****   #define __RESTRICT                             __restrict
 108:Drivers/CMSIS/Core/Include/cmsis_gcc.h **** #endif
 109:Drivers/CMSIS/Core/Include/cmsis_gcc.h **** #ifndef   __COMPILER_BARRIER
 110:Drivers/CMSIS/Core/Include/cmsis_gcc.h ****   #define __COMPILER_BARRIER()                   __ASM volatile("":::"memory")
 111:Drivers/CMSIS/Core/Include/cmsis_gcc.h **** #endif
 112:Drivers/CMSIS/Core/Include/cmsis_gcc.h **** #ifndef __NO_INIT
 113:Drivers/CMSIS/Core/Include/cmsis_gcc.h ****   #define __NO_INIT                              __attribute__ ((section (".noinit")))
 114:Drivers/CMSIS/Core/Include/cmsis_gcc.h **** #endif
 115:Drivers/CMSIS/Core/Include/cmsis_gcc.h **** #ifndef __ALIAS
 116:Drivers/CMSIS/Core/Include/cmsis_gcc.h ****   #define __ALIAS(x)                             __attribute__ ((alias(x)))
 117:Drivers/CMSIS/Core/Include/cmsis_gcc.h **** #endif
 118:Drivers/CMSIS/Core/Include/cmsis_gcc.h **** 
 119:Drivers/CMSIS/Core/Include/cmsis_gcc.h **** /* ##########################  Core Instruction Access  ######################### */
 120:Drivers/CMSIS/Core/Include/cmsis_gcc.h **** /** \defgroup CMSIS_Core_InstructionInterface CMSIS Core Instruction Interface
 121:Drivers/CMSIS/Core/Include/cmsis_gcc.h ****   Access to dedicated instructions
 122:Drivers/CMSIS/Core/Include/cmsis_gcc.h ****   @{
 123:Drivers/CMSIS/Core/Include/cmsis_gcc.h **** */
 124:Drivers/CMSIS/Core/Include/cmsis_gcc.h **** 
 125:Drivers/CMSIS/Core/Include/cmsis_gcc.h **** /* Define macros for porting to both thumb1 and thumb2.
 126:Drivers/CMSIS/Core/Include/cmsis_gcc.h ****  * For thumb1, use low register (r0-r7), specified by constraint "l"
 127:Drivers/CMSIS/Core/Include/cmsis_gcc.h ****  * Otherwise, use general registers, specified by constraint "r" */
 128:Drivers/CMSIS/Core/Include/cmsis_gcc.h **** #if defined (__thumb__) && !defined (__thumb2__)
 129:Drivers/CMSIS/Core/Include/cmsis_gcc.h **** #define __CMSIS_GCC_OUT_REG(r) "=l" (r)
 130:Drivers/CMSIS/Core/Include/cmsis_gcc.h **** #define __CMSIS_GCC_RW_REG(r) "+l" (r)
 131:Drivers/CMSIS/Core/Include/cmsis_gcc.h **** #define __CMSIS_GCC_USE_REG(r) "l" (r)
 132:Drivers/CMSIS/Core/Include/cmsis_gcc.h **** #else
 133:Drivers/CMSIS/Core/Include/cmsis_gcc.h **** #define __CMSIS_GCC_OUT_REG(r) "=r" (r)
 134:Drivers/CMSIS/Core/Include/cmsis_gcc.h **** #define __CMSIS_GCC_RW_REG(r) "+r" (r)
 135:Drivers/CMSIS/Core/Include/cmsis_gcc.h **** #define __CMSIS_GCC_USE_REG(r) "r" (r)
 136:Drivers/CMSIS/Core/Include/cmsis_gcc.h **** #endif
 137:Drivers/CMSIS/Core/Include/cmsis_gcc.h **** 
 138:Drivers/CMSIS/Core/Include/cmsis_gcc.h **** /**
 139:Drivers/CMSIS/Core/Include/cmsis_gcc.h ****   \brief   No Operation
ARM GAS  /tmp/ccUfYlKQ.s 			page 17


 140:Drivers/CMSIS/Core/Include/cmsis_gcc.h ****   \details No Operation does nothing. This instruction can be used for code alignment purposes.
 141:Drivers/CMSIS/Core/Include/cmsis_gcc.h ****  */
 142:Drivers/CMSIS/Core/Include/cmsis_gcc.h **** #define __NOP()         __ASM volatile ("nop")
 143:Drivers/CMSIS/Core/Include/cmsis_gcc.h **** 
 144:Drivers/CMSIS/Core/Include/cmsis_gcc.h **** 
 145:Drivers/CMSIS/Core/Include/cmsis_gcc.h **** /**
 146:Drivers/CMSIS/Core/Include/cmsis_gcc.h ****   \brief   Wait For Interrupt
 147:Drivers/CMSIS/Core/Include/cmsis_gcc.h ****   \details Wait For Interrupt is a hint instruction that suspends execution until one of a number o
 148:Drivers/CMSIS/Core/Include/cmsis_gcc.h ****  */
 149:Drivers/CMSIS/Core/Include/cmsis_gcc.h **** #define __WFI()         __ASM volatile ("wfi":::"memory")
 150:Drivers/CMSIS/Core/Include/cmsis_gcc.h **** 
 151:Drivers/CMSIS/Core/Include/cmsis_gcc.h **** 
 152:Drivers/CMSIS/Core/Include/cmsis_gcc.h **** /**
 153:Drivers/CMSIS/Core/Include/cmsis_gcc.h ****   \brief   Wait For Event
 154:Drivers/CMSIS/Core/Include/cmsis_gcc.h ****   \details Wait For Event is a hint instruction that permits the processor to enter
 155:Drivers/CMSIS/Core/Include/cmsis_gcc.h ****            a low-power state until one of a number of events occurs.
 156:Drivers/CMSIS/Core/Include/cmsis_gcc.h ****  */
 157:Drivers/CMSIS/Core/Include/cmsis_gcc.h **** #define __WFE()         __ASM volatile ("wfe":::"memory")
 158:Drivers/CMSIS/Core/Include/cmsis_gcc.h **** 
 159:Drivers/CMSIS/Core/Include/cmsis_gcc.h **** 
 160:Drivers/CMSIS/Core/Include/cmsis_gcc.h **** /**
 161:Drivers/CMSIS/Core/Include/cmsis_gcc.h ****   \brief   Send Event
 162:Drivers/CMSIS/Core/Include/cmsis_gcc.h ****   \details Send Event is a hint instruction. It causes an event to be signaled to the CPU.
 163:Drivers/CMSIS/Core/Include/cmsis_gcc.h ****  */
 164:Drivers/CMSIS/Core/Include/cmsis_gcc.h **** #define __SEV()         __ASM volatile ("sev")
 165:Drivers/CMSIS/Core/Include/cmsis_gcc.h **** 
 166:Drivers/CMSIS/Core/Include/cmsis_gcc.h **** 
 167:Drivers/CMSIS/Core/Include/cmsis_gcc.h **** /**
 168:Drivers/CMSIS/Core/Include/cmsis_gcc.h ****   \brief   Instruction Synchronization Barrier
 169:Drivers/CMSIS/Core/Include/cmsis_gcc.h ****   \details Instruction Synchronization Barrier flushes the pipeline in the processor,
 170:Drivers/CMSIS/Core/Include/cmsis_gcc.h ****            so that all instructions following the ISB are fetched from cache or memory,
 171:Drivers/CMSIS/Core/Include/cmsis_gcc.h ****            after the instruction has been completed.
 172:Drivers/CMSIS/Core/Include/cmsis_gcc.h ****  */
 173:Drivers/CMSIS/Core/Include/cmsis_gcc.h **** __STATIC_FORCEINLINE void __ISB(void)
 174:Drivers/CMSIS/Core/Include/cmsis_gcc.h **** {
 175:Drivers/CMSIS/Core/Include/cmsis_gcc.h ****   __ASM volatile ("isb 0xF":::"memory");
 176:Drivers/CMSIS/Core/Include/cmsis_gcc.h **** }
 177:Drivers/CMSIS/Core/Include/cmsis_gcc.h **** 
 178:Drivers/CMSIS/Core/Include/cmsis_gcc.h **** 
 179:Drivers/CMSIS/Core/Include/cmsis_gcc.h **** /**
 180:Drivers/CMSIS/Core/Include/cmsis_gcc.h ****   \brief   Data Synchronization Barrier
 181:Drivers/CMSIS/Core/Include/cmsis_gcc.h ****   \details Acts as a special kind of Data Memory Barrier.
 182:Drivers/CMSIS/Core/Include/cmsis_gcc.h ****            It completes when all explicit memory accesses before this instruction complete.
 183:Drivers/CMSIS/Core/Include/cmsis_gcc.h ****  */
 184:Drivers/CMSIS/Core/Include/cmsis_gcc.h **** __STATIC_FORCEINLINE void __DSB(void)
 185:Drivers/CMSIS/Core/Include/cmsis_gcc.h **** {
 186:Drivers/CMSIS/Core/Include/cmsis_gcc.h ****   __ASM volatile ("dsb 0xF":::"memory");
 187:Drivers/CMSIS/Core/Include/cmsis_gcc.h **** }
 188:Drivers/CMSIS/Core/Include/cmsis_gcc.h **** 
 189:Drivers/CMSIS/Core/Include/cmsis_gcc.h **** 
 190:Drivers/CMSIS/Core/Include/cmsis_gcc.h **** /**
 191:Drivers/CMSIS/Core/Include/cmsis_gcc.h ****   \brief   Data Memory Barrier
 192:Drivers/CMSIS/Core/Include/cmsis_gcc.h ****   \details Ensures the apparent order of the explicit memory operations before
 193:Drivers/CMSIS/Core/Include/cmsis_gcc.h ****            and after the instruction, without ensuring their completion.
 194:Drivers/CMSIS/Core/Include/cmsis_gcc.h ****  */
 195:Drivers/CMSIS/Core/Include/cmsis_gcc.h **** __STATIC_FORCEINLINE void __DMB(void)
 196:Drivers/CMSIS/Core/Include/cmsis_gcc.h **** {
ARM GAS  /tmp/ccUfYlKQ.s 			page 18


 197:Drivers/CMSIS/Core/Include/cmsis_gcc.h ****   __ASM volatile ("dmb 0xF":::"memory");
 198:Drivers/CMSIS/Core/Include/cmsis_gcc.h **** }
 199:Drivers/CMSIS/Core/Include/cmsis_gcc.h **** 
 200:Drivers/CMSIS/Core/Include/cmsis_gcc.h **** 
 201:Drivers/CMSIS/Core/Include/cmsis_gcc.h **** /**
 202:Drivers/CMSIS/Core/Include/cmsis_gcc.h ****   \brief   Reverse byte order (32 bit)
 203:Drivers/CMSIS/Core/Include/cmsis_gcc.h ****   \details Reverses the byte order in unsigned integer value. For example, 0x12345678 becomes 0x785
 204:Drivers/CMSIS/Core/Include/cmsis_gcc.h ****   \param [in]    value  Value to reverse
 205:Drivers/CMSIS/Core/Include/cmsis_gcc.h ****   \return               Reversed value
 206:Drivers/CMSIS/Core/Include/cmsis_gcc.h ****  */
 207:Drivers/CMSIS/Core/Include/cmsis_gcc.h **** __STATIC_FORCEINLINE uint32_t __REV(uint32_t value)
 208:Drivers/CMSIS/Core/Include/cmsis_gcc.h **** {
 209:Drivers/CMSIS/Core/Include/cmsis_gcc.h ****   return __builtin_bswap32(value);
 210:Drivers/CMSIS/Core/Include/cmsis_gcc.h **** }
 211:Drivers/CMSIS/Core/Include/cmsis_gcc.h **** 
 212:Drivers/CMSIS/Core/Include/cmsis_gcc.h **** 
 213:Drivers/CMSIS/Core/Include/cmsis_gcc.h **** /**
 214:Drivers/CMSIS/Core/Include/cmsis_gcc.h ****   \brief   Reverse byte order (16 bit)
 215:Drivers/CMSIS/Core/Include/cmsis_gcc.h ****   \details Reverses the byte order within each halfword of a word. For example, 0x12345678 becomes 
 216:Drivers/CMSIS/Core/Include/cmsis_gcc.h ****   \param [in]    value  Value to reverse
 217:Drivers/CMSIS/Core/Include/cmsis_gcc.h ****   \return               Reversed value
 218:Drivers/CMSIS/Core/Include/cmsis_gcc.h ****  */
 219:Drivers/CMSIS/Core/Include/cmsis_gcc.h **** __STATIC_FORCEINLINE uint32_t __REV16(uint32_t value)
 220:Drivers/CMSIS/Core/Include/cmsis_gcc.h **** {
 221:Drivers/CMSIS/Core/Include/cmsis_gcc.h ****   uint32_t result;
 222:Drivers/CMSIS/Core/Include/cmsis_gcc.h **** 
 223:Drivers/CMSIS/Core/Include/cmsis_gcc.h ****   __ASM ("rev16 %0, %1" : __CMSIS_GCC_OUT_REG (result) : __CMSIS_GCC_USE_REG (value) );
 224:Drivers/CMSIS/Core/Include/cmsis_gcc.h ****   return (result);
 225:Drivers/CMSIS/Core/Include/cmsis_gcc.h **** }
 226:Drivers/CMSIS/Core/Include/cmsis_gcc.h **** 
 227:Drivers/CMSIS/Core/Include/cmsis_gcc.h **** 
 228:Drivers/CMSIS/Core/Include/cmsis_gcc.h **** /**
 229:Drivers/CMSIS/Core/Include/cmsis_gcc.h ****   \brief   Reverse byte order (16 bit)
 230:Drivers/CMSIS/Core/Include/cmsis_gcc.h ****   \details Reverses the byte order in a 16-bit value and returns the signed 16-bit result. For exam
 231:Drivers/CMSIS/Core/Include/cmsis_gcc.h ****   \param [in]    value  Value to reverse
 232:Drivers/CMSIS/Core/Include/cmsis_gcc.h ****   \return               Reversed value
 233:Drivers/CMSIS/Core/Include/cmsis_gcc.h ****  */
 234:Drivers/CMSIS/Core/Include/cmsis_gcc.h **** __STATIC_FORCEINLINE int16_t __REVSH(int16_t value)
 235:Drivers/CMSIS/Core/Include/cmsis_gcc.h **** {
 236:Drivers/CMSIS/Core/Include/cmsis_gcc.h ****   return (int16_t)__builtin_bswap16(value);
 237:Drivers/CMSIS/Core/Include/cmsis_gcc.h **** }
 238:Drivers/CMSIS/Core/Include/cmsis_gcc.h **** 
 239:Drivers/CMSIS/Core/Include/cmsis_gcc.h **** 
 240:Drivers/CMSIS/Core/Include/cmsis_gcc.h **** /**
 241:Drivers/CMSIS/Core/Include/cmsis_gcc.h ****   \brief   Rotate Right in unsigned value (32 bit)
 242:Drivers/CMSIS/Core/Include/cmsis_gcc.h ****   \details Rotate Right (immediate) provides the value of the contents of a register rotated by a v
 243:Drivers/CMSIS/Core/Include/cmsis_gcc.h ****   \param [in]    op1  Value to rotate
 244:Drivers/CMSIS/Core/Include/cmsis_gcc.h ****   \param [in]    op2  Number of Bits to rotate
 245:Drivers/CMSIS/Core/Include/cmsis_gcc.h ****   \return               Rotated value
 246:Drivers/CMSIS/Core/Include/cmsis_gcc.h ****  */
 247:Drivers/CMSIS/Core/Include/cmsis_gcc.h **** __STATIC_FORCEINLINE uint32_t __ROR(uint32_t op1, uint32_t op2)
 248:Drivers/CMSIS/Core/Include/cmsis_gcc.h **** {
 249:Drivers/CMSIS/Core/Include/cmsis_gcc.h ****   op2 %= 32U;
 250:Drivers/CMSIS/Core/Include/cmsis_gcc.h ****   if (op2 == 0U)
 251:Drivers/CMSIS/Core/Include/cmsis_gcc.h ****   {
 252:Drivers/CMSIS/Core/Include/cmsis_gcc.h ****     return op1;
 253:Drivers/CMSIS/Core/Include/cmsis_gcc.h ****   }
ARM GAS  /tmp/ccUfYlKQ.s 			page 19


 254:Drivers/CMSIS/Core/Include/cmsis_gcc.h ****   return (op1 >> op2) | (op1 << (32U - op2));
 255:Drivers/CMSIS/Core/Include/cmsis_gcc.h **** }
 256:Drivers/CMSIS/Core/Include/cmsis_gcc.h **** 
 257:Drivers/CMSIS/Core/Include/cmsis_gcc.h **** 
 258:Drivers/CMSIS/Core/Include/cmsis_gcc.h **** /**
 259:Drivers/CMSIS/Core/Include/cmsis_gcc.h ****   \brief   Breakpoint
 260:Drivers/CMSIS/Core/Include/cmsis_gcc.h ****   \details Causes the processor to enter Debug state.
 261:Drivers/CMSIS/Core/Include/cmsis_gcc.h ****            Debug tools can use this to investigate system state when the instruction at a particula
 262:Drivers/CMSIS/Core/Include/cmsis_gcc.h ****   \param [in]    value  is ignored by the processor.
 263:Drivers/CMSIS/Core/Include/cmsis_gcc.h ****                  If required, a debugger can use it to store additional information about the break
 264:Drivers/CMSIS/Core/Include/cmsis_gcc.h ****  */
 265:Drivers/CMSIS/Core/Include/cmsis_gcc.h **** #define __BKPT(value) __ASM volatile ("bkpt "#value)
 266:Drivers/CMSIS/Core/Include/cmsis_gcc.h **** 
 267:Drivers/CMSIS/Core/Include/cmsis_gcc.h **** 
 268:Drivers/CMSIS/Core/Include/cmsis_gcc.h **** /**
 269:Drivers/CMSIS/Core/Include/cmsis_gcc.h ****   \brief   Reverse bit order of value
 270:Drivers/CMSIS/Core/Include/cmsis_gcc.h ****   \details Reverses the bit order of the given value.
 271:Drivers/CMSIS/Core/Include/cmsis_gcc.h ****   \param [in]    value  Value to reverse
 272:Drivers/CMSIS/Core/Include/cmsis_gcc.h ****   \return               Reversed value
 273:Drivers/CMSIS/Core/Include/cmsis_gcc.h ****  */
 274:Drivers/CMSIS/Core/Include/cmsis_gcc.h **** __STATIC_FORCEINLINE uint32_t __RBIT(uint32_t value)
 342              		.loc 2 274 31 is_stmt 1 view .LVU72
 343              	.LBB19:
 275:Drivers/CMSIS/Core/Include/cmsis_gcc.h **** {
 276:Drivers/CMSIS/Core/Include/cmsis_gcc.h ****   uint32_t result;
 344              		.loc 2 276 3 view .LVU73
 277:Drivers/CMSIS/Core/Include/cmsis_gcc.h **** 
 278:Drivers/CMSIS/Core/Include/cmsis_gcc.h **** #if (__ARM_ARCH_ISA_THUMB >= 2)
 279:Drivers/CMSIS/Core/Include/cmsis_gcc.h ****    __ASM ("rbit %0, %1" : "=r" (result) : "r" (value) );
 345              		.loc 2 279 4 view .LVU74
 346              	.LBE19:
 347              	.LBE18:
 424:Drivers/STM32N6xx_HAL_Driver/Src/stm32n6xx_hal_pwr_ex.c ****   uint32_t pinConfig;
 348              		.loc 1 424 1 is_stmt 0 view .LVU75
 349 0004 10B4     		push	{r4}
 350              		.cfi_def_cfa_offset 4
 351              		.cfi_offset 4, -4
 352              	.LBB21:
 353              	.LBB20:
 354              		.loc 2 279 4 view .LVU76
 355              		.syntax unified
 356              	@ 279 "Drivers/CMSIS/Core/Include/cmsis_gcc.h" 1
 357 0006 92FAA2F3 		rbit r3, r2
 358              	@ 0 "" 2
 359              	.LVL20:
 280:Drivers/CMSIS/Core/Include/cmsis_gcc.h **** #else
 281:Drivers/CMSIS/Core/Include/cmsis_gcc.h ****   uint32_t s = (4U /*sizeof(v)*/ * 8U) - 1U; /* extra shift needed at end */
 282:Drivers/CMSIS/Core/Include/cmsis_gcc.h **** 
 283:Drivers/CMSIS/Core/Include/cmsis_gcc.h ****   result = value;                      /* r will be reversed bits of v; first get LSB of v */
 284:Drivers/CMSIS/Core/Include/cmsis_gcc.h ****   for (value >>= 1U; value != 0U; value >>= 1U)
 285:Drivers/CMSIS/Core/Include/cmsis_gcc.h ****   {
 286:Drivers/CMSIS/Core/Include/cmsis_gcc.h ****     result <<= 1U;
 287:Drivers/CMSIS/Core/Include/cmsis_gcc.h ****     result |= value & 1U;
 288:Drivers/CMSIS/Core/Include/cmsis_gcc.h ****     s--;
 289:Drivers/CMSIS/Core/Include/cmsis_gcc.h ****   }
 290:Drivers/CMSIS/Core/Include/cmsis_gcc.h ****   result <<= s;                        /* shift when v's highest bits are zero */
 291:Drivers/CMSIS/Core/Include/cmsis_gcc.h **** #endif
ARM GAS  /tmp/ccUfYlKQ.s 			page 20


 292:Drivers/CMSIS/Core/Include/cmsis_gcc.h ****   return (result);
 360              		.loc 2 292 3 is_stmt 1 view .LVU77
 361              		.loc 2 292 3 is_stmt 0 view .LVU78
 362              		.thumb
 363              		.syntax unified
 364              	.LBE20:
 365              	.LBE21:
 366              	.LBB22:
 367              	.LBI22:
 293:Drivers/CMSIS/Core/Include/cmsis_gcc.h **** }
 294:Drivers/CMSIS/Core/Include/cmsis_gcc.h **** 
 295:Drivers/CMSIS/Core/Include/cmsis_gcc.h **** 
 296:Drivers/CMSIS/Core/Include/cmsis_gcc.h **** /**
 297:Drivers/CMSIS/Core/Include/cmsis_gcc.h ****   \brief   Count leading zeros
 298:Drivers/CMSIS/Core/Include/cmsis_gcc.h ****   \details Counts the number of leading zeros of a data value.
 299:Drivers/CMSIS/Core/Include/cmsis_gcc.h ****   \param [in]  value  Value to count the leading zeros
 300:Drivers/CMSIS/Core/Include/cmsis_gcc.h ****   \return             number of leading zeros in value
 301:Drivers/CMSIS/Core/Include/cmsis_gcc.h ****  */
 302:Drivers/CMSIS/Core/Include/cmsis_gcc.h **** __STATIC_FORCEINLINE uint8_t __CLZ(uint32_t value)
 368              		.loc 2 302 30 is_stmt 1 view .LVU79
 369              	.LBB23:
 303:Drivers/CMSIS/Core/Include/cmsis_gcc.h **** {
 304:Drivers/CMSIS/Core/Include/cmsis_gcc.h ****   /* Even though __builtin_clz produces a CLZ instruction on ARM, formally
 305:Drivers/CMSIS/Core/Include/cmsis_gcc.h ****      __builtin_clz(0) is undefined behaviour, so handle this case specially.
 306:Drivers/CMSIS/Core/Include/cmsis_gcc.h ****      This guarantees ARM-compatible results if happening to compile on a non-ARM
 307:Drivers/CMSIS/Core/Include/cmsis_gcc.h ****      target, and ensures the compiler doesn't decide to activate any
 308:Drivers/CMSIS/Core/Include/cmsis_gcc.h ****      optimisations using the logic "value was passed to __builtin_clz, so it
 309:Drivers/CMSIS/Core/Include/cmsis_gcc.h ****      is non-zero".
 310:Drivers/CMSIS/Core/Include/cmsis_gcc.h ****      ARM GCC 7.3 and possibly earlier will optimise this test away, leaving a
 311:Drivers/CMSIS/Core/Include/cmsis_gcc.h ****      single CLZ instruction.
 312:Drivers/CMSIS/Core/Include/cmsis_gcc.h ****    */
 313:Drivers/CMSIS/Core/Include/cmsis_gcc.h ****   if (value == 0U)
 370              		.loc 2 313 3 view .LVU80
 371              		.loc 2 313 6 is_stmt 0 view .LVU81
 372 000a 002B     		cmp	r3, #0
 373 000c 3DD0     		beq	.L35
 314:Drivers/CMSIS/Core/Include/cmsis_gcc.h ****   {
 315:Drivers/CMSIS/Core/Include/cmsis_gcc.h ****     return 32U;
 316:Drivers/CMSIS/Core/Include/cmsis_gcc.h ****   }
 317:Drivers/CMSIS/Core/Include/cmsis_gcc.h ****   return __builtin_clz(value);
 374              		.loc 2 317 3 is_stmt 1 view .LVU82
 375              		.loc 2 317 10 is_stmt 0 view .LVU83
 376 000e B3FA83F3 		clz	r3, r3
 377              	.LVL21:
 378              		.loc 2 317 10 view .LVU84
 379              	.LBE23:
 380              	.LBE22:
 381              		.loc 1 435 107 view .LVU85
 382 0012 0833     		adds	r3, r3, #8
 383 0014 03F01F03 		and	r3, r3, #31
 384              	.L31:
 385              		.loc 1 435 40 view .LVU86
 386 0018 01FA03F3 		lsl	r3, r1, r3
 436:Drivers/STM32N6xx_HAL_Driver/Src/stm32n6xx_hal_pwr_ex.c ****               (sPinParams->PinPull << (((POSITION_VAL(sPinParams->WakeUpPin) * PWR_WAKEUP_PINS_PULL
 387              		.loc 1 436 26 view .LVU87
 388 001c 8168     		ldr	r1, [r0, #8]
 389              	.LVL22:
ARM GAS  /tmp/ccUfYlKQ.s 			page 21


 390              	.LBB25:
 391              	.LBI25:
 274:Drivers/CMSIS/Core/Include/cmsis_gcc.h **** {
 392              		.loc 2 274 31 is_stmt 1 view .LVU88
 393              	.LBB26:
 276:Drivers/CMSIS/Core/Include/cmsis_gcc.h **** 
 394              		.loc 2 276 3 view .LVU89
 279:Drivers/CMSIS/Core/Include/cmsis_gcc.h **** #else
 395              		.loc 2 279 4 view .LVU90
 396              	.LBE26:
 397              	.LBE25:
 434:Drivers/STM32N6xx_HAL_Driver/Src/stm32n6xx_hal_pwr_ex.c ****               (sPinParams->PinPolarity << ((POSITION_VAL(sPinParams->WakeUpPin) + PWR_WKUPEPR_WKUPP
 398              		.loc 1 434 37 is_stmt 0 view .LVU91
 399 001e 43EA0200 		orr	r0, r3, r2
 400              	.LVL23:
 401              	.LBB28:
 402              	.LBB27:
 279:Drivers/CMSIS/Core/Include/cmsis_gcc.h **** #else
 403              		.loc 2 279 4 view .LVU92
 404              		.syntax unified
 405              	@ 279 "Drivers/CMSIS/Core/Include/cmsis_gcc.h" 1
 406 0022 92FAA2F3 		rbit r3, r2
 407              	@ 0 "" 2
 408              	.LVL24:
 292:Drivers/CMSIS/Core/Include/cmsis_gcc.h **** }
 409              		.loc 2 292 3 is_stmt 1 view .LVU93
 292:Drivers/CMSIS/Core/Include/cmsis_gcc.h **** }
 410              		.loc 2 292 3 is_stmt 0 view .LVU94
 411              		.thumb
 412              		.syntax unified
 413              	.LBE27:
 414              	.LBE28:
 415              	.LBB29:
 416              	.LBI29:
 302:Drivers/CMSIS/Core/Include/cmsis_gcc.h **** {
 417              		.loc 2 302 30 is_stmt 1 view .LVU95
 418              	.LBB30:
 313:Drivers/CMSIS/Core/Include/cmsis_gcc.h ****   {
 419              		.loc 2 313 3 view .LVU96
 313:Drivers/CMSIS/Core/Include/cmsis_gcc.h ****   {
 420              		.loc 2 313 6 is_stmt 0 view .LVU97
 421 0026 C3B3     		cbz	r3, .L36
 422              		.loc 2 317 3 is_stmt 1 view .LVU98
 423              		.loc 2 317 10 is_stmt 0 view .LVU99
 424 0028 B3FA83F3 		clz	r3, r3
 425              	.LVL25:
 426              		.loc 2 317 10 view .LVU100
 427              	.LBE30:
 428              	.LBE29:
 429              		.loc 1 436 115 view .LVU101
 430 002c 0833     		adds	r3, r3, #8
 431 002e 5B00     		lsls	r3, r3, #1
 437:Drivers/STM32N6xx_HAL_Driver/Src/stm32n6xx_hal_pwr_ex.c ****                                         PWR_WKUPEPR_WKUPPUPD1_Pos) & 0x1FU));
 432              		.loc 1 437 68 view .LVU102
 433 0030 03F01E03 		and	r3, r3, #30
 434              	.L32:
 436:Drivers/STM32N6xx_HAL_Driver/Src/stm32n6xx_hal_pwr_ex.c ****                                         PWR_WKUPEPR_WKUPPUPD1_Pos) & 0x1FU));
ARM GAS  /tmp/ccUfYlKQ.s 			page 22


 435              		.loc 1 436 36 view .LVU103
 436 0034 01FA03F3 		lsl	r3, r1, r3
 434:Drivers/STM32N6xx_HAL_Driver/Src/stm32n6xx_hal_pwr_ex.c ****               (sPinParams->PinPolarity << ((POSITION_VAL(sPinParams->WakeUpPin) + PWR_WKUPEPR_WKUPP
 437              		.loc 1 434 13 view .LVU104
 438 0038 0343     		orrs	r3, r3, r0
 439              	.LVL26:
 438:Drivers/STM32N6xx_HAL_Driver/Src/stm32n6xx_hal_pwr_ex.c **** 
 439:Drivers/STM32N6xx_HAL_Driver/Src/stm32n6xx_hal_pwr_ex.c ****   regMask   = sPinParams->WakeUpPin | \
 440              		.loc 1 439 3 is_stmt 1 view .LVU105
 441              	.LBB32:
 442              	.LBI32:
 274:Drivers/CMSIS/Core/Include/cmsis_gcc.h **** {
 443              		.loc 2 274 31 view .LVU106
 444              	.LBB33:
 276:Drivers/CMSIS/Core/Include/cmsis_gcc.h **** 
 445              		.loc 2 276 3 view .LVU107
 279:Drivers/CMSIS/Core/Include/cmsis_gcc.h **** #else
 446              		.loc 2 279 4 view .LVU108
 447              		.syntax unified
 448              	@ 279 "Drivers/CMSIS/Core/Include/cmsis_gcc.h" 1
 449 003a 92FAA2F0 		rbit r0, r2
 450              	@ 0 "" 2
 451              	.LVL27:
 292:Drivers/CMSIS/Core/Include/cmsis_gcc.h **** }
 452              		.loc 2 292 3 view .LVU109
 292:Drivers/CMSIS/Core/Include/cmsis_gcc.h **** }
 453              		.loc 2 292 3 is_stmt 0 view .LVU110
 454              		.thumb
 455              		.syntax unified
 456              	.LBE33:
 457              	.LBE32:
 458              	.LBB34:
 459              	.LBI34:
 302:Drivers/CMSIS/Core/Include/cmsis_gcc.h **** {
 460              		.loc 2 302 30 is_stmt 1 view .LVU111
 461              	.LBB35:
 313:Drivers/CMSIS/Core/Include/cmsis_gcc.h ****   {
 462              		.loc 2 313 3 view .LVU112
 313:Drivers/CMSIS/Core/Include/cmsis_gcc.h ****   {
 463              		.loc 2 313 6 is_stmt 0 view .LVU113
 464 003e 48B3     		cbz	r0, .L37
 465              		.loc 2 317 3 is_stmt 1 view .LVU114
 466              		.loc 2 317 10 is_stmt 0 view .LVU115
 467 0040 B0FA80F0 		clz	r0, r0
 468              	.LVL28:
 469              		.loc 2 317 10 view .LVU116
 470              	.LBE35:
 471              	.LBE34:
 440:Drivers/STM32N6xx_HAL_Driver/Src/stm32n6xx_hal_pwr_ex.c ****               (PWR_WKUPEPR_WKUPP1 << (POSITION_VAL(sPinParams->WakeUpPin) & 0x1FU)) | \
 472              		.loc 1 440 35 view .LVU117
 473 0044 4FF48071 		mov	r1, #256
 474 0048 8140     		lsls	r1, r1, r0
 475              	.L33:
 439:Drivers/STM32N6xx_HAL_Driver/Src/stm32n6xx_hal_pwr_ex.c ****               (PWR_WKUPEPR_WKUPP1 << (POSITION_VAL(sPinParams->WakeUpPin) & 0x1FU)) | \
 476              		.loc 1 439 37 view .LVU118
 477 004a 1143     		orrs	r1, r1, r2
 478              	.LVL29:
ARM GAS  /tmp/ccUfYlKQ.s 			page 23


 479              	.LBB37:
 480              	.LBI37:
 274:Drivers/CMSIS/Core/Include/cmsis_gcc.h **** {
 481              		.loc 2 274 31 is_stmt 1 view .LVU119
 482              	.LBB38:
 276:Drivers/CMSIS/Core/Include/cmsis_gcc.h **** 
 483              		.loc 2 276 3 view .LVU120
 279:Drivers/CMSIS/Core/Include/cmsis_gcc.h **** #else
 484              		.loc 2 279 4 view .LVU121
 485              		.syntax unified
 486              	@ 279 "Drivers/CMSIS/Core/Include/cmsis_gcc.h" 1
 487 004c 92FAA2F0 		rbit r0, r2
 488              	@ 0 "" 2
 489              	.LVL30:
 292:Drivers/CMSIS/Core/Include/cmsis_gcc.h **** }
 490              		.loc 2 292 3 view .LVU122
 292:Drivers/CMSIS/Core/Include/cmsis_gcc.h **** }
 491              		.loc 2 292 3 is_stmt 0 view .LVU123
 492              		.thumb
 493              		.syntax unified
 494              	.LBE38:
 495              	.LBE37:
 496              	.LBB39:
 497              	.LBI39:
 302:Drivers/CMSIS/Core/Include/cmsis_gcc.h **** {
 498              		.loc 2 302 30 is_stmt 1 view .LVU124
 499              	.LBB40:
 313:Drivers/CMSIS/Core/Include/cmsis_gcc.h ****   {
 500              		.loc 2 313 3 view .LVU125
 313:Drivers/CMSIS/Core/Include/cmsis_gcc.h ****   {
 501              		.loc 2 313 6 is_stmt 0 view .LVU126
 502 0050 E8B1     		cbz	r0, .L38
 503              		.loc 2 317 3 is_stmt 1 view .LVU127
 504              		.loc 2 317 10 is_stmt 0 view .LVU128
 505 0052 B0FA80F0 		clz	r0, r0
 506              	.LVL31:
 507              		.loc 2 317 10 view .LVU129
 508              	.LBE40:
 509              	.LBE39:
 441:Drivers/STM32N6xx_HAL_Driver/Src/stm32n6xx_hal_pwr_ex.c ****               (pullMask << ((POSITION_VAL(sPinParams->WakeUpPin) * PWR_WAKEUP_PINS_PULL_SHIFT_OFFSE
 510              		.loc 1 441 25 view .LVU130
 511 0056 4FF4403C 		mov	ip, #196608
 512              		.loc 1 441 66 view .LVU131
 513 005a 4000     		lsls	r0, r0, #1
 514              		.loc 1 441 103 view .LVU132
 515 005c 00F01E00 		and	r0, r0, #30
 516              		.loc 1 441 25 view .LVU133
 517 0060 0CFA00F0 		lsl	r0, ip, r0
 518              	.L34:
 519              	.LVL32:
 442:Drivers/STM32N6xx_HAL_Driver/Src/stm32n6xx_hal_pwr_ex.c **** 
 443:Drivers/STM32N6xx_HAL_Driver/Src/stm32n6xx_hal_pwr_ex.c ****   /* Enable and Specify the Wake-Up pin polarity and the pull configuration
 444:Drivers/STM32N6xx_HAL_Driver/Src/stm32n6xx_hal_pwr_ex.c ****      for the event detection (rising or falling edge) */
 445:Drivers/STM32N6xx_HAL_Driver/Src/stm32n6xx_hal_pwr_ex.c ****   MODIFY_REG(PWR->WKUPEPR, regMask, pinConfig);
 520              		.loc 1 445 3 is_stmt 1 view .LVU134
 521 0064 0E4C     		ldr	r4, .L40
 439:Drivers/STM32N6xx_HAL_Driver/Src/stm32n6xx_hal_pwr_ex.c ****               (PWR_WKUPEPR_WKUPP1 << (POSITION_VAL(sPinParams->WakeUpPin) & 0x1FU)) | \
ARM GAS  /tmp/ccUfYlKQ.s 			page 24


 522              		.loc 1 439 13 is_stmt 0 view .LVU135
 523 0066 0143     		orrs	r1, r1, r0
 524              	.LVL33:
 525              		.loc 1 445 3 view .LVU136
 526 0068 A06D     		ldr	r0, [r4, #88]
 527 006a 20EA0101 		bic	r1, r0, r1
 528              	.LVL34:
 529              		.loc 1 445 3 view .LVU137
 530 006e 1943     		orrs	r1, r1, r3
 446:Drivers/STM32N6xx_HAL_Driver/Src/stm32n6xx_hal_pwr_ex.c **** 
 447:Drivers/STM32N6xx_HAL_Driver/Src/stm32n6xx_hal_pwr_ex.c ****   /* Configure the Wakeup Pin EXTI Line */
 448:Drivers/STM32N6xx_HAL_Driver/Src/stm32n6xx_hal_pwr_ex.c ****   MODIFY_REG(EXTI->IMR2, PWR_EXTI_WAKEUP_PINS_MASK, (sPinParams->WakeUpPin << EXTI_IMR2_IM60_Pos));
 531              		.loc 1 448 3 view .LVU138
 532 0070 0C48     		ldr	r0, .L40+4
 445:Drivers/STM32N6xx_HAL_Driver/Src/stm32n6xx_hal_pwr_ex.c **** 
 533              		.loc 1 445 3 view .LVU139
 534 0072 A165     		str	r1, [r4, #88]
 535              		.loc 1 448 3 is_stmt 1 view .LVU140
 536 0074 D0F89030 		ldr	r3, [r0, #144]
 537              	.LVL35:
 449:Drivers/STM32N6xx_HAL_Driver/Src/stm32n6xx_hal_pwr_ex.c **** }
 538              		.loc 1 449 1 is_stmt 0 view .LVU141
 539 0078 5DF8044B 		ldr	r4, [sp], #4
 540              		.cfi_remember_state
 541              		.cfi_restore 4
 542              		.cfi_def_cfa_offset 0
 448:Drivers/STM32N6xx_HAL_Driver/Src/stm32n6xx_hal_pwr_ex.c **** }
 543              		.loc 1 448 3 view .LVU142
 544 007c 23F07043 		bic	r3, r3, #-268435456
 545 0080 43EA0272 		orr	r2, r3, r2, lsl #28
 546 0084 C0F89020 		str	r2, [r0, #144]
 547              		.loc 1 449 1 view .LVU143
 548 0088 7047     		bx	lr
 549              	.LVL36:
 550              	.L35:
 551              		.cfi_restore_state
 552              	.LBB42:
 553              	.LBB24:
 554              		.loc 1 449 1 view .LVU144
 555 008a 0823     		movs	r3, #8
 556              	.LVL37:
 557              		.loc 1 449 1 view .LVU145
 558 008c C4E7     		b	.L31
 559              	.LVL38:
 560              	.L38:
 561              		.loc 1 449 1 view .LVU146
 562              	.LBE24:
 563              	.LBE42:
 564              	.LBB43:
 565              	.LBB41:
 566 008e 4FF44030 		mov	r0, #196608
 567              	.LVL39:
 568              		.loc 1 449 1 view .LVU147
 569 0092 E7E7     		b	.L34
 570              	.LVL40:
 571              	.L37:
 572              		.loc 1 449 1 view .LVU148
ARM GAS  /tmp/ccUfYlKQ.s 			page 25


 573              	.LBE41:
 574              	.LBE43:
 575              	.LBB44:
 576              	.LBB36:
 577 0094 4FF48071 		mov	r1, #256
 578 0098 D7E7     		b	.L33
 579              	.LVL41:
 580              	.L36:
 581              		.loc 1 449 1 view .LVU149
 582              	.LBE36:
 583              	.LBE44:
 584              	.LBB45:
 585              	.LBB31:
 586 009a 1023     		movs	r3, #16
 587              	.LVL42:
 588              		.loc 1 449 1 view .LVU150
 589 009c CAE7     		b	.L32
 590              	.L41:
 591 009e 00BF     		.align	2
 592              	.L40:
 593 00a0 00480246 		.word	1174554624
 594 00a4 00500246 		.word	1174556672
 595              	.LBE31:
 596              	.LBE45:
 597              		.cfi_endproc
 598              	.LFE814:
 600              		.section	.text.HAL_PWREx_EnableBkupRAMRetention,"ax",%progbits
 601              		.align	1
 602              		.p2align 2,,3
 603              		.global	HAL_PWREx_EnableBkupRAMRetention
 604              		.syntax unified
 605              		.thumb
 606              		.thumb_func
 607              		.fpu fpv5-d16
 609              	HAL_PWREx_EnableBkupRAMRetention:
 610              	.LFB815:
 450:Drivers/STM32N6xx_HAL_Driver/Src/stm32n6xx_hal_pwr_ex.c **** /**
 451:Drivers/STM32N6xx_HAL_Driver/Src/stm32n6xx_hal_pwr_ex.c ****   * @}
 452:Drivers/STM32N6xx_HAL_Driver/Src/stm32n6xx_hal_pwr_ex.c ****   */
 453:Drivers/STM32N6xx_HAL_Driver/Src/stm32n6xx_hal_pwr_ex.c **** 
 454:Drivers/STM32N6xx_HAL_Driver/Src/stm32n6xx_hal_pwr_ex.c **** 
 455:Drivers/STM32N6xx_HAL_Driver/Src/stm32n6xx_hal_pwr_ex.c **** /** @defgroup PWREx_Exported_Functions_Group3 Memories Retention Functions
 456:Drivers/STM32N6xx_HAL_Driver/Src/stm32n6xx_hal_pwr_ex.c ****   * @brief    Memories Retention Functions
 457:Drivers/STM32N6xx_HAL_Driver/Src/stm32n6xx_hal_pwr_ex.c ****   *
 458:Drivers/STM32N6xx_HAL_Driver/Src/stm32n6xx_hal_pwr_ex.c **** @verbatim
 459:Drivers/STM32N6xx_HAL_Driver/Src/stm32n6xx_hal_pwr_ex.c ****  ===============================================================================
 460:Drivers/STM32N6xx_HAL_Driver/Src/stm32n6xx_hal_pwr_ex.c ****                      ##### Memories Retention Functions #####
 461:Drivers/STM32N6xx_HAL_Driver/Src/stm32n6xx_hal_pwr_ex.c ****  ===============================================================================
 462:Drivers/STM32N6xx_HAL_Driver/Src/stm32n6xx_hal_pwr_ex.c ****     [..]
 463:Drivers/STM32N6xx_HAL_Driver/Src/stm32n6xx_hal_pwr_ex.c **** 
 464:Drivers/STM32N6xx_HAL_Driver/Src/stm32n6xx_hal_pwr_ex.c ****     *** Backup RAM (BKPSRAM) retention ****
 465:Drivers/STM32N6xx_HAL_Driver/Src/stm32n6xx_hal_pwr_ex.c ****     =======================================
 466:Drivers/STM32N6xx_HAL_Driver/Src/stm32n6xx_hal_pwr_ex.c ****     [..]
 467:Drivers/STM32N6xx_HAL_Driver/Src/stm32n6xx_hal_pwr_ex.c ****       By default the content of BKPSRAM memories aren't retained in Standby mode.
 468:Drivers/STM32N6xx_HAL_Driver/Src/stm32n6xx_hal_pwr_ex.c ****       By setting the BKPRBSEN bit in the PWR_BDCR2 register using the
 469:Drivers/STM32N6xx_HAL_Driver/Src/stm32n6xx_hal_pwr_ex.c ****       HAL_PWREx_EnableBkupRAMRetention() function, the content of these memories
 470:Drivers/STM32N6xx_HAL_Driver/Src/stm32n6xx_hal_pwr_ex.c ****       are retained even in Standby mode.
ARM GAS  /tmp/ccUfYlKQ.s 			page 26


 471:Drivers/STM32N6xx_HAL_Driver/Src/stm32n6xx_hal_pwr_ex.c **** 
 472:Drivers/STM32N6xx_HAL_Driver/Src/stm32n6xx_hal_pwr_ex.c ****     *** TCM RAMs and I-TCM FLEXMEM retention ****
 473:Drivers/STM32N6xx_HAL_Driver/Src/stm32n6xx_hal_pwr_ex.c ****     =======================================
 474:Drivers/STM32N6xx_HAL_Driver/Src/stm32n6xx_hal_pwr_ex.c ****     [..]
 475:Drivers/STM32N6xx_HAL_Driver/Src/stm32n6xx_hal_pwr_ex.c ****       By default the content of TCM RAMs and I-TCM FLEXMEM aren't retained in
 476:Drivers/STM32N6xx_HAL_Driver/Src/stm32n6xx_hal_pwr_ex.c ****       Standby mode.
 477:Drivers/STM32N6xx_HAL_Driver/Src/stm32n6xx_hal_pwr_ex.c **** 
 478:Drivers/STM32N6xx_HAL_Driver/Src/stm32n6xx_hal_pwr_ex.c ****       By setting the TCMRBSEN bit in the PWR_CR4 register using the
 479:Drivers/STM32N6xx_HAL_Driver/Src/stm32n6xx_hal_pwr_ex.c ****       HAL_PWREx_EnableTCMRetention() function, the content of these memories
 480:Drivers/STM32N6xx_HAL_Driver/Src/stm32n6xx_hal_pwr_ex.c ****       are retained even in Standby mode.
 481:Drivers/STM32N6xx_HAL_Driver/Src/stm32n6xx_hal_pwr_ex.c **** 
 482:Drivers/STM32N6xx_HAL_Driver/Src/stm32n6xx_hal_pwr_ex.c ****       By setting the TCMFLXRBSEN bit in the PWR_CR4 register using the
 483:Drivers/STM32N6xx_HAL_Driver/Src/stm32n6xx_hal_pwr_ex.c ****       HAL_PWREx_EnableTCMFLXRetention () function, the content of these memories
 484:Drivers/STM32N6xx_HAL_Driver/Src/stm32n6xx_hal_pwr_ex.c ****       are retained even in Standby mode.
 485:Drivers/STM32N6xx_HAL_Driver/Src/stm32n6xx_hal_pwr_ex.c **** 
 486:Drivers/STM32N6xx_HAL_Driver/Src/stm32n6xx_hal_pwr_ex.c **** @endverbatim
 487:Drivers/STM32N6xx_HAL_Driver/Src/stm32n6xx_hal_pwr_ex.c ****   * @{
 488:Drivers/STM32N6xx_HAL_Driver/Src/stm32n6xx_hal_pwr_ex.c ****   */
 489:Drivers/STM32N6xx_HAL_Driver/Src/stm32n6xx_hal_pwr_ex.c **** 
 490:Drivers/STM32N6xx_HAL_Driver/Src/stm32n6xx_hal_pwr_ex.c **** /**
 491:Drivers/STM32N6xx_HAL_Driver/Src/stm32n6xx_hal_pwr_ex.c ****   * @brief  Enable the Backup RAM retention in Standby and VBAT modes.
 492:Drivers/STM32N6xx_HAL_Driver/Src/stm32n6xx_hal_pwr_ex.c ****   * @note  After reset, PWR_BDCR2 is write-protected.
 493:Drivers/STM32N6xx_HAL_Driver/Src/stm32n6xx_hal_pwr_ex.c ****   *        DBP must be set in PWR_DBPCR to disable the write protection.
 494:Drivers/STM32N6xx_HAL_Driver/Src/stm32n6xx_hal_pwr_ex.c ****   * @retval None.
 495:Drivers/STM32N6xx_HAL_Driver/Src/stm32n6xx_hal_pwr_ex.c ****   */
 496:Drivers/STM32N6xx_HAL_Driver/Src/stm32n6xx_hal_pwr_ex.c **** void HAL_PWREx_EnableBkupRAMRetention(void)
 497:Drivers/STM32N6xx_HAL_Driver/Src/stm32n6xx_hal_pwr_ex.c **** {
 611              		.loc 1 497 1 is_stmt 1 view -0
 612              		.cfi_startproc
 613              		@ args = 0, pretend = 0, frame = 0
 614              		@ frame_needed = 0, uses_anonymous_args = 0
 615              		@ link register save eliminated.
 498:Drivers/STM32N6xx_HAL_Driver/Src/stm32n6xx_hal_pwr_ex.c ****   SET_BIT(PWR->BDCR2, PWR_BDCR2_BKPRBSEN);
 616              		.loc 1 498 3 view .LVU152
 617 0000 024A     		ldr	r2, .L43
 618 0002 936A     		ldr	r3, [r2, #40]
 619 0004 43F00103 		orr	r3, r3, #1
 620 0008 9362     		str	r3, [r2, #40]
 499:Drivers/STM32N6xx_HAL_Driver/Src/stm32n6xx_hal_pwr_ex.c **** }
 621              		.loc 1 499 1 is_stmt 0 view .LVU153
 622 000a 7047     		bx	lr
 623              	.L44:
 624              		.align	2
 625              	.L43:
 626 000c 00480246 		.word	1174554624
 627              		.cfi_endproc
 628              	.LFE815:
 630              		.section	.text.HAL_PWREx_DisableBkupRAMRetention,"ax",%progbits
 631              		.align	1
 632              		.p2align 2,,3
 633              		.global	HAL_PWREx_DisableBkupRAMRetention
 634              		.syntax unified
 635              		.thumb
 636              		.thumb_func
 637              		.fpu fpv5-d16
 639              	HAL_PWREx_DisableBkupRAMRetention:
 640              	.LFB816:
ARM GAS  /tmp/ccUfYlKQ.s 			page 27


 500:Drivers/STM32N6xx_HAL_Driver/Src/stm32n6xx_hal_pwr_ex.c **** 
 501:Drivers/STM32N6xx_HAL_Driver/Src/stm32n6xx_hal_pwr_ex.c **** /**
 502:Drivers/STM32N6xx_HAL_Driver/Src/stm32n6xx_hal_pwr_ex.c ****   * @brief  Disable the Backup RAM retention in Standby and VBAT modes.
 503:Drivers/STM32N6xx_HAL_Driver/Src/stm32n6xx_hal_pwr_ex.c ****   * @note  After reset, PWR_BDCR2 is write-protected.
 504:Drivers/STM32N6xx_HAL_Driver/Src/stm32n6xx_hal_pwr_ex.c ****   *        DBP must be set in PWR_DBPCR to disable the write protection.
 505:Drivers/STM32N6xx_HAL_Driver/Src/stm32n6xx_hal_pwr_ex.c ****   * @retval None.
 506:Drivers/STM32N6xx_HAL_Driver/Src/stm32n6xx_hal_pwr_ex.c ****   */
 507:Drivers/STM32N6xx_HAL_Driver/Src/stm32n6xx_hal_pwr_ex.c **** void HAL_PWREx_DisableBkupRAMRetention(void)
 508:Drivers/STM32N6xx_HAL_Driver/Src/stm32n6xx_hal_pwr_ex.c **** {
 641              		.loc 1 508 1 is_stmt 1 view -0
 642              		.cfi_startproc
 643              		@ args = 0, pretend = 0, frame = 0
 644              		@ frame_needed = 0, uses_anonymous_args = 0
 645              		@ link register save eliminated.
 509:Drivers/STM32N6xx_HAL_Driver/Src/stm32n6xx_hal_pwr_ex.c ****   CLEAR_BIT(PWR->BDCR2, PWR_BDCR2_BKPRBSEN);
 646              		.loc 1 509 3 view .LVU155
 647 0000 024A     		ldr	r2, .L46
 648 0002 936A     		ldr	r3, [r2, #40]
 649 0004 23F00103 		bic	r3, r3, #1
 650 0008 9362     		str	r3, [r2, #40]
 510:Drivers/STM32N6xx_HAL_Driver/Src/stm32n6xx_hal_pwr_ex.c **** }
 651              		.loc 1 510 1 is_stmt 0 view .LVU156
 652 000a 7047     		bx	lr
 653              	.L47:
 654              		.align	2
 655              	.L46:
 656 000c 00480246 		.word	1174554624
 657              		.cfi_endproc
 658              	.LFE816:
 660              		.section	.text.HAL_PWREx_EnableTCMRetention,"ax",%progbits
 661              		.align	1
 662              		.p2align 2,,3
 663              		.global	HAL_PWREx_EnableTCMRetention
 664              		.syntax unified
 665              		.thumb
 666              		.thumb_func
 667              		.fpu fpv5-d16
 669              	HAL_PWREx_EnableTCMRetention:
 670              	.LFB817:
 511:Drivers/STM32N6xx_HAL_Driver/Src/stm32n6xx_hal_pwr_ex.c **** 
 512:Drivers/STM32N6xx_HAL_Driver/Src/stm32n6xx_hal_pwr_ex.c **** /**
 513:Drivers/STM32N6xx_HAL_Driver/Src/stm32n6xx_hal_pwr_ex.c ****   * @brief Enable the TCM RAMs retention in Standby mode.
 514:Drivers/STM32N6xx_HAL_Driver/Src/stm32n6xx_hal_pwr_ex.c ****   * @retval None.
 515:Drivers/STM32N6xx_HAL_Driver/Src/stm32n6xx_hal_pwr_ex.c ****   */
 516:Drivers/STM32N6xx_HAL_Driver/Src/stm32n6xx_hal_pwr_ex.c **** void HAL_PWREx_EnableTCMRetention(void)
 517:Drivers/STM32N6xx_HAL_Driver/Src/stm32n6xx_hal_pwr_ex.c **** {
 671              		.loc 1 517 1 is_stmt 1 view -0
 672              		.cfi_startproc
 673              		@ args = 0, pretend = 0, frame = 0
 674              		@ frame_needed = 0, uses_anonymous_args = 0
 675              		@ link register save eliminated.
 518:Drivers/STM32N6xx_HAL_Driver/Src/stm32n6xx_hal_pwr_ex.c ****   SET_BIT(PWR->CR4, PWR_CR4_TCMRBSEN);
 676              		.loc 1 518 3 view .LVU158
 677 0000 024A     		ldr	r2, .L49
 678 0002 D368     		ldr	r3, [r2, #12]
 679 0004 43F00103 		orr	r3, r3, #1
 680 0008 D360     		str	r3, [r2, #12]
ARM GAS  /tmp/ccUfYlKQ.s 			page 28


 519:Drivers/STM32N6xx_HAL_Driver/Src/stm32n6xx_hal_pwr_ex.c **** }
 681              		.loc 1 519 1 is_stmt 0 view .LVU159
 682 000a 7047     		bx	lr
 683              	.L50:
 684              		.align	2
 685              	.L49:
 686 000c 00480246 		.word	1174554624
 687              		.cfi_endproc
 688              	.LFE817:
 690              		.section	.text.HAL_PWREx_DisableTCMRetention,"ax",%progbits
 691              		.align	1
 692              		.p2align 2,,3
 693              		.global	HAL_PWREx_DisableTCMRetention
 694              		.syntax unified
 695              		.thumb
 696              		.thumb_func
 697              		.fpu fpv5-d16
 699              	HAL_PWREx_DisableTCMRetention:
 700              	.LFB818:
 520:Drivers/STM32N6xx_HAL_Driver/Src/stm32n6xx_hal_pwr_ex.c **** 
 521:Drivers/STM32N6xx_HAL_Driver/Src/stm32n6xx_hal_pwr_ex.c **** /**
 522:Drivers/STM32N6xx_HAL_Driver/Src/stm32n6xx_hal_pwr_ex.c ****   * @brief Disable the TCM RAMs retention in Standby mode.
 523:Drivers/STM32N6xx_HAL_Driver/Src/stm32n6xx_hal_pwr_ex.c ****   * @retval None.
 524:Drivers/STM32N6xx_HAL_Driver/Src/stm32n6xx_hal_pwr_ex.c ****   */
 525:Drivers/STM32N6xx_HAL_Driver/Src/stm32n6xx_hal_pwr_ex.c **** void HAL_PWREx_DisableTCMRetention(void)
 526:Drivers/STM32N6xx_HAL_Driver/Src/stm32n6xx_hal_pwr_ex.c **** {
 701              		.loc 1 526 1 is_stmt 1 view -0
 702              		.cfi_startproc
 703              		@ args = 0, pretend = 0, frame = 0
 704              		@ frame_needed = 0, uses_anonymous_args = 0
 705              		@ link register save eliminated.
 527:Drivers/STM32N6xx_HAL_Driver/Src/stm32n6xx_hal_pwr_ex.c ****   CLEAR_BIT(PWR->CR4, PWR_CR4_TCMRBSEN);
 706              		.loc 1 527 3 view .LVU161
 707 0000 024A     		ldr	r2, .L52
 708 0002 D368     		ldr	r3, [r2, #12]
 709 0004 23F00103 		bic	r3, r3, #1
 710 0008 D360     		str	r3, [r2, #12]
 528:Drivers/STM32N6xx_HAL_Driver/Src/stm32n6xx_hal_pwr_ex.c **** }
 711              		.loc 1 528 1 is_stmt 0 view .LVU162
 712 000a 7047     		bx	lr
 713              	.L53:
 714              		.align	2
 715              	.L52:
 716 000c 00480246 		.word	1174554624
 717              		.cfi_endproc
 718              	.LFE818:
 720              		.section	.text.HAL_PWREx_EnableTCMFLXRetention,"ax",%progbits
 721              		.align	1
 722              		.p2align 2,,3
 723              		.global	HAL_PWREx_EnableTCMFLXRetention
 724              		.syntax unified
 725              		.thumb
 726              		.thumb_func
 727              		.fpu fpv5-d16
 729              	HAL_PWREx_EnableTCMFLXRetention:
 730              	.LFB819:
 529:Drivers/STM32N6xx_HAL_Driver/Src/stm32n6xx_hal_pwr_ex.c **** 
ARM GAS  /tmp/ccUfYlKQ.s 			page 29


 530:Drivers/STM32N6xx_HAL_Driver/Src/stm32n6xx_hal_pwr_ex.c **** /**
 531:Drivers/STM32N6xx_HAL_Driver/Src/stm32n6xx_hal_pwr_ex.c ****   * @brief Enable the I-TCM FLEXMEM retention in Standby mode.
 532:Drivers/STM32N6xx_HAL_Driver/Src/stm32n6xx_hal_pwr_ex.c ****   * @retval None.
 533:Drivers/STM32N6xx_HAL_Driver/Src/stm32n6xx_hal_pwr_ex.c ****   */
 534:Drivers/STM32N6xx_HAL_Driver/Src/stm32n6xx_hal_pwr_ex.c **** void HAL_PWREx_EnableTCMFLXRetention(void)
 535:Drivers/STM32N6xx_HAL_Driver/Src/stm32n6xx_hal_pwr_ex.c **** {
 731              		.loc 1 535 1 is_stmt 1 view -0
 732              		.cfi_startproc
 733              		@ args = 0, pretend = 0, frame = 0
 734              		@ frame_needed = 0, uses_anonymous_args = 0
 735              		@ link register save eliminated.
 536:Drivers/STM32N6xx_HAL_Driver/Src/stm32n6xx_hal_pwr_ex.c ****   SET_BIT(PWR->CR4, PWR_CR4_TCMFLXRBSEN);
 736              		.loc 1 536 3 view .LVU164
 737 0000 024A     		ldr	r2, .L55
 738 0002 D368     		ldr	r3, [r2, #12]
 739 0004 43F01003 		orr	r3, r3, #16
 740 0008 D360     		str	r3, [r2, #12]
 537:Drivers/STM32N6xx_HAL_Driver/Src/stm32n6xx_hal_pwr_ex.c **** }
 741              		.loc 1 537 1 is_stmt 0 view .LVU165
 742 000a 7047     		bx	lr
 743              	.L56:
 744              		.align	2
 745              	.L55:
 746 000c 00480246 		.word	1174554624
 747              		.cfi_endproc
 748              	.LFE819:
 750              		.section	.text.HAL_PWREx_DisableTCMFLXRetention,"ax",%progbits
 751              		.align	1
 752              		.p2align 2,,3
 753              		.global	HAL_PWREx_DisableTCMFLXRetention
 754              		.syntax unified
 755              		.thumb
 756              		.thumb_func
 757              		.fpu fpv5-d16
 759              	HAL_PWREx_DisableTCMFLXRetention:
 760              	.LFB820:
 538:Drivers/STM32N6xx_HAL_Driver/Src/stm32n6xx_hal_pwr_ex.c **** 
 539:Drivers/STM32N6xx_HAL_Driver/Src/stm32n6xx_hal_pwr_ex.c **** /**
 540:Drivers/STM32N6xx_HAL_Driver/Src/stm32n6xx_hal_pwr_ex.c ****   * @brief Disable the I-TCM FLEXMEM retention in Standby mode.
 541:Drivers/STM32N6xx_HAL_Driver/Src/stm32n6xx_hal_pwr_ex.c ****   * @retval None.
 542:Drivers/STM32N6xx_HAL_Driver/Src/stm32n6xx_hal_pwr_ex.c ****   */
 543:Drivers/STM32N6xx_HAL_Driver/Src/stm32n6xx_hal_pwr_ex.c **** void HAL_PWREx_DisableTCMFLXRetention(void)
 544:Drivers/STM32N6xx_HAL_Driver/Src/stm32n6xx_hal_pwr_ex.c **** {
 761              		.loc 1 544 1 is_stmt 1 view -0
 762              		.cfi_startproc
 763              		@ args = 0, pretend = 0, frame = 0
 764              		@ frame_needed = 0, uses_anonymous_args = 0
 765              		@ link register save eliminated.
 545:Drivers/STM32N6xx_HAL_Driver/Src/stm32n6xx_hal_pwr_ex.c ****   CLEAR_BIT(PWR->CR4, PWR_CR4_TCMFLXRBSEN);
 766              		.loc 1 545 3 view .LVU167
 767 0000 024A     		ldr	r2, .L58
 768 0002 D368     		ldr	r3, [r2, #12]
 769 0004 23F01003 		bic	r3, r3, #16
 770 0008 D360     		str	r3, [r2, #12]
 546:Drivers/STM32N6xx_HAL_Driver/Src/stm32n6xx_hal_pwr_ex.c **** }
 771              		.loc 1 546 1 is_stmt 0 view .LVU168
 772 000a 7047     		bx	lr
ARM GAS  /tmp/ccUfYlKQ.s 			page 30


 773              	.L59:
 774              		.align	2
 775              	.L58:
 776 000c 00480246 		.word	1174554624
 777              		.cfi_endproc
 778              	.LFE820:
 780              		.section	.text.HAL_PWREx_SetPulseLow,"ax",%progbits
 781              		.align	1
 782              		.p2align 2,,3
 783              		.global	HAL_PWREx_SetPulseLow
 784              		.syntax unified
 785              		.thumb
 786              		.thumb_func
 787              		.fpu fpv5-d16
 789              	HAL_PWREx_SetPulseLow:
 790              	.LVL43:
 791              	.LFB821:
 547:Drivers/STM32N6xx_HAL_Driver/Src/stm32n6xx_hal_pwr_ex.c **** /**
 548:Drivers/STM32N6xx_HAL_Driver/Src/stm32n6xx_hal_pwr_ex.c ****   * @}
 549:Drivers/STM32N6xx_HAL_Driver/Src/stm32n6xx_hal_pwr_ex.c ****   */
 550:Drivers/STM32N6xx_HAL_Driver/Src/stm32n6xx_hal_pwr_ex.c **** 
 551:Drivers/STM32N6xx_HAL_Driver/Src/stm32n6xx_hal_pwr_ex.c **** 
 552:Drivers/STM32N6xx_HAL_Driver/Src/stm32n6xx_hal_pwr_ex.c **** /** @defgroup PWREx_Exported_Functions_Group4 Low Power Control Functions
 553:Drivers/STM32N6xx_HAL_Driver/Src/stm32n6xx_hal_pwr_ex.c ****   * @brief    Low Power Control Functions
 554:Drivers/STM32N6xx_HAL_Driver/Src/stm32n6xx_hal_pwr_ex.c ****   *
 555:Drivers/STM32N6xx_HAL_Driver/Src/stm32n6xx_hal_pwr_ex.c **** @verbatim
 556:Drivers/STM32N6xx_HAL_Driver/Src/stm32n6xx_hal_pwr_ex.c ****  ===============================================================================
 557:Drivers/STM32N6xx_HAL_Driver/Src/stm32n6xx_hal_pwr_ex.c ****                      ##### Low Power Control Functions #####
 558:Drivers/STM32N6xx_HAL_Driver/Src/stm32n6xx_hal_pwr_ex.c ****  ===============================================================================
 559:Drivers/STM32N6xx_HAL_Driver/Src/stm32n6xx_hal_pwr_ex.c ****     [..]
 560:Drivers/STM32N6xx_HAL_Driver/Src/stm32n6xx_hal_pwr_ex.c **** @endverbatim
 561:Drivers/STM32N6xx_HAL_Driver/Src/stm32n6xx_hal_pwr_ex.c ****   * @{
 562:Drivers/STM32N6xx_HAL_Driver/Src/stm32n6xx_hal_pwr_ex.c ****   */
 563:Drivers/STM32N6xx_HAL_Driver/Src/stm32n6xx_hal_pwr_ex.c **** 
 564:Drivers/STM32N6xx_HAL_Driver/Src/stm32n6xx_hal_pwr_ex.c **** /**
 565:Drivers/STM32N6xx_HAL_Driver/Src/stm32n6xx_hal_pwr_ex.c ****   * @brief Configure the pwr_on pulse low configuration.
 566:Drivers/STM32N6xx_HAL_Driver/Src/stm32n6xx_hal_pwr_ex.c ****   * @param  Pulselowtime : Specifies minimum guaranteed duration of
 567:Drivers/STM32N6xx_HAL_Driver/Src/stm32n6xx_hal_pwr_ex.c ****                            the pwr_on low pulse in Standby mode.
 568:Drivers/STM32N6xx_HAL_Driver/Src/stm32n6xx_hal_pwr_ex.c ****   *          This parameter can be a value between 0 and 31:
 569:Drivers/STM32N6xx_HAL_Driver/Src/stm32n6xx_hal_pwr_ex.c ****   *            0: No guaranteed minimum low time.
 570:Drivers/STM32N6xx_HAL_Driver/Src/stm32n6xx_hal_pwr_ex.c ****   *            1: 1* 32 LSI cycles= ~ 1 ms guaranteed minimum low time.
 571:Drivers/STM32N6xx_HAL_Driver/Src/stm32n6xx_hal_pwr_ex.c ****   *            X: X* 32 LSI cycles= ~ X ms guaranteed minimum low time.
 572:Drivers/STM32N6xx_HAL_Driver/Src/stm32n6xx_hal_pwr_ex.c ****   * @retval None.
 573:Drivers/STM32N6xx_HAL_Driver/Src/stm32n6xx_hal_pwr_ex.c ****   */
 574:Drivers/STM32N6xx_HAL_Driver/Src/stm32n6xx_hal_pwr_ex.c **** void HAL_PWREx_SetPulseLow(uint32_t Pulselowtime)
 575:Drivers/STM32N6xx_HAL_Driver/Src/stm32n6xx_hal_pwr_ex.c **** {
 792              		.loc 1 575 1 is_stmt 1 view -0
 793              		.cfi_startproc
 794              		@ args = 0, pretend = 0, frame = 0
 795              		@ frame_needed = 0, uses_anonymous_args = 0
 796              		@ link register save eliminated.
 576:Drivers/STM32N6xx_HAL_Driver/Src/stm32n6xx_hal_pwr_ex.c ****   assert_param(IS_PWR_PULSE_LOW_TIME(Pulselowtime));
 797              		.loc 1 576 3 view .LVU170
 577:Drivers/STM32N6xx_HAL_Driver/Src/stm32n6xx_hal_pwr_ex.c **** 
 578:Drivers/STM32N6xx_HAL_Driver/Src/stm32n6xx_hal_pwr_ex.c ****   /* Set the pwr_on pulse low configuration */
 579:Drivers/STM32N6xx_HAL_Driver/Src/stm32n6xx_hal_pwr_ex.c ****   MODIFY_REG(PWR->CR1, PWR_CR1_POPL_Msk, (Pulselowtime << PWR_CR1_POPL_Pos));
 798              		.loc 1 579 3 view .LVU171
ARM GAS  /tmp/ccUfYlKQ.s 			page 31


 799 0000 034A     		ldr	r2, .L61
 800 0002 1368     		ldr	r3, [r2]
 801 0004 23F4F813 		bic	r3, r3, #2031616
 802 0008 43EA0040 		orr	r0, r3, r0, lsl #16
 803              	.LVL44:
 804              		.loc 1 579 3 is_stmt 0 view .LVU172
 805 000c 1060     		str	r0, [r2]
 580:Drivers/STM32N6xx_HAL_Driver/Src/stm32n6xx_hal_pwr_ex.c **** }
 806              		.loc 1 580 1 view .LVU173
 807 000e 7047     		bx	lr
 808              	.L62:
 809              		.align	2
 810              	.L61:
 811 0010 00480246 		.word	1174554624
 812              		.cfi_endproc
 813              	.LFE821:
 815              		.section	.text.HAL_PWREx_GetPulseLow,"ax",%progbits
 816              		.align	1
 817              		.p2align 2,,3
 818              		.global	HAL_PWREx_GetPulseLow
 819              		.syntax unified
 820              		.thumb
 821              		.thumb_func
 822              		.fpu fpv5-d16
 824              	HAL_PWREx_GetPulseLow:
 825              	.LFB822:
 581:Drivers/STM32N6xx_HAL_Driver/Src/stm32n6xx_hal_pwr_ex.c **** 
 582:Drivers/STM32N6xx_HAL_Driver/Src/stm32n6xx_hal_pwr_ex.c **** /**
 583:Drivers/STM32N6xx_HAL_Driver/Src/stm32n6xx_hal_pwr_ex.c ****   * @brief Get the pwr_on pulse low configuration.
 584:Drivers/STM32N6xx_HAL_Driver/Src/stm32n6xx_hal_pwr_ex.c ****   * @retval The actual applied minimum guaranteed duration of the
 585:Drivers/STM32N6xx_HAL_Driver/Src/stm32n6xx_hal_pwr_ex.c ****   *         pwr_on low pulse in Standby mode.
 586:Drivers/STM32N6xx_HAL_Driver/Src/stm32n6xx_hal_pwr_ex.c ****   */
 587:Drivers/STM32N6xx_HAL_Driver/Src/stm32n6xx_hal_pwr_ex.c **** uint32_t HAL_PWREx_GetPulseLow(void)
 588:Drivers/STM32N6xx_HAL_Driver/Src/stm32n6xx_hal_pwr_ex.c **** {
 826              		.loc 1 588 1 is_stmt 1 view -0
 827              		.cfi_startproc
 828              		@ args = 0, pretend = 0, frame = 0
 829              		@ frame_needed = 0, uses_anonymous_args = 0
 830              		@ link register save eliminated.
 589:Drivers/STM32N6xx_HAL_Driver/Src/stm32n6xx_hal_pwr_ex.c ****   /* Return the stop voltage scaling */
 590:Drivers/STM32N6xx_HAL_Driver/Src/stm32n6xx_hal_pwr_ex.c ****   return ((PWR->CR1 & PWR_CR1_POPL_Msk) >> PWR_CR1_POPL_Pos);
 831              		.loc 1 590 3 view .LVU175
 832              		.loc 1 590 15 is_stmt 0 view .LVU176
 833 0000 024B     		ldr	r3, .L64
 834 0002 1868     		ldr	r0, [r3]
 591:Drivers/STM32N6xx_HAL_Driver/Src/stm32n6xx_hal_pwr_ex.c **** }
 835              		.loc 1 591 1 view .LVU177
 836 0004 C0F30440 		ubfx	r0, r0, #16, #5
 837 0008 7047     		bx	lr
 838              	.L65:
 839 000a 00BF     		.align	2
 840              	.L64:
 841 000c 00480246 		.word	1174554624
 842              		.cfi_endproc
 843              	.LFE822:
 845              		.section	.text.HAL_PWREx_EnableSMPSPWM,"ax",%progbits
 846              		.align	1
ARM GAS  /tmp/ccUfYlKQ.s 			page 32


 847              		.p2align 2,,3
 848              		.global	HAL_PWREx_EnableSMPSPWM
 849              		.syntax unified
 850              		.thumb
 851              		.thumb_func
 852              		.fpu fpv5-d16
 854              	HAL_PWREx_EnableSMPSPWM:
 855              	.LFB823:
 592:Drivers/STM32N6xx_HAL_Driver/Src/stm32n6xx_hal_pwr_ex.c **** 
 593:Drivers/STM32N6xx_HAL_Driver/Src/stm32n6xx_hal_pwr_ex.c **** /**
 594:Drivers/STM32N6xx_HAL_Driver/Src/stm32n6xx_hal_pwr_ex.c ****   * @brief  Enable SMPS low-power mode (SVOS range 3 only).
 595:Drivers/STM32N6xx_HAL_Driver/Src/stm32n6xx_hal_pwr_ex.c ****   * @note   LPDS08V bit is used to keep the SMPS in PWM mode (MR) in Stop SVOS range 3.
 596:Drivers/STM32N6xx_HAL_Driver/Src/stm32n6xx_hal_pwr_ex.c ****   * @retval None.
 597:Drivers/STM32N6xx_HAL_Driver/Src/stm32n6xx_hal_pwr_ex.c ****   */
 598:Drivers/STM32N6xx_HAL_Driver/Src/stm32n6xx_hal_pwr_ex.c **** void HAL_PWREx_EnableSMPSPWM(void)
 599:Drivers/STM32N6xx_HAL_Driver/Src/stm32n6xx_hal_pwr_ex.c **** {
 856              		.loc 1 599 1 is_stmt 1 view -0
 857              		.cfi_startproc
 858              		@ args = 0, pretend = 0, frame = 0
 859              		@ frame_needed = 0, uses_anonymous_args = 0
 860              		@ link register save eliminated.
 600:Drivers/STM32N6xx_HAL_Driver/Src/stm32n6xx_hal_pwr_ex.c ****   SET_BIT(PWR->CR1, PWR_CR1_LPDS08V);
 861              		.loc 1 600 3 view .LVU179
 862 0000 024A     		ldr	r2, .L67
 863 0002 1368     		ldr	r3, [r2]
 864 0004 43F02003 		orr	r3, r3, #32
 865 0008 1360     		str	r3, [r2]
 601:Drivers/STM32N6xx_HAL_Driver/Src/stm32n6xx_hal_pwr_ex.c **** }
 866              		.loc 1 601 1 is_stmt 0 view .LVU180
 867 000a 7047     		bx	lr
 868              	.L68:
 869              		.align	2
 870              	.L67:
 871 000c 00480246 		.word	1174554624
 872              		.cfi_endproc
 873              	.LFE823:
 875              		.section	.text.HAL_PWREx_DisableSMPSPWM,"ax",%progbits
 876              		.align	1
 877              		.p2align 2,,3
 878              		.global	HAL_PWREx_DisableSMPSPWM
 879              		.syntax unified
 880              		.thumb
 881              		.thumb_func
 882              		.fpu fpv5-d16
 884              	HAL_PWREx_DisableSMPSPWM:
 885              	.LFB824:
 602:Drivers/STM32N6xx_HAL_Driver/Src/stm32n6xx_hal_pwr_ex.c **** 
 603:Drivers/STM32N6xx_HAL_Driver/Src/stm32n6xx_hal_pwr_ex.c **** /**
 604:Drivers/STM32N6xx_HAL_Driver/Src/stm32n6xx_hal_pwr_ex.c ****   * @brief  Disable SMPS low-power mode (SVOS range 3 only).
 605:Drivers/STM32N6xx_HAL_Driver/Src/stm32n6xx_hal_pwr_ex.c ****   * @retval None.
 606:Drivers/STM32N6xx_HAL_Driver/Src/stm32n6xx_hal_pwr_ex.c ****   */
 607:Drivers/STM32N6xx_HAL_Driver/Src/stm32n6xx_hal_pwr_ex.c **** void HAL_PWREx_DisableSMPSPWM(void)
 608:Drivers/STM32N6xx_HAL_Driver/Src/stm32n6xx_hal_pwr_ex.c **** {
 886              		.loc 1 608 1 is_stmt 1 view -0
 887              		.cfi_startproc
 888              		@ args = 0, pretend = 0, frame = 0
 889              		@ frame_needed = 0, uses_anonymous_args = 0
ARM GAS  /tmp/ccUfYlKQ.s 			page 33


 890              		@ link register save eliminated.
 609:Drivers/STM32N6xx_HAL_Driver/Src/stm32n6xx_hal_pwr_ex.c ****   CLEAR_BIT(PWR->CR1, PWR_CR1_LPDS08V);
 891              		.loc 1 609 3 view .LVU182
 892 0000 024A     		ldr	r2, .L70
 893 0002 1368     		ldr	r3, [r2]
 894 0004 23F02003 		bic	r3, r3, #32
 895 0008 1360     		str	r3, [r2]
 610:Drivers/STM32N6xx_HAL_Driver/Src/stm32n6xx_hal_pwr_ex.c **** }
 896              		.loc 1 610 1 is_stmt 0 view .LVU183
 897 000a 7047     		bx	lr
 898              	.L71:
 899              		.align	2
 900              	.L70:
 901 000c 00480246 		.word	1174554624
 902              		.cfi_endproc
 903              	.LFE824:
 905              		.section	.text.HAL_PWREx_EnablePullDownOutput,"ax",%progbits
 906              		.align	1
 907              		.p2align 2,,3
 908              		.global	HAL_PWREx_EnablePullDownOutput
 909              		.syntax unified
 910              		.thumb
 911              		.thumb_func
 912              		.fpu fpv5-d16
 914              	HAL_PWREx_EnablePullDownOutput:
 915              	.LFB825:
 611:Drivers/STM32N6xx_HAL_Driver/Src/stm32n6xx_hal_pwr_ex.c **** 
 612:Drivers/STM32N6xx_HAL_Driver/Src/stm32n6xx_hal_pwr_ex.c **** /**
 613:Drivers/STM32N6xx_HAL_Driver/Src/stm32n6xx_hal_pwr_ex.c ****   * @brief  Enable the pull down on output voltage during power-down mode.
 614:Drivers/STM32N6xx_HAL_Driver/Src/stm32n6xx_hal_pwr_ex.c ****   * @retval None.
 615:Drivers/STM32N6xx_HAL_Driver/Src/stm32n6xx_hal_pwr_ex.c ****   */
 616:Drivers/STM32N6xx_HAL_Driver/Src/stm32n6xx_hal_pwr_ex.c **** void HAL_PWREx_EnablePullDownOutput(void)
 617:Drivers/STM32N6xx_HAL_Driver/Src/stm32n6xx_hal_pwr_ex.c **** {
 916              		.loc 1 617 1 is_stmt 1 view -0
 917              		.cfi_startproc
 918              		@ args = 0, pretend = 0, frame = 0
 919              		@ frame_needed = 0, uses_anonymous_args = 0
 920              		@ link register save eliminated.
 618:Drivers/STM32N6xx_HAL_Driver/Src/stm32n6xx_hal_pwr_ex.c ****   SET_BIT(PWR->CR1, PWR_CR1_MODE_PDN);
 921              		.loc 1 618 3 view .LVU185
 922 0000 024A     		ldr	r2, .L73
 923 0002 1368     		ldr	r3, [r2]
 924 0004 43F01003 		orr	r3, r3, #16
 925 0008 1360     		str	r3, [r2]
 619:Drivers/STM32N6xx_HAL_Driver/Src/stm32n6xx_hal_pwr_ex.c **** }
 926              		.loc 1 619 1 is_stmt 0 view .LVU186
 927 000a 7047     		bx	lr
 928              	.L74:
 929              		.align	2
 930              	.L73:
 931 000c 00480246 		.word	1174554624
 932              		.cfi_endproc
 933              	.LFE825:
 935              		.section	.text.HAL_PWREx_DisablePullDownOutput,"ax",%progbits
 936              		.align	1
 937              		.p2align 2,,3
 938              		.global	HAL_PWREx_DisablePullDownOutput
ARM GAS  /tmp/ccUfYlKQ.s 			page 34


 939              		.syntax unified
 940              		.thumb
 941              		.thumb_func
 942              		.fpu fpv5-d16
 944              	HAL_PWREx_DisablePullDownOutput:
 945              	.LFB826:
 620:Drivers/STM32N6xx_HAL_Driver/Src/stm32n6xx_hal_pwr_ex.c **** 
 621:Drivers/STM32N6xx_HAL_Driver/Src/stm32n6xx_hal_pwr_ex.c **** /**
 622:Drivers/STM32N6xx_HAL_Driver/Src/stm32n6xx_hal_pwr_ex.c ****   * @brief  Disable the pull down on output voltage during power-down mode.
 623:Drivers/STM32N6xx_HAL_Driver/Src/stm32n6xx_hal_pwr_ex.c ****   * @retval None.
 624:Drivers/STM32N6xx_HAL_Driver/Src/stm32n6xx_hal_pwr_ex.c ****   */
 625:Drivers/STM32N6xx_HAL_Driver/Src/stm32n6xx_hal_pwr_ex.c **** void HAL_PWREx_DisablePullDownOutput(void)
 626:Drivers/STM32N6xx_HAL_Driver/Src/stm32n6xx_hal_pwr_ex.c **** {
 946              		.loc 1 626 1 is_stmt 1 view -0
 947              		.cfi_startproc
 948              		@ args = 0, pretend = 0, frame = 0
 949              		@ frame_needed = 0, uses_anonymous_args = 0
 950              		@ link register save eliminated.
 627:Drivers/STM32N6xx_HAL_Driver/Src/stm32n6xx_hal_pwr_ex.c ****   CLEAR_BIT(PWR->CR1, PWR_CR1_MODE_PDN);
 951              		.loc 1 627 3 view .LVU188
 952 0000 024A     		ldr	r2, .L76
 953 0002 1368     		ldr	r3, [r2]
 954 0004 23F01003 		bic	r3, r3, #16
 955 0008 1360     		str	r3, [r2]
 628:Drivers/STM32N6xx_HAL_Driver/Src/stm32n6xx_hal_pwr_ex.c **** }
 956              		.loc 1 628 1 is_stmt 0 view .LVU189
 957 000a 7047     		bx	lr
 958              	.L77:
 959              		.align	2
 960              	.L76:
 961 000c 00480246 		.word	1174554624
 962              		.cfi_endproc
 963              	.LFE826:
 965              		.section	.text.HAL_PWREx_EnableMonitoring,"ax",%progbits
 966              		.align	1
 967              		.p2align 2,,3
 968              		.global	HAL_PWREx_EnableMonitoring
 969              		.syntax unified
 970              		.thumb
 971              		.thumb_func
 972              		.fpu fpv5-d16
 974              	HAL_PWREx_EnableMonitoring:
 975              	.LFB827:
 629:Drivers/STM32N6xx_HAL_Driver/Src/stm32n6xx_hal_pwr_ex.c **** /**
 630:Drivers/STM32N6xx_HAL_Driver/Src/stm32n6xx_hal_pwr_ex.c ****   * @}
 631:Drivers/STM32N6xx_HAL_Driver/Src/stm32n6xx_hal_pwr_ex.c ****   */
 632:Drivers/STM32N6xx_HAL_Driver/Src/stm32n6xx_hal_pwr_ex.c **** 
 633:Drivers/STM32N6xx_HAL_Driver/Src/stm32n6xx_hal_pwr_ex.c **** /** @defgroup PWREx_Exported_Functions_Group5 Power Monitoring functions
 634:Drivers/STM32N6xx_HAL_Driver/Src/stm32n6xx_hal_pwr_ex.c ****   * @brief    Power Monitoring functions
 635:Drivers/STM32N6xx_HAL_Driver/Src/stm32n6xx_hal_pwr_ex.c ****   *
 636:Drivers/STM32N6xx_HAL_Driver/Src/stm32n6xx_hal_pwr_ex.c **** @verbatim
 637:Drivers/STM32N6xx_HAL_Driver/Src/stm32n6xx_hal_pwr_ex.c ****  ===============================================================================
 638:Drivers/STM32N6xx_HAL_Driver/Src/stm32n6xx_hal_pwr_ex.c ****                  ##### Power Monitoring functions #####
 639:Drivers/STM32N6xx_HAL_Driver/Src/stm32n6xx_hal_pwr_ex.c ****  ===============================================================================
 640:Drivers/STM32N6xx_HAL_Driver/Src/stm32n6xx_hal_pwr_ex.c **** 
 641:Drivers/STM32N6xx_HAL_Driver/Src/stm32n6xx_hal_pwr_ex.c ****     *** VBAT and Temperature supervision ***
 642:Drivers/STM32N6xx_HAL_Driver/Src/stm32n6xx_hal_pwr_ex.c ****     ========================================
ARM GAS  /tmp/ccUfYlKQ.s 			page 35


 643:Drivers/STM32N6xx_HAL_Driver/Src/stm32n6xx_hal_pwr_ex.c ****     [..]
 644:Drivers/STM32N6xx_HAL_Driver/Src/stm32n6xx_hal_pwr_ex.c ****       (+) The VBAT battery voltage supply can be monitored by comparing it with
 645:Drivers/STM32N6xx_HAL_Driver/Src/stm32n6xx_hal_pwr_ex.c ****           two threshold levels: VBAThigh and VBATlow. VBATH flag and VBATL flags
 646:Drivers/STM32N6xx_HAL_Driver/Src/stm32n6xx_hal_pwr_ex.c ****           in the PWR control register 2 (PWR_BDCR1), indicate if VBAT is higher or
 647:Drivers/STM32N6xx_HAL_Driver/Src/stm32n6xx_hal_pwr_ex.c ****           lower than the threshold.
 648:Drivers/STM32N6xx_HAL_Driver/Src/stm32n6xx_hal_pwr_ex.c ****       (+) The temperature can be monitored by comparing it with two threshold
 649:Drivers/STM32N6xx_HAL_Driver/Src/stm32n6xx_hal_pwr_ex.c ****           levels, TEMPhigh and TEMPlow. TEMPH and TEMPL flags, in the PWR
 650:Drivers/STM32N6xx_HAL_Driver/Src/stm32n6xx_hal_pwr_ex.c ****           control register 2 (PWR_BDCR1), indicate whether the device temperature
 651:Drivers/STM32N6xx_HAL_Driver/Src/stm32n6xx_hal_pwr_ex.c ****           is higher or lower than the threshold.
 652:Drivers/STM32N6xx_HAL_Driver/Src/stm32n6xx_hal_pwr_ex.c ****       (+) The VBAT and the temperature monitoring is enabled by
 653:Drivers/STM32N6xx_HAL_Driver/Src/stm32n6xx_hal_pwr_ex.c ****           HAL_PWREx_EnableMonitoring() function and disabled by
 654:Drivers/STM32N6xx_HAL_Driver/Src/stm32n6xx_hal_pwr_ex.c ****           HAL_PWREx_DisableMonitoring() function.
 655:Drivers/STM32N6xx_HAL_Driver/Src/stm32n6xx_hal_pwr_ex.c ****       (+) The HAL_PWREx_GetVBATLevel() function returns the VBAT level which can
 656:Drivers/STM32N6xx_HAL_Driver/Src/stm32n6xx_hal_pwr_ex.c ****           be : PWR_VBAT_BELOW_LOW_THRESHOLD or PWR_VBAT_ABOVE_HIGH_THRESHOLD or
 657:Drivers/STM32N6xx_HAL_Driver/Src/stm32n6xx_hal_pwr_ex.c ****           PWR_VBAT_BETWEEN_HIGH_LOW_THRESHOLD.
 658:Drivers/STM32N6xx_HAL_Driver/Src/stm32n6xx_hal_pwr_ex.c ****       (+) The HAL_PWREx_GetTemperatureLevel() function returns the Temperature
 659:Drivers/STM32N6xx_HAL_Driver/Src/stm32n6xx_hal_pwr_ex.c ****           level which can be :
 660:Drivers/STM32N6xx_HAL_Driver/Src/stm32n6xx_hal_pwr_ex.c ****           PWR_TEMP_BELOW_LOW_THRESHOLD or PWR_TEMP_ABOVE_HIGH_THRESHOLD or
 661:Drivers/STM32N6xx_HAL_Driver/Src/stm32n6xx_hal_pwr_ex.c ****           PWR_TEMP_BETWEEN_HIGH_LOW_THRESHOLD.
 662:Drivers/STM32N6xx_HAL_Driver/Src/stm32n6xx_hal_pwr_ex.c **** 
 663:Drivers/STM32N6xx_HAL_Driver/Src/stm32n6xx_hal_pwr_ex.c **** @endverbatim
 664:Drivers/STM32N6xx_HAL_Driver/Src/stm32n6xx_hal_pwr_ex.c ****   * @{
 665:Drivers/STM32N6xx_HAL_Driver/Src/stm32n6xx_hal_pwr_ex.c ****   */
 666:Drivers/STM32N6xx_HAL_Driver/Src/stm32n6xx_hal_pwr_ex.c **** 
 667:Drivers/STM32N6xx_HAL_Driver/Src/stm32n6xx_hal_pwr_ex.c **** /**
 668:Drivers/STM32N6xx_HAL_Driver/Src/stm32n6xx_hal_pwr_ex.c ****   * @brief Enable the VBAT and temperature monitoring.
 669:Drivers/STM32N6xx_HAL_Driver/Src/stm32n6xx_hal_pwr_ex.c ****   * @note  After reset, PWR_BDCR1 is write-protected.
 670:Drivers/STM32N6xx_HAL_Driver/Src/stm32n6xx_hal_pwr_ex.c ****   *        DBP must be set in PWR_DBPCR to disable the write protection.
 671:Drivers/STM32N6xx_HAL_Driver/Src/stm32n6xx_hal_pwr_ex.c ****   * @retval HAL status.
 672:Drivers/STM32N6xx_HAL_Driver/Src/stm32n6xx_hal_pwr_ex.c ****   */
 673:Drivers/STM32N6xx_HAL_Driver/Src/stm32n6xx_hal_pwr_ex.c **** void HAL_PWREx_EnableMonitoring(void)
 674:Drivers/STM32N6xx_HAL_Driver/Src/stm32n6xx_hal_pwr_ex.c **** {
 976              		.loc 1 674 1 is_stmt 1 view -0
 977              		.cfi_startproc
 978              		@ args = 0, pretend = 0, frame = 0
 979              		@ frame_needed = 0, uses_anonymous_args = 0
 980              		@ link register save eliminated.
 675:Drivers/STM32N6xx_HAL_Driver/Src/stm32n6xx_hal_pwr_ex.c ****   /* Enable the VBAT and Temperature monitoring */
 676:Drivers/STM32N6xx_HAL_Driver/Src/stm32n6xx_hal_pwr_ex.c ****   SET_BIT(PWR->BDCR1, PWR_BDCR1_MONEN);
 981              		.loc 1 676 3 view .LVU191
 982 0000 024A     		ldr	r2, .L79
 983 0002 536A     		ldr	r3, [r2, #36]
 984 0004 43F00103 		orr	r3, r3, #1
 985 0008 5362     		str	r3, [r2, #36]
 677:Drivers/STM32N6xx_HAL_Driver/Src/stm32n6xx_hal_pwr_ex.c **** }
 986              		.loc 1 677 1 is_stmt 0 view .LVU192
 987 000a 7047     		bx	lr
 988              	.L80:
 989              		.align	2
 990              	.L79:
 991 000c 00480246 		.word	1174554624
 992              		.cfi_endproc
 993              	.LFE827:
 995              		.section	.text.HAL_PWREx_DisableMonitoring,"ax",%progbits
 996              		.align	1
 997              		.p2align 2,,3
 998              		.global	HAL_PWREx_DisableMonitoring
ARM GAS  /tmp/ccUfYlKQ.s 			page 36


 999              		.syntax unified
 1000              		.thumb
 1001              		.thumb_func
 1002              		.fpu fpv5-d16
 1004              	HAL_PWREx_DisableMonitoring:
 1005              	.LFB828:
 678:Drivers/STM32N6xx_HAL_Driver/Src/stm32n6xx_hal_pwr_ex.c **** 
 679:Drivers/STM32N6xx_HAL_Driver/Src/stm32n6xx_hal_pwr_ex.c **** /**
 680:Drivers/STM32N6xx_HAL_Driver/Src/stm32n6xx_hal_pwr_ex.c ****   * @brief Disable the VBAT and temperature monitoring.
 681:Drivers/STM32N6xx_HAL_Driver/Src/stm32n6xx_hal_pwr_ex.c ****   * @note  After reset, PWR_BDCR1 is write-protected.
 682:Drivers/STM32N6xx_HAL_Driver/Src/stm32n6xx_hal_pwr_ex.c ****   *        DBP must be set in PWR_DBPCR to disable the write protection.
 683:Drivers/STM32N6xx_HAL_Driver/Src/stm32n6xx_hal_pwr_ex.c ****   * @retval HAL status.
 684:Drivers/STM32N6xx_HAL_Driver/Src/stm32n6xx_hal_pwr_ex.c ****   */
 685:Drivers/STM32N6xx_HAL_Driver/Src/stm32n6xx_hal_pwr_ex.c **** void HAL_PWREx_DisableMonitoring(void)
 686:Drivers/STM32N6xx_HAL_Driver/Src/stm32n6xx_hal_pwr_ex.c **** {
 1006              		.loc 1 686 1 is_stmt 1 view -0
 1007              		.cfi_startproc
 1008              		@ args = 0, pretend = 0, frame = 0
 1009              		@ frame_needed = 0, uses_anonymous_args = 0
 1010              		@ link register save eliminated.
 687:Drivers/STM32N6xx_HAL_Driver/Src/stm32n6xx_hal_pwr_ex.c ****   /* Disable the VBAT and Temperature monitoring */
 688:Drivers/STM32N6xx_HAL_Driver/Src/stm32n6xx_hal_pwr_ex.c ****   CLEAR_BIT(PWR->BDCR1, PWR_BDCR1_MONEN);
 1011              		.loc 1 688 3 view .LVU194
 1012 0000 024A     		ldr	r2, .L82
 1013 0002 536A     		ldr	r3, [r2, #36]
 1014 0004 23F00103 		bic	r3, r3, #1
 1015 0008 5362     		str	r3, [r2, #36]
 689:Drivers/STM32N6xx_HAL_Driver/Src/stm32n6xx_hal_pwr_ex.c **** }
 1016              		.loc 1 689 1 is_stmt 0 view .LVU195
 1017 000a 7047     		bx	lr
 1018              	.L83:
 1019              		.align	2
 1020              	.L82:
 1021 000c 00480246 		.word	1174554624
 1022              		.cfi_endproc
 1023              	.LFE828:
 1025              		.section	.text.HAL_PWREx_GetTemperatureLevel,"ax",%progbits
 1026              		.align	1
 1027              		.p2align 2,,3
 1028              		.global	HAL_PWREx_GetTemperatureLevel
 1029              		.syntax unified
 1030              		.thumb
 1031              		.thumb_func
 1032              		.fpu fpv5-d16
 1034              	HAL_PWREx_GetTemperatureLevel:
 1035              	.LFB829:
 690:Drivers/STM32N6xx_HAL_Driver/Src/stm32n6xx_hal_pwr_ex.c **** 
 691:Drivers/STM32N6xx_HAL_Driver/Src/stm32n6xx_hal_pwr_ex.c **** /**
 692:Drivers/STM32N6xx_HAL_Driver/Src/stm32n6xx_hal_pwr_ex.c ****   * @brief Indicate whether the junction temperature is between, above or below
 693:Drivers/STM32N6xx_HAL_Driver/Src/stm32n6xx_hal_pwr_ex.c ****   *        the thresholds.
 694:Drivers/STM32N6xx_HAL_Driver/Src/stm32n6xx_hal_pwr_ex.c ****   * @retval Temperature level.
 695:Drivers/STM32N6xx_HAL_Driver/Src/stm32n6xx_hal_pwr_ex.c ****   */
 696:Drivers/STM32N6xx_HAL_Driver/Src/stm32n6xx_hal_pwr_ex.c **** uint32_t HAL_PWREx_GetTemperatureLevel(void)
 697:Drivers/STM32N6xx_HAL_Driver/Src/stm32n6xx_hal_pwr_ex.c **** {
 1036              		.loc 1 697 1 is_stmt 1 view -0
 1037              		.cfi_startproc
 1038              		@ args = 0, pretend = 0, frame = 0
ARM GAS  /tmp/ccUfYlKQ.s 			page 37


 1039              		@ frame_needed = 0, uses_anonymous_args = 0
 1040              		@ link register save eliminated.
 698:Drivers/STM32N6xx_HAL_Driver/Src/stm32n6xx_hal_pwr_ex.c ****   uint32_t tempLevel;
 1041              		.loc 1 698 3 view .LVU197
 699:Drivers/STM32N6xx_HAL_Driver/Src/stm32n6xx_hal_pwr_ex.c ****   uint32_t regValue;
 1042              		.loc 1 699 3 view .LVU198
 700:Drivers/STM32N6xx_HAL_Driver/Src/stm32n6xx_hal_pwr_ex.c **** 
 701:Drivers/STM32N6xx_HAL_Driver/Src/stm32n6xx_hal_pwr_ex.c ****   /* Read the temperature flags */
 702:Drivers/STM32N6xx_HAL_Driver/Src/stm32n6xx_hal_pwr_ex.c ****   regValue = READ_BIT(PWR->BDCR1, (PWR_BDCR1_TEMPH | PWR_BDCR1_TEMPL));
 1043              		.loc 1 702 3 view .LVU199
 1044              		.loc 1 702 14 is_stmt 0 view .LVU200
 1045 0000 054B     		ldr	r3, .L91
 1046 0002 586A     		ldr	r0, [r3, #36]
 1047              		.loc 1 702 12 view .LVU201
 1048 0004 00F44020 		and	r0, r0, #786432
 1049              	.LVL45:
 703:Drivers/STM32N6xx_HAL_Driver/Src/stm32n6xx_hal_pwr_ex.c **** 
 704:Drivers/STM32N6xx_HAL_Driver/Src/stm32n6xx_hal_pwr_ex.c ****   /* Check if the temperature is below the threshold */
 705:Drivers/STM32N6xx_HAL_Driver/Src/stm32n6xx_hal_pwr_ex.c ****   if (regValue == PWR_BDCR1_TEMPL)
 1050              		.loc 1 705 3 is_stmt 1 view .LVU202
 1051              		.loc 1 705 6 is_stmt 0 view .LVU203
 1052 0008 B0F5802F 		cmp	r0, #262144
 1053 000c 03D0     		beq	.L84
 706:Drivers/STM32N6xx_HAL_Driver/Src/stm32n6xx_hal_pwr_ex.c ****   {
 707:Drivers/STM32N6xx_HAL_Driver/Src/stm32n6xx_hal_pwr_ex.c ****     tempLevel = PWR_TEMP_BELOW_LOW_THRESHOLD;
 708:Drivers/STM32N6xx_HAL_Driver/Src/stm32n6xx_hal_pwr_ex.c ****   }
 709:Drivers/STM32N6xx_HAL_Driver/Src/stm32n6xx_hal_pwr_ex.c ****   /* Check if the temperature is above the threshold */
 710:Drivers/STM32N6xx_HAL_Driver/Src/stm32n6xx_hal_pwr_ex.c ****   else if (regValue == PWR_BDCR1_TEMPH)
 1054              		.loc 1 710 8 is_stmt 1 view .LVU204
 711:Drivers/STM32N6xx_HAL_Driver/Src/stm32n6xx_hal_pwr_ex.c ****   {
 712:Drivers/STM32N6xx_HAL_Driver/Src/stm32n6xx_hal_pwr_ex.c ****     tempLevel = PWR_TEMP_ABOVE_HIGH_THRESHOLD;
 713:Drivers/STM32N6xx_HAL_Driver/Src/stm32n6xx_hal_pwr_ex.c ****   }
 714:Drivers/STM32N6xx_HAL_Driver/Src/stm32n6xx_hal_pwr_ex.c ****   /* The temperature is between the thresholds */
 715:Drivers/STM32N6xx_HAL_Driver/Src/stm32n6xx_hal_pwr_ex.c ****   else
 716:Drivers/STM32N6xx_HAL_Driver/Src/stm32n6xx_hal_pwr_ex.c ****   {
 717:Drivers/STM32N6xx_HAL_Driver/Src/stm32n6xx_hal_pwr_ex.c ****     tempLevel = PWR_TEMP_BETWEEN_HIGH_LOW_THRESHOLD;
 1055              		.loc 1 717 15 is_stmt 0 view .LVU205
 1056 000e B0F5002F 		cmp	r0, #524288
 1057 0012 18BF     		it	ne
 1058 0014 0020     		movne	r0, #0
 1059              	.LVL46:
 1060              	.L84:
 718:Drivers/STM32N6xx_HAL_Driver/Src/stm32n6xx_hal_pwr_ex.c ****   }
 719:Drivers/STM32N6xx_HAL_Driver/Src/stm32n6xx_hal_pwr_ex.c **** 
 720:Drivers/STM32N6xx_HAL_Driver/Src/stm32n6xx_hal_pwr_ex.c ****   return tempLevel;
 721:Drivers/STM32N6xx_HAL_Driver/Src/stm32n6xx_hal_pwr_ex.c **** }
 1061              		.loc 1 721 1 view .LVU206
 1062 0016 7047     		bx	lr
 1063              	.L92:
 1064              		.align	2
 1065              	.L91:
 1066 0018 00480246 		.word	1174554624
 1067              		.cfi_endproc
 1068              	.LFE829:
 1070              		.section	.text.HAL_PWREx_GetVBATLevel,"ax",%progbits
 1071              		.align	1
 1072              		.p2align 2,,3
ARM GAS  /tmp/ccUfYlKQ.s 			page 38


 1073              		.global	HAL_PWREx_GetVBATLevel
 1074              		.syntax unified
 1075              		.thumb
 1076              		.thumb_func
 1077              		.fpu fpv5-d16
 1079              	HAL_PWREx_GetVBATLevel:
 1080              	.LFB830:
 722:Drivers/STM32N6xx_HAL_Driver/Src/stm32n6xx_hal_pwr_ex.c **** 
 723:Drivers/STM32N6xx_HAL_Driver/Src/stm32n6xx_hal_pwr_ex.c **** /**
 724:Drivers/STM32N6xx_HAL_Driver/Src/stm32n6xx_hal_pwr_ex.c ****   * @brief Indicate whether the Battery voltage level is between, above or below
 725:Drivers/STM32N6xx_HAL_Driver/Src/stm32n6xx_hal_pwr_ex.c ****   *        the thresholds.
 726:Drivers/STM32N6xx_HAL_Driver/Src/stm32n6xx_hal_pwr_ex.c ****   * @retval VBAT level.
 727:Drivers/STM32N6xx_HAL_Driver/Src/stm32n6xx_hal_pwr_ex.c ****   */
 728:Drivers/STM32N6xx_HAL_Driver/Src/stm32n6xx_hal_pwr_ex.c **** uint32_t HAL_PWREx_GetVBATLevel(void)
 729:Drivers/STM32N6xx_HAL_Driver/Src/stm32n6xx_hal_pwr_ex.c **** {
 1081              		.loc 1 729 1 is_stmt 1 view -0
 1082              		.cfi_startproc
 1083              		@ args = 0, pretend = 0, frame = 0
 1084              		@ frame_needed = 0, uses_anonymous_args = 0
 1085              		@ link register save eliminated.
 730:Drivers/STM32N6xx_HAL_Driver/Src/stm32n6xx_hal_pwr_ex.c ****   uint32_t vbatLevel;
 1086              		.loc 1 730 3 view .LVU208
 731:Drivers/STM32N6xx_HAL_Driver/Src/stm32n6xx_hal_pwr_ex.c ****   uint32_t regValue;
 1087              		.loc 1 731 3 view .LVU209
 732:Drivers/STM32N6xx_HAL_Driver/Src/stm32n6xx_hal_pwr_ex.c **** 
 733:Drivers/STM32N6xx_HAL_Driver/Src/stm32n6xx_hal_pwr_ex.c ****   /* Read the VBAT flags */
 734:Drivers/STM32N6xx_HAL_Driver/Src/stm32n6xx_hal_pwr_ex.c ****   regValue = READ_BIT(PWR->BDCR1, (PWR_BDCR1_VBATH | PWR_BDCR1_VBATL));
 1088              		.loc 1 734 3 view .LVU210
 1089              		.loc 1 734 14 is_stmt 0 view .LVU211
 1090 0000 054B     		ldr	r3, .L100
 1091 0002 586A     		ldr	r0, [r3, #36]
 1092              		.loc 1 734 12 view .LVU212
 1093 0004 00F44030 		and	r0, r0, #196608
 1094              	.LVL47:
 735:Drivers/STM32N6xx_HAL_Driver/Src/stm32n6xx_hal_pwr_ex.c **** 
 736:Drivers/STM32N6xx_HAL_Driver/Src/stm32n6xx_hal_pwr_ex.c ****   /* Check if the VBAT is below the threshold */
 737:Drivers/STM32N6xx_HAL_Driver/Src/stm32n6xx_hal_pwr_ex.c ****   if (regValue == PWR_BDCR1_VBATL)
 1095              		.loc 1 737 3 is_stmt 1 view .LVU213
 1096              		.loc 1 737 6 is_stmt 0 view .LVU214
 1097 0008 B0F5803F 		cmp	r0, #65536
 1098 000c 03D0     		beq	.L93
 738:Drivers/STM32N6xx_HAL_Driver/Src/stm32n6xx_hal_pwr_ex.c ****   {
 739:Drivers/STM32N6xx_HAL_Driver/Src/stm32n6xx_hal_pwr_ex.c ****     vbatLevel = PWR_VBAT_BELOW_LOW_THRESHOLD;
 740:Drivers/STM32N6xx_HAL_Driver/Src/stm32n6xx_hal_pwr_ex.c ****   }
 741:Drivers/STM32N6xx_HAL_Driver/Src/stm32n6xx_hal_pwr_ex.c ****   /* Check if the VBAT is above the threshold */
 742:Drivers/STM32N6xx_HAL_Driver/Src/stm32n6xx_hal_pwr_ex.c ****   else if (regValue == PWR_BDCR1_VBATH)
 1099              		.loc 1 742 8 is_stmt 1 view .LVU215
 743:Drivers/STM32N6xx_HAL_Driver/Src/stm32n6xx_hal_pwr_ex.c ****   {
 744:Drivers/STM32N6xx_HAL_Driver/Src/stm32n6xx_hal_pwr_ex.c ****     vbatLevel = PWR_VBAT_ABOVE_HIGH_THRESHOLD;
 745:Drivers/STM32N6xx_HAL_Driver/Src/stm32n6xx_hal_pwr_ex.c ****   }
 746:Drivers/STM32N6xx_HAL_Driver/Src/stm32n6xx_hal_pwr_ex.c ****   /* The VBAT is between the thresholds */
 747:Drivers/STM32N6xx_HAL_Driver/Src/stm32n6xx_hal_pwr_ex.c ****   else
 748:Drivers/STM32N6xx_HAL_Driver/Src/stm32n6xx_hal_pwr_ex.c ****   {
 749:Drivers/STM32N6xx_HAL_Driver/Src/stm32n6xx_hal_pwr_ex.c ****     vbatLevel = PWR_VBAT_BETWEEN_HIGH_LOW_THRESHOLD;
 1100              		.loc 1 749 15 is_stmt 0 view .LVU216
 1101 000e B0F5003F 		cmp	r0, #131072
 1102 0012 18BF     		it	ne
ARM GAS  /tmp/ccUfYlKQ.s 			page 39


 1103 0014 0020     		movne	r0, #0
 1104              	.LVL48:
 1105              	.L93:
 750:Drivers/STM32N6xx_HAL_Driver/Src/stm32n6xx_hal_pwr_ex.c ****   }
 751:Drivers/STM32N6xx_HAL_Driver/Src/stm32n6xx_hal_pwr_ex.c **** 
 752:Drivers/STM32N6xx_HAL_Driver/Src/stm32n6xx_hal_pwr_ex.c ****   return vbatLevel;
 753:Drivers/STM32N6xx_HAL_Driver/Src/stm32n6xx_hal_pwr_ex.c **** }
 1106              		.loc 1 753 1 view .LVU217
 1107 0016 7047     		bx	lr
 1108              	.L101:
 1109              		.align	2
 1110              	.L100:
 1111 0018 00480246 		.word	1174554624
 1112              		.cfi_endproc
 1113              	.LFE830:
 1115              		.section	.text.HAL_PWREx_EnableVDDCOREMonitoring,"ax",%progbits
 1116              		.align	1
 1117              		.p2align 2,,3
 1118              		.global	HAL_PWREx_EnableVDDCOREMonitoring
 1119              		.syntax unified
 1120              		.thumb
 1121              		.thumb_func
 1122              		.fpu fpv5-d16
 1124              	HAL_PWREx_EnableVDDCOREMonitoring:
 1125              	.LFB831:
 754:Drivers/STM32N6xx_HAL_Driver/Src/stm32n6xx_hal_pwr_ex.c **** 
 755:Drivers/STM32N6xx_HAL_Driver/Src/stm32n6xx_hal_pwr_ex.c **** /**
 756:Drivers/STM32N6xx_HAL_Driver/Src/stm32n6xx_hal_pwr_ex.c ****   * @brief Enable the VDDCORE monitoring.
 757:Drivers/STM32N6xx_HAL_Driver/Src/stm32n6xx_hal_pwr_ex.c ****   * @retval HAL status.
 758:Drivers/STM32N6xx_HAL_Driver/Src/stm32n6xx_hal_pwr_ex.c ****   */
 759:Drivers/STM32N6xx_HAL_Driver/Src/stm32n6xx_hal_pwr_ex.c **** void HAL_PWREx_EnableVDDCOREMonitoring(void)
 760:Drivers/STM32N6xx_HAL_Driver/Src/stm32n6xx_hal_pwr_ex.c **** {
 1126              		.loc 1 760 1 is_stmt 1 view -0
 1127              		.cfi_startproc
 1128              		@ args = 0, pretend = 0, frame = 0
 1129              		@ frame_needed = 0, uses_anonymous_args = 0
 1130              		@ link register save eliminated.
 761:Drivers/STM32N6xx_HAL_Driver/Src/stm32n6xx_hal_pwr_ex.c ****   /* Enable the VDDCORE monitoring */
 762:Drivers/STM32N6xx_HAL_Driver/Src/stm32n6xx_hal_pwr_ex.c ****   SET_BIT(PWR->CR3, PWR_CR3_VCOREMONEN);
 1131              		.loc 1 762 3 view .LVU219
 1132 0000 024A     		ldr	r2, .L103
 1133 0002 9368     		ldr	r3, [r2, #8]
 1134 0004 43F00103 		orr	r3, r3, #1
 1135 0008 9360     		str	r3, [r2, #8]
 763:Drivers/STM32N6xx_HAL_Driver/Src/stm32n6xx_hal_pwr_ex.c **** }
 1136              		.loc 1 763 1 is_stmt 0 view .LVU220
 1137 000a 7047     		bx	lr
 1138              	.L104:
 1139              		.align	2
 1140              	.L103:
 1141 000c 00480246 		.word	1174554624
 1142              		.cfi_endproc
 1143              	.LFE831:
 1145              		.section	.text.HAL_PWREx_DisableVDDCOREMonitoring,"ax",%progbits
 1146              		.align	1
 1147              		.p2align 2,,3
 1148              		.global	HAL_PWREx_DisableVDDCOREMonitoring
ARM GAS  /tmp/ccUfYlKQ.s 			page 40


 1149              		.syntax unified
 1150              		.thumb
 1151              		.thumb_func
 1152              		.fpu fpv5-d16
 1154              	HAL_PWREx_DisableVDDCOREMonitoring:
 1155              	.LFB832:
 764:Drivers/STM32N6xx_HAL_Driver/Src/stm32n6xx_hal_pwr_ex.c **** 
 765:Drivers/STM32N6xx_HAL_Driver/Src/stm32n6xx_hal_pwr_ex.c **** /**
 766:Drivers/STM32N6xx_HAL_Driver/Src/stm32n6xx_hal_pwr_ex.c ****   * @brief Disable the VDDCORE monitoring.
 767:Drivers/STM32N6xx_HAL_Driver/Src/stm32n6xx_hal_pwr_ex.c ****   * @retval HAL status.
 768:Drivers/STM32N6xx_HAL_Driver/Src/stm32n6xx_hal_pwr_ex.c ****   */
 769:Drivers/STM32N6xx_HAL_Driver/Src/stm32n6xx_hal_pwr_ex.c **** void HAL_PWREx_DisableVDDCOREMonitoring(void)
 770:Drivers/STM32N6xx_HAL_Driver/Src/stm32n6xx_hal_pwr_ex.c **** {
 1156              		.loc 1 770 1 is_stmt 1 view -0
 1157              		.cfi_startproc
 1158              		@ args = 0, pretend = 0, frame = 0
 1159              		@ frame_needed = 0, uses_anonymous_args = 0
 1160              		@ link register save eliminated.
 771:Drivers/STM32N6xx_HAL_Driver/Src/stm32n6xx_hal_pwr_ex.c ****   /* Disable the VDDCORE monitoring */
 772:Drivers/STM32N6xx_HAL_Driver/Src/stm32n6xx_hal_pwr_ex.c ****   CLEAR_BIT(PWR->CR3, PWR_CR3_VCOREMONEN);
 1161              		.loc 1 772 3 view .LVU222
 1162 0000 024A     		ldr	r2, .L106
 1163 0002 9368     		ldr	r3, [r2, #8]
 1164 0004 23F00103 		bic	r3, r3, #1
 1165 0008 9360     		str	r3, [r2, #8]
 773:Drivers/STM32N6xx_HAL_Driver/Src/stm32n6xx_hal_pwr_ex.c **** }
 1166              		.loc 1 773 1 is_stmt 0 view .LVU223
 1167 000a 7047     		bx	lr
 1168              	.L107:
 1169              		.align	2
 1170              	.L106:
 1171 000c 00480246 		.word	1174554624
 1172              		.cfi_endproc
 1173              	.LFE832:
 1175              		.section	.text.HAL_PWREx_ConfigVDDCOREVM,"ax",%progbits
 1176              		.align	1
 1177              		.p2align 2,,3
 1178              		.global	HAL_PWREx_ConfigVDDCOREVM
 1179              		.syntax unified
 1180              		.thumb
 1181              		.thumb_func
 1182              		.fpu fpv5-d16
 1184              	HAL_PWREx_ConfigVDDCOREVM:
 1185              	.LVL49:
 1186              	.LFB833:
 774:Drivers/STM32N6xx_HAL_Driver/Src/stm32n6xx_hal_pwr_ex.c **** 
 775:Drivers/STM32N6xx_HAL_Driver/Src/stm32n6xx_hal_pwr_ex.c **** /**
 776:Drivers/STM32N6xx_HAL_Driver/Src/stm32n6xx_hal_pwr_ex.c ****   * @brief  Configure the VDDCORE voltage detector low-level selection.
 777:Drivers/STM32N6xx_HAL_Driver/Src/stm32n6xx_hal_pwr_ex.c ****   * @param  pConfigVddCOREVM : Pointer to a PWR_VddCOREVMTypeDef structure that contains the
 778:Drivers/STM32N6xx_HAL_Driver/Src/stm32n6xx_hal_pwr_ex.c ****   *                            PVM configuration information (LowVoltageThreshold and Mode).
 779:Drivers/STM32N6xx_HAL_Driver/Src/stm32n6xx_hal_pwr_ex.c ****   * @retval None.
 780:Drivers/STM32N6xx_HAL_Driver/Src/stm32n6xx_hal_pwr_ex.c ****   */
 781:Drivers/STM32N6xx_HAL_Driver/Src/stm32n6xx_hal_pwr_ex.c **** void HAL_PWREx_ConfigVDDCOREVM(const PWR_VddCOREVMTypeDef *pConfigVddCOREVM)
 782:Drivers/STM32N6xx_HAL_Driver/Src/stm32n6xx_hal_pwr_ex.c **** {
 1187              		.loc 1 782 1 is_stmt 1 view -0
 1188              		.cfi_startproc
 1189              		@ args = 0, pretend = 0, frame = 0
ARM GAS  /tmp/ccUfYlKQ.s 			page 41


 1190              		@ frame_needed = 0, uses_anonymous_args = 0
 1191              		@ link register save eliminated.
 783:Drivers/STM32N6xx_HAL_Driver/Src/stm32n6xx_hal_pwr_ex.c ****   assert_param(IS_PWR_VDDCOREVM_LEVEL(pConfigVddCOREVM->LowVoltageThreshold));
 1192              		.loc 1 783 3 view .LVU225
 784:Drivers/STM32N6xx_HAL_Driver/Src/stm32n6xx_hal_pwr_ex.c ****   assert_param(IS_PWR_VDDCOREVM_MODE(pConfigVddCOREVM->Mode));
 1193              		.loc 1 784 3 view .LVU226
 785:Drivers/STM32N6xx_HAL_Driver/Src/stm32n6xx_hal_pwr_ex.c **** 
 786:Drivers/STM32N6xx_HAL_Driver/Src/stm32n6xx_hal_pwr_ex.c ****   /* Disable VDDCORE monitoring Event/Interrupt */
 787:Drivers/STM32N6xx_HAL_Driver/Src/stm32n6xx_hal_pwr_ex.c ****   __HAL_PWR_VCOREVM_EXTI_DISABLE_EVENT();
 1194              		.loc 1 787 3 view .LVU227
 1195 0000 1F4B     		ldr	r3, .L126
 782:Drivers/STM32N6xx_HAL_Driver/Src/stm32n6xx_hal_pwr_ex.c ****   assert_param(IS_PWR_VDDCOREVM_LEVEL(pConfigVddCOREVM->LowVoltageThreshold));
 1196              		.loc 1 782 1 is_stmt 0 view .LVU228
 1197 0002 10B4     		push	{r4}
 1198              		.cfi_def_cfa_offset 4
 1199              		.cfi_offset 4, -4
 1200              		.loc 1 787 3 view .LVU229
 1201 0004 D3F8A420 		ldr	r2, [r3, #164]
 788:Drivers/STM32N6xx_HAL_Driver/Src/stm32n6xx_hal_pwr_ex.c ****   __HAL_PWR_VCOREVM_EXTI_DISABLE_IT();
 789:Drivers/STM32N6xx_HAL_Driver/Src/stm32n6xx_hal_pwr_ex.c ****   __HAL_PWR_VCOREVM_EXTI_DISABLE_RISING_EDGE();
 790:Drivers/STM32N6xx_HAL_Driver/Src/stm32n6xx_hal_pwr_ex.c ****   __HAL_PWR_VCOREVM_EXTI_DISABLE_FALLING_EDGE();
 791:Drivers/STM32N6xx_HAL_Driver/Src/stm32n6xx_hal_pwr_ex.c **** 
 792:Drivers/STM32N6xx_HAL_Driver/Src/stm32n6xx_hal_pwr_ex.c ****   /* Set the VDDCORE voltage detector low-level selection */
 793:Drivers/STM32N6xx_HAL_Driver/Src/stm32n6xx_hal_pwr_ex.c ****   MODIFY_REG(PWR->CR3, PWR_CR3_VCORELLS_Msk, pConfigVddCOREVM->LowVoltageThreshold);
 1202              		.loc 1 793 3 view .LVU230
 1203 0008 1E49     		ldr	r1, .L126+4
 787:Drivers/STM32N6xx_HAL_Driver/Src/stm32n6xx_hal_pwr_ex.c ****   __HAL_PWR_VCOREVM_EXTI_DISABLE_IT();
 1204              		.loc 1 787 3 view .LVU231
 1205 000a 22F01002 		bic	r2, r2, #16
 1206 000e C3F8A420 		str	r2, [r3, #164]
 788:Drivers/STM32N6xx_HAL_Driver/Src/stm32n6xx_hal_pwr_ex.c ****   __HAL_PWR_VCOREVM_EXTI_DISABLE_IT();
 1207              		.loc 1 788 3 is_stmt 1 view .LVU232
 1208 0012 D3F8A020 		ldr	r2, [r3, #160]
 1209 0016 22F01002 		bic	r2, r2, #16
 1210 001a C3F8A020 		str	r2, [r3, #160]
 789:Drivers/STM32N6xx_HAL_Driver/Src/stm32n6xx_hal_pwr_ex.c ****   __HAL_PWR_VCOREVM_EXTI_DISABLE_FALLING_EDGE();
 1211              		.loc 1 789 3 view .LVU233
 1212 001e 1A6C     		ldr	r2, [r3, #64]
 1213 0020 22F01002 		bic	r2, r2, #16
 1214 0024 1A64     		str	r2, [r3, #64]
 790:Drivers/STM32N6xx_HAL_Driver/Src/stm32n6xx_hal_pwr_ex.c **** 
 1215              		.loc 1 790 3 view .LVU234
 1216 0026 5A6C     		ldr	r2, [r3, #68]
 1217 0028 22F01002 		bic	r2, r2, #16
 1218 002c 5A64     		str	r2, [r3, #68]
 1219              		.loc 1 793 3 view .LVU235
 1220 002e 8A68     		ldr	r2, [r1, #8]
 1221 0030 0468     		ldr	r4, [r0]
 1222 0032 22F01002 		bic	r2, r2, #16
 1223 0036 2243     		orrs	r2, r2, r4
 1224 0038 8A60     		str	r2, [r1, #8]
 794:Drivers/STM32N6xx_HAL_Driver/Src/stm32n6xx_hal_pwr_ex.c **** 
 795:Drivers/STM32N6xx_HAL_Driver/Src/stm32n6xx_hal_pwr_ex.c ****   /* Configure the VDDCORE monitoring in interrupt mode */
 796:Drivers/STM32N6xx_HAL_Driver/Src/stm32n6xx_hal_pwr_ex.c ****   if ((pConfigVddCOREVM->Mode & VDDCOREVM_MODE_IT) == VDDCOREVM_MODE_IT)
 1225              		.loc 1 796 3 view .LVU236
 1226              		.loc 1 796 24 is_stmt 0 view .LVU237
 1227 003a 4268     		ldr	r2, [r0, #4]
ARM GAS  /tmp/ccUfYlKQ.s 			page 42


 1228              		.loc 1 796 6 view .LVU238
 1229 003c 5407     		lsls	r4, r2, #29
 1230 003e 05D5     		bpl	.L109
 797:Drivers/STM32N6xx_HAL_Driver/Src/stm32n6xx_hal_pwr_ex.c ****   {
 798:Drivers/STM32N6xx_HAL_Driver/Src/stm32n6xx_hal_pwr_ex.c ****     __HAL_PWR_VCOREVM_EXTI_ENABLE_IT();
 1231              		.loc 1 798 5 is_stmt 1 view .LVU239
 1232 0040 D3F8A010 		ldr	r1, [r3, #160]
 1233 0044 41F01001 		orr	r1, r1, #16
 1234 0048 C3F8A010 		str	r1, [r3, #160]
 1235              	.L109:
 799:Drivers/STM32N6xx_HAL_Driver/Src/stm32n6xx_hal_pwr_ex.c ****   }
 800:Drivers/STM32N6xx_HAL_Driver/Src/stm32n6xx_hal_pwr_ex.c **** 
 801:Drivers/STM32N6xx_HAL_Driver/Src/stm32n6xx_hal_pwr_ex.c ****   /* Configure the VDDCORE monitoring in event mode */
 802:Drivers/STM32N6xx_HAL_Driver/Src/stm32n6xx_hal_pwr_ex.c ****   if ((pConfigVddCOREVM->Mode & VDDCOREVM_MODE_EVT) == VDDCOREVM_MODE_EVT)
 1236              		.loc 1 802 3 view .LVU240
 1237              		.loc 1 802 6 is_stmt 0 view .LVU241
 1238 004c 1007     		lsls	r0, r2, #28
 1239              	.LVL50:
 1240              		.loc 1 802 6 view .LVU242
 1241 004e 06D5     		bpl	.L110
 803:Drivers/STM32N6xx_HAL_Driver/Src/stm32n6xx_hal_pwr_ex.c ****   {
 804:Drivers/STM32N6xx_HAL_Driver/Src/stm32n6xx_hal_pwr_ex.c ****     __HAL_PWR_VCOREVM_EXTI_ENABLE_EVENT();
 1242              		.loc 1 804 5 is_stmt 1 view .LVU243
 1243 0050 0B49     		ldr	r1, .L126
 1244 0052 D1F8A430 		ldr	r3, [r1, #164]
 1245 0056 43F01003 		orr	r3, r3, #16
 1246 005a C1F8A430 		str	r3, [r1, #164]
 1247              	.L110:
 805:Drivers/STM32N6xx_HAL_Driver/Src/stm32n6xx_hal_pwr_ex.c ****   }
 806:Drivers/STM32N6xx_HAL_Driver/Src/stm32n6xx_hal_pwr_ex.c **** 
 807:Drivers/STM32N6xx_HAL_Driver/Src/stm32n6xx_hal_pwr_ex.c ****   /* Rising edge configuration */
 808:Drivers/STM32N6xx_HAL_Driver/Src/stm32n6xx_hal_pwr_ex.c ****   if ((pConfigVddCOREVM->Mode & VDDCOREVM_RISING_EDGE) == VDDCOREVM_RISING_EDGE)
 1248              		.loc 1 808 3 view .LVU244
 1249              		.loc 1 808 6 is_stmt 0 view .LVU245
 1250 005e D107     		lsls	r1, r2, #31
 1251 0060 04D5     		bpl	.L111
 809:Drivers/STM32N6xx_HAL_Driver/Src/stm32n6xx_hal_pwr_ex.c ****   {
 810:Drivers/STM32N6xx_HAL_Driver/Src/stm32n6xx_hal_pwr_ex.c ****     __HAL_PWR_VCOREVM_EXTI_ENABLE_RISING_EDGE();
 1252              		.loc 1 810 5 is_stmt 1 view .LVU246
 1253 0062 0749     		ldr	r1, .L126
 1254 0064 0B6C     		ldr	r3, [r1, #64]
 1255 0066 43F01003 		orr	r3, r3, #16
 1256 006a 0B64     		str	r3, [r1, #64]
 1257              	.L111:
 811:Drivers/STM32N6xx_HAL_Driver/Src/stm32n6xx_hal_pwr_ex.c ****   }
 812:Drivers/STM32N6xx_HAL_Driver/Src/stm32n6xx_hal_pwr_ex.c **** 
 813:Drivers/STM32N6xx_HAL_Driver/Src/stm32n6xx_hal_pwr_ex.c ****   /* Falling edge configuration */
 814:Drivers/STM32N6xx_HAL_Driver/Src/stm32n6xx_hal_pwr_ex.c ****   if ((pConfigVddCOREVM->Mode & VDDCOREVM_FALLING_EDGE) == VDDCOREVM_FALLING_EDGE)
 1258              		.loc 1 814 3 view .LVU247
 1259              		.loc 1 814 6 is_stmt 0 view .LVU248
 1260 006c 9307     		lsls	r3, r2, #30
 1261 006e 04D5     		bpl	.L108
 815:Drivers/STM32N6xx_HAL_Driver/Src/stm32n6xx_hal_pwr_ex.c ****   {
 816:Drivers/STM32N6xx_HAL_Driver/Src/stm32n6xx_hal_pwr_ex.c ****     __HAL_PWR_VCOREVM_EXTI_ENABLE_FALLING_EDGE();
 1262              		.loc 1 816 5 is_stmt 1 view .LVU249
 1263 0070 034A     		ldr	r2, .L126
 1264 0072 536C     		ldr	r3, [r2, #68]
ARM GAS  /tmp/ccUfYlKQ.s 			page 43


 1265 0074 43F01003 		orr	r3, r3, #16
 1266 0078 5364     		str	r3, [r2, #68]
 1267              	.L108:
 817:Drivers/STM32N6xx_HAL_Driver/Src/stm32n6xx_hal_pwr_ex.c ****   }
 818:Drivers/STM32N6xx_HAL_Driver/Src/stm32n6xx_hal_pwr_ex.c **** }
 1268              		.loc 1 818 1 is_stmt 0 view .LVU250
 1269 007a 5DF8044B 		ldr	r4, [sp], #4
 1270              		.cfi_restore 4
 1271              		.cfi_def_cfa_offset 0
 1272 007e 7047     		bx	lr
 1273              	.L127:
 1274              		.align	2
 1275              	.L126:
 1276 0080 00500246 		.word	1174556672
 1277 0084 00480246 		.word	1174554624
 1278              		.cfi_endproc
 1279              	.LFE833:
 1281              		.section	.text.HAL_PWREx_GetVDDCORELevel,"ax",%progbits
 1282              		.align	1
 1283              		.p2align 2,,3
 1284              		.global	HAL_PWREx_GetVDDCORELevel
 1285              		.syntax unified
 1286              		.thumb
 1287              		.thumb_func
 1288              		.fpu fpv5-d16
 1290              	HAL_PWREx_GetVDDCORELevel:
 1291              	.LFB834:
 819:Drivers/STM32N6xx_HAL_Driver/Src/stm32n6xx_hal_pwr_ex.c **** 
 820:Drivers/STM32N6xx_HAL_Driver/Src/stm32n6xx_hal_pwr_ex.c **** /**
 821:Drivers/STM32N6xx_HAL_Driver/Src/stm32n6xx_hal_pwr_ex.c ****   * @brief Indicate whether the VDDCORE level is between, above or below
 822:Drivers/STM32N6xx_HAL_Driver/Src/stm32n6xx_hal_pwr_ex.c ****   *        the thresholds.
 823:Drivers/STM32N6xx_HAL_Driver/Src/stm32n6xx_hal_pwr_ex.c ****   * @retval VDDCORE level.
 824:Drivers/STM32N6xx_HAL_Driver/Src/stm32n6xx_hal_pwr_ex.c ****   */
 825:Drivers/STM32N6xx_HAL_Driver/Src/stm32n6xx_hal_pwr_ex.c **** uint32_t HAL_PWREx_GetVDDCORELevel(void)
 826:Drivers/STM32N6xx_HAL_Driver/Src/stm32n6xx_hal_pwr_ex.c **** {
 1292              		.loc 1 826 1 is_stmt 1 view -0
 1293              		.cfi_startproc
 1294              		@ args = 0, pretend = 0, frame = 0
 1295              		@ frame_needed = 0, uses_anonymous_args = 0
 1296              		@ link register save eliminated.
 827:Drivers/STM32N6xx_HAL_Driver/Src/stm32n6xx_hal_pwr_ex.c ****   uint32_t vcoreLevel;
 1297              		.loc 1 827 3 view .LVU252
 828:Drivers/STM32N6xx_HAL_Driver/Src/stm32n6xx_hal_pwr_ex.c ****   uint32_t regValue;
 1298              		.loc 1 828 3 view .LVU253
 829:Drivers/STM32N6xx_HAL_Driver/Src/stm32n6xx_hal_pwr_ex.c **** 
 830:Drivers/STM32N6xx_HAL_Driver/Src/stm32n6xx_hal_pwr_ex.c ****   /* Read the VCORE flags */
 831:Drivers/STM32N6xx_HAL_Driver/Src/stm32n6xx_hal_pwr_ex.c ****   regValue = READ_BIT(PWR->CR3, (PWR_CR3_VCOREH | PWR_CR3_VCOREL));
 1299              		.loc 1 831 3 view .LVU254
 1300              		.loc 1 831 14 is_stmt 0 view .LVU255
 1301 0000 054B     		ldr	r3, .L135
 1302 0002 9868     		ldr	r0, [r3, #8]
 1303              		.loc 1 831 12 view .LVU256
 1304 0004 00F44070 		and	r0, r0, #768
 1305              	.LVL51:
 832:Drivers/STM32N6xx_HAL_Driver/Src/stm32n6xx_hal_pwr_ex.c **** 
 833:Drivers/STM32N6xx_HAL_Driver/Src/stm32n6xx_hal_pwr_ex.c ****   /* Check if the VCORE is below the threshold */
 834:Drivers/STM32N6xx_HAL_Driver/Src/stm32n6xx_hal_pwr_ex.c ****   if (regValue == PWR_CR3_VCOREL)
ARM GAS  /tmp/ccUfYlKQ.s 			page 44


 1306              		.loc 1 834 3 is_stmt 1 view .LVU257
 1307              		.loc 1 834 6 is_stmt 0 view .LVU258
 1308 0008 B0F5807F 		cmp	r0, #256
 1309 000c 03D0     		beq	.L128
 835:Drivers/STM32N6xx_HAL_Driver/Src/stm32n6xx_hal_pwr_ex.c ****   {
 836:Drivers/STM32N6xx_HAL_Driver/Src/stm32n6xx_hal_pwr_ex.c ****     vcoreLevel = PWR_VDDCORE_BELOW_LOW_THRESHOLD;
 837:Drivers/STM32N6xx_HAL_Driver/Src/stm32n6xx_hal_pwr_ex.c ****   }
 838:Drivers/STM32N6xx_HAL_Driver/Src/stm32n6xx_hal_pwr_ex.c ****   /* Check if the VCORE is above the threshold */
 839:Drivers/STM32N6xx_HAL_Driver/Src/stm32n6xx_hal_pwr_ex.c ****   else if (regValue == PWR_CR3_VCOREH)
 1310              		.loc 1 839 8 is_stmt 1 view .LVU259
 840:Drivers/STM32N6xx_HAL_Driver/Src/stm32n6xx_hal_pwr_ex.c ****   {
 841:Drivers/STM32N6xx_HAL_Driver/Src/stm32n6xx_hal_pwr_ex.c ****     vcoreLevel = PWR_VDDCORE_ABOVE_HIGH_THRESHOLD;
 842:Drivers/STM32N6xx_HAL_Driver/Src/stm32n6xx_hal_pwr_ex.c ****   }
 843:Drivers/STM32N6xx_HAL_Driver/Src/stm32n6xx_hal_pwr_ex.c ****   /* The VCORE is between the thresholds */
 844:Drivers/STM32N6xx_HAL_Driver/Src/stm32n6xx_hal_pwr_ex.c ****   else
 845:Drivers/STM32N6xx_HAL_Driver/Src/stm32n6xx_hal_pwr_ex.c ****   {
 846:Drivers/STM32N6xx_HAL_Driver/Src/stm32n6xx_hal_pwr_ex.c ****     vcoreLevel = PWR_VDDCORE_BETWEEN_HIGH_LOW_THRESHOLD;
 1311              		.loc 1 846 16 is_stmt 0 view .LVU260
 1312 000e B0F5007F 		cmp	r0, #512
 1313 0012 18BF     		it	ne
 1314 0014 0020     		movne	r0, #0
 1315              	.LVL52:
 1316              	.L128:
 847:Drivers/STM32N6xx_HAL_Driver/Src/stm32n6xx_hal_pwr_ex.c ****   }
 848:Drivers/STM32N6xx_HAL_Driver/Src/stm32n6xx_hal_pwr_ex.c **** 
 849:Drivers/STM32N6xx_HAL_Driver/Src/stm32n6xx_hal_pwr_ex.c ****   return vcoreLevel;
 850:Drivers/STM32N6xx_HAL_Driver/Src/stm32n6xx_hal_pwr_ex.c **** }
 1317              		.loc 1 850 1 view .LVU261
 1318 0016 7047     		bx	lr
 1319              	.L136:
 1320              		.align	2
 1321              	.L135:
 1322 0018 00480246 		.word	1174554624
 1323              		.cfi_endproc
 1324              	.LFE834:
 1326              		.section	.text.HAL_PWREx_ConfigVddIORange,"ax",%progbits
 1327              		.align	1
 1328              		.p2align 2,,3
 1329              		.global	HAL_PWREx_ConfigVddIORange
 1330              		.syntax unified
 1331              		.thumb
 1332              		.thumb_func
 1333              		.fpu fpv5-d16
 1335              	HAL_PWREx_ConfigVddIORange:
 1336              	.LVL53:
 1337              	.LFB835:
 851:Drivers/STM32N6xx_HAL_Driver/Src/stm32n6xx_hal_pwr_ex.c **** 
 852:Drivers/STM32N6xx_HAL_Driver/Src/stm32n6xx_hal_pwr_ex.c **** /**
 853:Drivers/STM32N6xx_HAL_Driver/Src/stm32n6xx_hal_pwr_ex.c ****   * @brief  Configure the VDD I/O voltage range.
 854:Drivers/STM32N6xx_HAL_Driver/Src/stm32n6xx_hal_pwr_ex.c ****   * @param  VddIOPort VDD I/O
 855:Drivers/STM32N6xx_HAL_Driver/Src/stm32n6xx_hal_pwr_ex.c ****   *         This parameter can be one of the following values:
 856:Drivers/STM32N6xx_HAL_Driver/Src/stm32n6xx_hal_pwr_ex.c ****   *           @arg @ref PWR_VDDIO           Vdd IO
 857:Drivers/STM32N6xx_HAL_Driver/Src/stm32n6xx_hal_pwr_ex.c ****   *           @arg @ref PWR_VDDIO2          Vdd IO2
 858:Drivers/STM32N6xx_HAL_Driver/Src/stm32n6xx_hal_pwr_ex.c ****   *           @arg @ref PWR_VDDIO3          Vdd IO3
 859:Drivers/STM32N6xx_HAL_Driver/Src/stm32n6xx_hal_pwr_ex.c ****   *           @arg @ref PWR_VDDIO4          Vdd IO4
 860:Drivers/STM32N6xx_HAL_Driver/Src/stm32n6xx_hal_pwr_ex.c ****   *           @arg @ref PWR_VDDIO5          Vdd IO5
 861:Drivers/STM32N6xx_HAL_Driver/Src/stm32n6xx_hal_pwr_ex.c ****   * @param  VoltageRange Voltage range
ARM GAS  /tmp/ccUfYlKQ.s 			page 45


 862:Drivers/STM32N6xx_HAL_Driver/Src/stm32n6xx_hal_pwr_ex.c ****   *         This parameter can be one of the following values:
 863:Drivers/STM32N6xx_HAL_Driver/Src/stm32n6xx_hal_pwr_ex.c ****   *           @arg @ref PWR_VDDIO_RANGE_3V3   3v3 voltage range
 864:Drivers/STM32N6xx_HAL_Driver/Src/stm32n6xx_hal_pwr_ex.c ****   *           @arg @ref PWR_VDDIO_RANGE_1V8   1v8 voltage range
 865:Drivers/STM32N6xx_HAL_Driver/Src/stm32n6xx_hal_pwr_ex.c ****   * @note   HSLV_VDDIOx option bit must be set to allow 1v8 voltage
 866:Drivers/STM32N6xx_HAL_Driver/Src/stm32n6xx_hal_pwr_ex.c ****   *         range operation.
 867:Drivers/STM32N6xx_HAL_Driver/Src/stm32n6xx_hal_pwr_ex.c ****   * @note   Setting this configuration while VDDIOx is in 3v3 range
 868:Drivers/STM32N6xx_HAL_Driver/Src/stm32n6xx_hal_pwr_ex.c ****   *         damages the device.
 869:Drivers/STM32N6xx_HAL_Driver/Src/stm32n6xx_hal_pwr_ex.c ****   * @retval None.
 870:Drivers/STM32N6xx_HAL_Driver/Src/stm32n6xx_hal_pwr_ex.c ****   */
 871:Drivers/STM32N6xx_HAL_Driver/Src/stm32n6xx_hal_pwr_ex.c **** void HAL_PWREx_ConfigVddIORange(uint32_t VddIOPort, uint32_t VoltageRange)
 872:Drivers/STM32N6xx_HAL_Driver/Src/stm32n6xx_hal_pwr_ex.c **** {
 1338              		.loc 1 872 1 is_stmt 1 view -0
 1339              		.cfi_startproc
 1340              		@ args = 0, pretend = 0, frame = 0
 1341              		@ frame_needed = 0, uses_anonymous_args = 0
 1342              		@ link register save eliminated.
 873:Drivers/STM32N6xx_HAL_Driver/Src/stm32n6xx_hal_pwr_ex.c ****   /* Check the parameters */
 874:Drivers/STM32N6xx_HAL_Driver/Src/stm32n6xx_hal_pwr_ex.c ****   assert_param(IS_PWR_VDDIO(VddIOPort));
 1343              		.loc 1 874 3 view .LVU263
 875:Drivers/STM32N6xx_HAL_Driver/Src/stm32n6xx_hal_pwr_ex.c ****   assert_param(IS_PWR_VDDIO_RANGE(VoltageRange));
 1344              		.loc 1 875 3 view .LVU264
 876:Drivers/STM32N6xx_HAL_Driver/Src/stm32n6xx_hal_pwr_ex.c **** 
 877:Drivers/STM32N6xx_HAL_Driver/Src/stm32n6xx_hal_pwr_ex.c ****   switch (VddIOPort)
 1345              		.loc 1 877 3 view .LVU265
 1346 0000 0428     		cmp	r0, #4
 1347 0002 0BD8     		bhi	.L137
 1348 0004 DFE800F0 		tbb	[pc, r0]
 1349              	.L140:
 1350 0008 0B       		.byte	(.L144-.L140)/2
 1351 0009 13       		.byte	(.L143-.L140)/2
 1352 000a 1B       		.byte	(.L142-.L140)/2
 1353 000b 23       		.byte	(.L141-.L140)/2
 1354 000c 03       		.byte	(.L139-.L140)/2
 1355 000d 00       		.p2align 1
 1356              	.L139:
 878:Drivers/STM32N6xx_HAL_Driver/Src/stm32n6xx_hal_pwr_ex.c ****   {
 879:Drivers/STM32N6xx_HAL_Driver/Src/stm32n6xx_hal_pwr_ex.c ****     case PWR_VDDIO:
 880:Drivers/STM32N6xx_HAL_Driver/Src/stm32n6xx_hal_pwr_ex.c ****       MODIFY_REG(PWR->SVMCR3, PWR_SVMCR3_VDDIOVRSEL, VoltageRange << PWR_SVMCR3_VDDIOVRSEL_Pos);
 881:Drivers/STM32N6xx_HAL_Driver/Src/stm32n6xx_hal_pwr_ex.c ****       break;
 882:Drivers/STM32N6xx_HAL_Driver/Src/stm32n6xx_hal_pwr_ex.c **** 
 883:Drivers/STM32N6xx_HAL_Driver/Src/stm32n6xx_hal_pwr_ex.c ****     case PWR_VDDIO2:
 884:Drivers/STM32N6xx_HAL_Driver/Src/stm32n6xx_hal_pwr_ex.c ****       MODIFY_REG(PWR->SVMCR3, PWR_SVMCR3_VDDIO2VRSEL, VoltageRange << PWR_SVMCR3_VDDIO2VRSEL_Pos);
 885:Drivers/STM32N6xx_HAL_Driver/Src/stm32n6xx_hal_pwr_ex.c ****       break;
 886:Drivers/STM32N6xx_HAL_Driver/Src/stm32n6xx_hal_pwr_ex.c **** 
 887:Drivers/STM32N6xx_HAL_Driver/Src/stm32n6xx_hal_pwr_ex.c ****     case PWR_VDDIO3:
 888:Drivers/STM32N6xx_HAL_Driver/Src/stm32n6xx_hal_pwr_ex.c ****       MODIFY_REG(PWR->SVMCR3, PWR_SVMCR3_VDDIO3VRSEL, VoltageRange << PWR_SVMCR3_VDDIO3VRSEL_Pos);
 889:Drivers/STM32N6xx_HAL_Driver/Src/stm32n6xx_hal_pwr_ex.c ****       break;
 890:Drivers/STM32N6xx_HAL_Driver/Src/stm32n6xx_hal_pwr_ex.c **** 
 891:Drivers/STM32N6xx_HAL_Driver/Src/stm32n6xx_hal_pwr_ex.c ****     case PWR_VDDIO4:
 892:Drivers/STM32N6xx_HAL_Driver/Src/stm32n6xx_hal_pwr_ex.c ****       MODIFY_REG(PWR->SVMCR1, PWR_SVMCR1_VDDIO4VRSEL, VoltageRange << PWR_SVMCR1_VDDIO4VRSEL_Pos);
 893:Drivers/STM32N6xx_HAL_Driver/Src/stm32n6xx_hal_pwr_ex.c ****       break;
 894:Drivers/STM32N6xx_HAL_Driver/Src/stm32n6xx_hal_pwr_ex.c **** 
 895:Drivers/STM32N6xx_HAL_Driver/Src/stm32n6xx_hal_pwr_ex.c ****     case PWR_VDDIO5:
 896:Drivers/STM32N6xx_HAL_Driver/Src/stm32n6xx_hal_pwr_ex.c ****       MODIFY_REG(PWR->SVMCR2, PWR_SVMCR2_VDDIO5VRSEL, VoltageRange << PWR_SVMCR2_VDDIO5VRSEL_Pos);
 1357              		.loc 1 896 7 view .LVU266
 1358 000e 144A     		ldr	r2, .L145
 1359 0010 936B     		ldr	r3, [r2, #56]
ARM GAS  /tmp/ccUfYlKQ.s 			page 46


 1360 0012 23F08073 		bic	r3, r3, #16777216
 1361 0016 43EA0161 		orr	r1, r3, r1, lsl #24
 1362              	.LVL54:
 1363              		.loc 1 896 7 is_stmt 0 view .LVU267
 1364 001a 9163     		str	r1, [r2, #56]
 897:Drivers/STM32N6xx_HAL_Driver/Src/stm32n6xx_hal_pwr_ex.c ****       break;
 1365              		.loc 1 897 7 is_stmt 1 view .LVU268
 1366              	.L137:
 898:Drivers/STM32N6xx_HAL_Driver/Src/stm32n6xx_hal_pwr_ex.c **** 
 899:Drivers/STM32N6xx_HAL_Driver/Src/stm32n6xx_hal_pwr_ex.c ****     default:
 900:Drivers/STM32N6xx_HAL_Driver/Src/stm32n6xx_hal_pwr_ex.c ****       break;
 901:Drivers/STM32N6xx_HAL_Driver/Src/stm32n6xx_hal_pwr_ex.c ****   }
 902:Drivers/STM32N6xx_HAL_Driver/Src/stm32n6xx_hal_pwr_ex.c **** }
 1367              		.loc 1 902 1 is_stmt 0 view .LVU269
 1368 001c 7047     		bx	lr
 1369              	.LVL55:
 1370              	.L144:
 880:Drivers/STM32N6xx_HAL_Driver/Src/stm32n6xx_hal_pwr_ex.c ****       break;
 1371              		.loc 1 880 7 is_stmt 1 view .LVU270
 1372 001e 104A     		ldr	r2, .L145
 1373 0020 D36B     		ldr	r3, [r2, #60]
 1374 0022 23F08073 		bic	r3, r3, #16777216
 1375 0026 43EA0161 		orr	r1, r3, r1, lsl #24
 1376              	.LVL56:
 880:Drivers/STM32N6xx_HAL_Driver/Src/stm32n6xx_hal_pwr_ex.c ****       break;
 1377              		.loc 1 880 7 is_stmt 0 view .LVU271
 1378 002a D163     		str	r1, [r2, #60]
 881:Drivers/STM32N6xx_HAL_Driver/Src/stm32n6xx_hal_pwr_ex.c **** 
 1379              		.loc 1 881 7 is_stmt 1 view .LVU272
 1380 002c 7047     		bx	lr
 1381              	.LVL57:
 1382              	.L143:
 884:Drivers/STM32N6xx_HAL_Driver/Src/stm32n6xx_hal_pwr_ex.c ****       break;
 1383              		.loc 1 884 7 view .LVU273
 1384 002e 0C4A     		ldr	r2, .L145
 1385 0030 D36B     		ldr	r3, [r2, #60]
 1386 0032 23F00073 		bic	r3, r3, #33554432
 1387 0036 43EA4161 		orr	r1, r3, r1, lsl #25
 1388              	.LVL58:
 884:Drivers/STM32N6xx_HAL_Driver/Src/stm32n6xx_hal_pwr_ex.c ****       break;
 1389              		.loc 1 884 7 is_stmt 0 view .LVU274
 1390 003a D163     		str	r1, [r2, #60]
 885:Drivers/STM32N6xx_HAL_Driver/Src/stm32n6xx_hal_pwr_ex.c **** 
 1391              		.loc 1 885 7 is_stmt 1 view .LVU275
 1392 003c 7047     		bx	lr
 1393              	.LVL59:
 1394              	.L142:
 888:Drivers/STM32N6xx_HAL_Driver/Src/stm32n6xx_hal_pwr_ex.c ****       break;
 1395              		.loc 1 888 7 view .LVU276
 1396 003e 084A     		ldr	r2, .L145
 1397 0040 D36B     		ldr	r3, [r2, #60]
 1398 0042 23F08063 		bic	r3, r3, #67108864
 1399 0046 43EA8161 		orr	r1, r3, r1, lsl #26
 1400              	.LVL60:
 888:Drivers/STM32N6xx_HAL_Driver/Src/stm32n6xx_hal_pwr_ex.c ****       break;
 1401              		.loc 1 888 7 is_stmt 0 view .LVU277
 1402 004a D163     		str	r1, [r2, #60]
ARM GAS  /tmp/ccUfYlKQ.s 			page 47


 889:Drivers/STM32N6xx_HAL_Driver/Src/stm32n6xx_hal_pwr_ex.c **** 
 1403              		.loc 1 889 7 is_stmt 1 view .LVU278
 1404 004c 7047     		bx	lr
 1405              	.LVL61:
 1406              	.L141:
 892:Drivers/STM32N6xx_HAL_Driver/Src/stm32n6xx_hal_pwr_ex.c ****       break;
 1407              		.loc 1 892 7 view .LVU279
 1408 004e 044A     		ldr	r2, .L145
 1409 0050 536B     		ldr	r3, [r2, #52]
 1410 0052 23F08073 		bic	r3, r3, #16777216
 1411 0056 43EA0161 		orr	r1, r3, r1, lsl #24
 1412              	.LVL62:
 892:Drivers/STM32N6xx_HAL_Driver/Src/stm32n6xx_hal_pwr_ex.c ****       break;
 1413              		.loc 1 892 7 is_stmt 0 view .LVU280
 1414 005a 5163     		str	r1, [r2, #52]
 893:Drivers/STM32N6xx_HAL_Driver/Src/stm32n6xx_hal_pwr_ex.c **** 
 1415              		.loc 1 893 7 is_stmt 1 view .LVU281
 1416 005c 7047     		bx	lr
 1417              	.L146:
 1418 005e 00BF     		.align	2
 1419              	.L145:
 1420 0060 00480246 		.word	1174554624
 1421              		.cfi_endproc
 1422              	.LFE835:
 1424              		.section	.text.HAL_PWREx_GetVddIORange,"ax",%progbits
 1425              		.align	1
 1426              		.p2align 2,,3
 1427              		.global	HAL_PWREx_GetVddIORange
 1428              		.syntax unified
 1429              		.thumb
 1430              		.thumb_func
 1431              		.fpu fpv5-d16
 1433              	HAL_PWREx_GetVddIORange:
 1434              	.LVL63:
 1435              	.LFB836:
 903:Drivers/STM32N6xx_HAL_Driver/Src/stm32n6xx_hal_pwr_ex.c **** 
 904:Drivers/STM32N6xx_HAL_Driver/Src/stm32n6xx_hal_pwr_ex.c **** /**
 905:Drivers/STM32N6xx_HAL_Driver/Src/stm32n6xx_hal_pwr_ex.c ****   * @brief  Configure the VDD I/O voltage range.
 906:Drivers/STM32N6xx_HAL_Driver/Src/stm32n6xx_hal_pwr_ex.c ****   * @param  VddIOPort VDD I/O
 907:Drivers/STM32N6xx_HAL_Driver/Src/stm32n6xx_hal_pwr_ex.c ****   *         This parameter can be one of the following values:
 908:Drivers/STM32N6xx_HAL_Driver/Src/stm32n6xx_hal_pwr_ex.c ****   *           @arg @ref PWR_VDDIO           Vdd IO
 909:Drivers/STM32N6xx_HAL_Driver/Src/stm32n6xx_hal_pwr_ex.c ****   *           @arg @ref PWR_VDDIO2          Vdd IO2
 910:Drivers/STM32N6xx_HAL_Driver/Src/stm32n6xx_hal_pwr_ex.c ****   *           @arg @ref PWR_VDDIO3          Vdd IO3
 911:Drivers/STM32N6xx_HAL_Driver/Src/stm32n6xx_hal_pwr_ex.c ****   *           @arg @ref PWR_VDDIO4          Vdd IO4
 912:Drivers/STM32N6xx_HAL_Driver/Src/stm32n6xx_hal_pwr_ex.c ****   *           @arg @ref PWR_VDDIO5          Vdd IO5
 913:Drivers/STM32N6xx_HAL_Driver/Src/stm32n6xx_hal_pwr_ex.c ****   * @retval The voltage range:
 914:Drivers/STM32N6xx_HAL_Driver/Src/stm32n6xx_hal_pwr_ex.c ****   *           @arg @ref PWR_VDDIO_RANGE_3V3   3v3 voltage range
 915:Drivers/STM32N6xx_HAL_Driver/Src/stm32n6xx_hal_pwr_ex.c ****   *           @arg @ref PWR_VDDIO_RANGE_1V8   1v8 voltage range
 916:Drivers/STM32N6xx_HAL_Driver/Src/stm32n6xx_hal_pwr_ex.c ****   */
 917:Drivers/STM32N6xx_HAL_Driver/Src/stm32n6xx_hal_pwr_ex.c **** uint32_t HAL_PWREx_GetVddIORange(uint32_t VddIOPort)
 918:Drivers/STM32N6xx_HAL_Driver/Src/stm32n6xx_hal_pwr_ex.c **** {
 1436              		.loc 1 918 1 view -0
 1437              		.cfi_startproc
 1438              		@ args = 0, pretend = 0, frame = 0
 1439              		@ frame_needed = 0, uses_anonymous_args = 0
 1440              		@ link register save eliminated.
 919:Drivers/STM32N6xx_HAL_Driver/Src/stm32n6xx_hal_pwr_ex.c ****   uint32_t voltage_range = 0U;
ARM GAS  /tmp/ccUfYlKQ.s 			page 48


 1441              		.loc 1 919 3 view .LVU283
 920:Drivers/STM32N6xx_HAL_Driver/Src/stm32n6xx_hal_pwr_ex.c **** 
 921:Drivers/STM32N6xx_HAL_Driver/Src/stm32n6xx_hal_pwr_ex.c ****   /* Check the parameters */
 922:Drivers/STM32N6xx_HAL_Driver/Src/stm32n6xx_hal_pwr_ex.c ****   assert_param(IS_PWR_VDDIO(VddIOPort));
 1442              		.loc 1 922 3 view .LVU284
 923:Drivers/STM32N6xx_HAL_Driver/Src/stm32n6xx_hal_pwr_ex.c **** 
 924:Drivers/STM32N6xx_HAL_Driver/Src/stm32n6xx_hal_pwr_ex.c ****   switch (VddIOPort)
 1443              		.loc 1 924 3 view .LVU285
 1444 0000 0428     		cmp	r0, #4
 1445 0002 1DD8     		bhi	.L155
 1446 0004 DFE800F0 		tbb	[pc, r0]
 1447              	.L150:
 1448 0008 08       		.byte	(.L154-.L150)/2
 1449 0009 0D       		.byte	(.L153-.L150)/2
 1450 000a 12       		.byte	(.L152-.L150)/2
 1451 000b 17       		.byte	(.L151-.L150)/2
 1452 000c 03       		.byte	(.L149-.L150)/2
 1453 000d 00       		.p2align 1
 1454              	.L149:
 925:Drivers/STM32N6xx_HAL_Driver/Src/stm32n6xx_hal_pwr_ex.c ****   {
 926:Drivers/STM32N6xx_HAL_Driver/Src/stm32n6xx_hal_pwr_ex.c ****     case PWR_VDDIO:
 927:Drivers/STM32N6xx_HAL_Driver/Src/stm32n6xx_hal_pwr_ex.c ****       voltage_range = (READ_BIT(PWR->SVMCR3, PWR_SVMCR3_VDDIOVRSEL) >> PWR_SVMCR3_VDDIOVRSEL_Pos);
 928:Drivers/STM32N6xx_HAL_Driver/Src/stm32n6xx_hal_pwr_ex.c ****       break;
 929:Drivers/STM32N6xx_HAL_Driver/Src/stm32n6xx_hal_pwr_ex.c **** 
 930:Drivers/STM32N6xx_HAL_Driver/Src/stm32n6xx_hal_pwr_ex.c ****     case PWR_VDDIO2:
 931:Drivers/STM32N6xx_HAL_Driver/Src/stm32n6xx_hal_pwr_ex.c ****       voltage_range = (READ_BIT(PWR->SVMCR3, PWR_SVMCR3_VDDIO2VRSEL) >> PWR_SVMCR3_VDDIO2VRSEL_Pos)
 932:Drivers/STM32N6xx_HAL_Driver/Src/stm32n6xx_hal_pwr_ex.c ****       break;
 933:Drivers/STM32N6xx_HAL_Driver/Src/stm32n6xx_hal_pwr_ex.c **** 
 934:Drivers/STM32N6xx_HAL_Driver/Src/stm32n6xx_hal_pwr_ex.c ****     case PWR_VDDIO3:
 935:Drivers/STM32N6xx_HAL_Driver/Src/stm32n6xx_hal_pwr_ex.c ****       voltage_range = (READ_BIT(PWR->SVMCR3, PWR_SVMCR3_VDDIO3VRSEL) >> PWR_SVMCR3_VDDIO3VRSEL_Pos)
 936:Drivers/STM32N6xx_HAL_Driver/Src/stm32n6xx_hal_pwr_ex.c ****       break;
 937:Drivers/STM32N6xx_HAL_Driver/Src/stm32n6xx_hal_pwr_ex.c **** 
 938:Drivers/STM32N6xx_HAL_Driver/Src/stm32n6xx_hal_pwr_ex.c ****     case PWR_VDDIO4:
 939:Drivers/STM32N6xx_HAL_Driver/Src/stm32n6xx_hal_pwr_ex.c ****       voltage_range = (READ_BIT(PWR->SVMCR1, PWR_SVMCR1_VDDIO4VRSEL) >> PWR_SVMCR1_VDDIO4VRSEL_Pos)
 940:Drivers/STM32N6xx_HAL_Driver/Src/stm32n6xx_hal_pwr_ex.c ****       break;
 941:Drivers/STM32N6xx_HAL_Driver/Src/stm32n6xx_hal_pwr_ex.c **** 
 942:Drivers/STM32N6xx_HAL_Driver/Src/stm32n6xx_hal_pwr_ex.c ****     case PWR_VDDIO5:
 943:Drivers/STM32N6xx_HAL_Driver/Src/stm32n6xx_hal_pwr_ex.c ****       voltage_range = (READ_BIT(PWR->SVMCR2, PWR_SVMCR2_VDDIO5VRSEL) >> PWR_SVMCR2_VDDIO5VRSEL_Pos)
 1455              		.loc 1 943 7 view .LVU286
 1456              		.loc 1 943 24 is_stmt 0 view .LVU287
 1457 000e 0D4B     		ldr	r3, .L156
 1458 0010 986B     		ldr	r0, [r3, #56]
 1459              	.LVL64:
 1460              		.loc 1 943 21 view .LVU288
 1461 0012 C0F30060 		ubfx	r0, r0, #24, #1
 1462              	.LVL65:
 944:Drivers/STM32N6xx_HAL_Driver/Src/stm32n6xx_hal_pwr_ex.c ****       break;
 1463              		.loc 1 944 7 is_stmt 1 view .LVU289
 1464 0016 7047     		bx	lr
 1465              	.LVL66:
 1466              	.L154:
 927:Drivers/STM32N6xx_HAL_Driver/Src/stm32n6xx_hal_pwr_ex.c ****       break;
 1467              		.loc 1 927 7 view .LVU290
 927:Drivers/STM32N6xx_HAL_Driver/Src/stm32n6xx_hal_pwr_ex.c ****       break;
 1468              		.loc 1 927 24 is_stmt 0 view .LVU291
 1469 0018 0A4B     		ldr	r3, .L156
 1470 001a D86B     		ldr	r0, [r3, #60]
ARM GAS  /tmp/ccUfYlKQ.s 			page 49


 1471              	.LVL67:
 927:Drivers/STM32N6xx_HAL_Driver/Src/stm32n6xx_hal_pwr_ex.c ****       break;
 1472              		.loc 1 927 21 view .LVU292
 1473 001c C0F30060 		ubfx	r0, r0, #24, #1
 1474              	.LVL68:
 928:Drivers/STM32N6xx_HAL_Driver/Src/stm32n6xx_hal_pwr_ex.c **** 
 1475              		.loc 1 928 7 is_stmt 1 view .LVU293
 1476 0020 7047     		bx	lr
 1477              	.LVL69:
 1478              	.L153:
 931:Drivers/STM32N6xx_HAL_Driver/Src/stm32n6xx_hal_pwr_ex.c ****       break;
 1479              		.loc 1 931 7 view .LVU294
 931:Drivers/STM32N6xx_HAL_Driver/Src/stm32n6xx_hal_pwr_ex.c ****       break;
 1480              		.loc 1 931 24 is_stmt 0 view .LVU295
 1481 0022 084B     		ldr	r3, .L156
 1482 0024 D86B     		ldr	r0, [r3, #60]
 1483              	.LVL70:
 931:Drivers/STM32N6xx_HAL_Driver/Src/stm32n6xx_hal_pwr_ex.c ****       break;
 1484              		.loc 1 931 21 view .LVU296
 1485 0026 C0F34060 		ubfx	r0, r0, #25, #1
 1486              	.LVL71:
 932:Drivers/STM32N6xx_HAL_Driver/Src/stm32n6xx_hal_pwr_ex.c **** 
 1487              		.loc 1 932 7 is_stmt 1 view .LVU297
 1488 002a 7047     		bx	lr
 1489              	.LVL72:
 1490              	.L152:
 935:Drivers/STM32N6xx_HAL_Driver/Src/stm32n6xx_hal_pwr_ex.c ****       break;
 1491              		.loc 1 935 7 view .LVU298
 935:Drivers/STM32N6xx_HAL_Driver/Src/stm32n6xx_hal_pwr_ex.c ****       break;
 1492              		.loc 1 935 24 is_stmt 0 view .LVU299
 1493 002c 054B     		ldr	r3, .L156
 1494 002e D86B     		ldr	r0, [r3, #60]
 1495              	.LVL73:
 935:Drivers/STM32N6xx_HAL_Driver/Src/stm32n6xx_hal_pwr_ex.c ****       break;
 1496              		.loc 1 935 21 view .LVU300
 1497 0030 C0F38060 		ubfx	r0, r0, #26, #1
 1498              	.LVL74:
 936:Drivers/STM32N6xx_HAL_Driver/Src/stm32n6xx_hal_pwr_ex.c **** 
 1499              		.loc 1 936 7 is_stmt 1 view .LVU301
 1500 0034 7047     		bx	lr
 1501              	.LVL75:
 1502              	.L151:
 939:Drivers/STM32N6xx_HAL_Driver/Src/stm32n6xx_hal_pwr_ex.c ****       break;
 1503              		.loc 1 939 7 view .LVU302
 939:Drivers/STM32N6xx_HAL_Driver/Src/stm32n6xx_hal_pwr_ex.c ****       break;
 1504              		.loc 1 939 24 is_stmt 0 view .LVU303
 1505 0036 034B     		ldr	r3, .L156
 1506 0038 586B     		ldr	r0, [r3, #52]
 1507              	.LVL76:
 939:Drivers/STM32N6xx_HAL_Driver/Src/stm32n6xx_hal_pwr_ex.c ****       break;
 1508              		.loc 1 939 21 view .LVU304
 1509 003a C0F30060 		ubfx	r0, r0, #24, #1
 1510              	.LVL77:
 940:Drivers/STM32N6xx_HAL_Driver/Src/stm32n6xx_hal_pwr_ex.c **** 
 1511              		.loc 1 940 7 is_stmt 1 view .LVU305
 1512 003e 7047     		bx	lr
 1513              	.LVL78:
ARM GAS  /tmp/ccUfYlKQ.s 			page 50


 1514              	.L155:
 924:Drivers/STM32N6xx_HAL_Driver/Src/stm32n6xx_hal_pwr_ex.c ****   {
 1515              		.loc 1 924 3 is_stmt 0 view .LVU306
 1516 0040 0020     		movs	r0, #0
 1517              	.LVL79:
 945:Drivers/STM32N6xx_HAL_Driver/Src/stm32n6xx_hal_pwr_ex.c **** 
 946:Drivers/STM32N6xx_HAL_Driver/Src/stm32n6xx_hal_pwr_ex.c ****     default:
 947:Drivers/STM32N6xx_HAL_Driver/Src/stm32n6xx_hal_pwr_ex.c ****       break;
 948:Drivers/STM32N6xx_HAL_Driver/Src/stm32n6xx_hal_pwr_ex.c ****   }
 949:Drivers/STM32N6xx_HAL_Driver/Src/stm32n6xx_hal_pwr_ex.c ****   return voltage_range;
 1518              		.loc 1 949 3 is_stmt 1 view .LVU307
 950:Drivers/STM32N6xx_HAL_Driver/Src/stm32n6xx_hal_pwr_ex.c **** }
 1519              		.loc 1 950 1 is_stmt 0 view .LVU308
 1520 0042 7047     		bx	lr
 1521              	.L157:
 1522              		.align	2
 1523              	.L156:
 1524 0044 00480246 		.word	1174554624
 1525              		.cfi_endproc
 1526              	.LFE836:
 1528              		.section	.text.HAL_PWREx_EnableVddIO4RangeSTBY,"ax",%progbits
 1529              		.align	1
 1530              		.p2align 2,,3
 1531              		.global	HAL_PWREx_EnableVddIO4RangeSTBY
 1532              		.syntax unified
 1533              		.thumb
 1534              		.thumb_func
 1535              		.fpu fpv5-d16
 1537              	HAL_PWREx_EnableVddIO4RangeSTBY:
 1538              	.LFB837:
 951:Drivers/STM32N6xx_HAL_Driver/Src/stm32n6xx_hal_pwr_ex.c **** 
 952:Drivers/STM32N6xx_HAL_Driver/Src/stm32n6xx_hal_pwr_ex.c **** /**
 953:Drivers/STM32N6xx_HAL_Driver/Src/stm32n6xx_hal_pwr_ex.c ****   * @brief  Enable VDD IO4 voltage range Standby mode.
 954:Drivers/STM32N6xx_HAL_Driver/Src/stm32n6xx_hal_pwr_ex.c ****   * @note   When this bit is set, the VDDIO4VRSEL configuration
 955:Drivers/STM32N6xx_HAL_Driver/Src/stm32n6xx_hal_pwr_ex.c ****   *         is retained in Standby mode.
 956:Drivers/STM32N6xx_HAL_Driver/Src/stm32n6xx_hal_pwr_ex.c ****   * @note   This bit must be set if the VDDIO4 is in 1v8 range
 957:Drivers/STM32N6xx_HAL_Driver/Src/stm32n6xx_hal_pwr_ex.c ****   *         in Standby mode, and when exiting Standby mode.
 958:Drivers/STM32N6xx_HAL_Driver/Src/stm32n6xx_hal_pwr_ex.c ****   * @note   It must not be set when VDDIO4 is in 3v3 range in
 959:Drivers/STM32N6xx_HAL_Driver/Src/stm32n6xx_hal_pwr_ex.c ****   *         Standby mode, or when exiting Standby mode.
 960:Drivers/STM32N6xx_HAL_Driver/Src/stm32n6xx_hal_pwr_ex.c ****   * @retval None.
 961:Drivers/STM32N6xx_HAL_Driver/Src/stm32n6xx_hal_pwr_ex.c ****   */
 962:Drivers/STM32N6xx_HAL_Driver/Src/stm32n6xx_hal_pwr_ex.c **** void HAL_PWREx_EnableVddIO4RangeSTBY(void)
 963:Drivers/STM32N6xx_HAL_Driver/Src/stm32n6xx_hal_pwr_ex.c **** {
 1539              		.loc 1 963 1 is_stmt 1 view -0
 1540              		.cfi_startproc
 1541              		@ args = 0, pretend = 0, frame = 0
 1542              		@ frame_needed = 0, uses_anonymous_args = 0
 1543              		@ link register save eliminated.
 964:Drivers/STM32N6xx_HAL_Driver/Src/stm32n6xx_hal_pwr_ex.c ****   SET_BIT(PWR->SVMCR1, PWR_SVMCR1_VDDIO4VRSTBY);
 1544              		.loc 1 964 3 view .LVU310
 1545 0000 024A     		ldr	r2, .L159
 1546 0002 536B     		ldr	r3, [r2, #52]
 1547 0004 43F00073 		orr	r3, r3, #33554432
 1548 0008 5363     		str	r3, [r2, #52]
 965:Drivers/STM32N6xx_HAL_Driver/Src/stm32n6xx_hal_pwr_ex.c **** }
 1549              		.loc 1 965 1 is_stmt 0 view .LVU311
 1550 000a 7047     		bx	lr
ARM GAS  /tmp/ccUfYlKQ.s 			page 51


 1551              	.L160:
 1552              		.align	2
 1553              	.L159:
 1554 000c 00480246 		.word	1174554624
 1555              		.cfi_endproc
 1556              	.LFE837:
 1558              		.section	.text.HAL_PWREx_DisableVddIO4RangeSTBY,"ax",%progbits
 1559              		.align	1
 1560              		.p2align 2,,3
 1561              		.global	HAL_PWREx_DisableVddIO4RangeSTBY
 1562              		.syntax unified
 1563              		.thumb
 1564              		.thumb_func
 1565              		.fpu fpv5-d16
 1567              	HAL_PWREx_DisableVddIO4RangeSTBY:
 1568              	.LFB838:
 966:Drivers/STM32N6xx_HAL_Driver/Src/stm32n6xx_hal_pwr_ex.c **** 
 967:Drivers/STM32N6xx_HAL_Driver/Src/stm32n6xx_hal_pwr_ex.c **** /**
 968:Drivers/STM32N6xx_HAL_Driver/Src/stm32n6xx_hal_pwr_ex.c ****   * @brief  Disable VDD IO4 voltage range Standby mode.
 969:Drivers/STM32N6xx_HAL_Driver/Src/stm32n6xx_hal_pwr_ex.c ****   * @retval None.
 970:Drivers/STM32N6xx_HAL_Driver/Src/stm32n6xx_hal_pwr_ex.c ****   */
 971:Drivers/STM32N6xx_HAL_Driver/Src/stm32n6xx_hal_pwr_ex.c **** void HAL_PWREx_DisableVddIO4RangeSTBY(void)
 972:Drivers/STM32N6xx_HAL_Driver/Src/stm32n6xx_hal_pwr_ex.c **** {
 1569              		.loc 1 972 1 is_stmt 1 view -0
 1570              		.cfi_startproc
 1571              		@ args = 0, pretend = 0, frame = 0
 1572              		@ frame_needed = 0, uses_anonymous_args = 0
 1573              		@ link register save eliminated.
 973:Drivers/STM32N6xx_HAL_Driver/Src/stm32n6xx_hal_pwr_ex.c ****   CLEAR_BIT(PWR->SVMCR1, PWR_SVMCR1_VDDIO4VRSTBY);
 1574              		.loc 1 973 3 view .LVU313
 1575 0000 024A     		ldr	r2, .L162
 1576 0002 536B     		ldr	r3, [r2, #52]
 1577 0004 23F00073 		bic	r3, r3, #33554432
 1578 0008 5363     		str	r3, [r2, #52]
 974:Drivers/STM32N6xx_HAL_Driver/Src/stm32n6xx_hal_pwr_ex.c **** }
 1579              		.loc 1 974 1 is_stmt 0 view .LVU314
 1580 000a 7047     		bx	lr
 1581              	.L163:
 1582              		.align	2
 1583              	.L162:
 1584 000c 00480246 		.word	1174554624
 1585              		.cfi_endproc
 1586              	.LFE838:
 1588              		.section	.text.HAL_PWREx_EnableVddIO5RangeSTBY,"ax",%progbits
 1589              		.align	1
 1590              		.p2align 2,,3
 1591              		.global	HAL_PWREx_EnableVddIO5RangeSTBY
 1592              		.syntax unified
 1593              		.thumb
 1594              		.thumb_func
 1595              		.fpu fpv5-d16
 1597              	HAL_PWREx_EnableVddIO5RangeSTBY:
 1598              	.LFB839:
 975:Drivers/STM32N6xx_HAL_Driver/Src/stm32n6xx_hal_pwr_ex.c **** 
 976:Drivers/STM32N6xx_HAL_Driver/Src/stm32n6xx_hal_pwr_ex.c **** /**
 977:Drivers/STM32N6xx_HAL_Driver/Src/stm32n6xx_hal_pwr_ex.c ****   * @brief  Enable VDD IO5 voltage range Standby mode.
 978:Drivers/STM32N6xx_HAL_Driver/Src/stm32n6xx_hal_pwr_ex.c ****   * @note   When this bit is set, the VDDIO5VRSEL configuration
ARM GAS  /tmp/ccUfYlKQ.s 			page 52


 979:Drivers/STM32N6xx_HAL_Driver/Src/stm32n6xx_hal_pwr_ex.c ****   *         is retained in Standby mode.
 980:Drivers/STM32N6xx_HAL_Driver/Src/stm32n6xx_hal_pwr_ex.c ****   * @note   This bit must be set if the VDDIO5 is in 1v8 range
 981:Drivers/STM32N6xx_HAL_Driver/Src/stm32n6xx_hal_pwr_ex.c ****   *         in Standby mode, and when exiting Standby mode.
 982:Drivers/STM32N6xx_HAL_Driver/Src/stm32n6xx_hal_pwr_ex.c ****   * @note   It must not be set when VDDIO5 is in 3v3 range in
 983:Drivers/STM32N6xx_HAL_Driver/Src/stm32n6xx_hal_pwr_ex.c ****   *         Standby mode, or when exiting Standby mode.
 984:Drivers/STM32N6xx_HAL_Driver/Src/stm32n6xx_hal_pwr_ex.c ****   * @retval None.
 985:Drivers/STM32N6xx_HAL_Driver/Src/stm32n6xx_hal_pwr_ex.c ****   */
 986:Drivers/STM32N6xx_HAL_Driver/Src/stm32n6xx_hal_pwr_ex.c **** void HAL_PWREx_EnableVddIO5RangeSTBY(void)
 987:Drivers/STM32N6xx_HAL_Driver/Src/stm32n6xx_hal_pwr_ex.c **** {
 1599              		.loc 1 987 1 is_stmt 1 view -0
 1600              		.cfi_startproc
 1601              		@ args = 0, pretend = 0, frame = 0
 1602              		@ frame_needed = 0, uses_anonymous_args = 0
 1603              		@ link register save eliminated.
 988:Drivers/STM32N6xx_HAL_Driver/Src/stm32n6xx_hal_pwr_ex.c ****   SET_BIT(PWR->SVMCR2, PWR_SVMCR2_VDDIO5VRSTBY);
 1604              		.loc 1 988 3 view .LVU316
 1605 0000 024A     		ldr	r2, .L165
 1606 0002 936B     		ldr	r3, [r2, #56]
 1607 0004 43F00073 		orr	r3, r3, #33554432
 1608 0008 9363     		str	r3, [r2, #56]
 989:Drivers/STM32N6xx_HAL_Driver/Src/stm32n6xx_hal_pwr_ex.c **** }
 1609              		.loc 1 989 1 is_stmt 0 view .LVU317
 1610 000a 7047     		bx	lr
 1611              	.L166:
 1612              		.align	2
 1613              	.L165:
 1614 000c 00480246 		.word	1174554624
 1615              		.cfi_endproc
 1616              	.LFE839:
 1618              		.section	.text.HAL_PWREx_DisableVddIO5RangeSTBY,"ax",%progbits
 1619              		.align	1
 1620              		.p2align 2,,3
 1621              		.global	HAL_PWREx_DisableVddIO5RangeSTBY
 1622              		.syntax unified
 1623              		.thumb
 1624              		.thumb_func
 1625              		.fpu fpv5-d16
 1627              	HAL_PWREx_DisableVddIO5RangeSTBY:
 1628              	.LFB840:
 990:Drivers/STM32N6xx_HAL_Driver/Src/stm32n6xx_hal_pwr_ex.c **** 
 991:Drivers/STM32N6xx_HAL_Driver/Src/stm32n6xx_hal_pwr_ex.c **** /**
 992:Drivers/STM32N6xx_HAL_Driver/Src/stm32n6xx_hal_pwr_ex.c ****   * @brief  Disable VDD IO5 voltage range Standby mode.
 993:Drivers/STM32N6xx_HAL_Driver/Src/stm32n6xx_hal_pwr_ex.c ****   * @retval None.
 994:Drivers/STM32N6xx_HAL_Driver/Src/stm32n6xx_hal_pwr_ex.c ****   */
 995:Drivers/STM32N6xx_HAL_Driver/Src/stm32n6xx_hal_pwr_ex.c **** void HAL_PWREx_DisableVddIO5RangeSTBY(void)
 996:Drivers/STM32N6xx_HAL_Driver/Src/stm32n6xx_hal_pwr_ex.c **** {
 1629              		.loc 1 996 1 is_stmt 1 view -0
 1630              		.cfi_startproc
 1631              		@ args = 0, pretend = 0, frame = 0
 1632              		@ frame_needed = 0, uses_anonymous_args = 0
 1633              		@ link register save eliminated.
 997:Drivers/STM32N6xx_HAL_Driver/Src/stm32n6xx_hal_pwr_ex.c ****   CLEAR_BIT(PWR->SVMCR2, PWR_SVMCR2_VDDIO5VRSTBY);
 1634              		.loc 1 997 3 view .LVU319
 1635 0000 024A     		ldr	r2, .L168
 1636 0002 936B     		ldr	r3, [r2, #56]
 1637 0004 23F00073 		bic	r3, r3, #33554432
 1638 0008 9363     		str	r3, [r2, #56]
ARM GAS  /tmp/ccUfYlKQ.s 			page 53


 998:Drivers/STM32N6xx_HAL_Driver/Src/stm32n6xx_hal_pwr_ex.c **** }
 1639              		.loc 1 998 1 is_stmt 0 view .LVU320
 1640 000a 7047     		bx	lr
 1641              	.L169:
 1642              		.align	2
 1643              	.L168:
 1644 000c 00480246 		.word	1174554624
 1645              		.cfi_endproc
 1646              	.LFE840:
 1648              		.section	.text.HAL_PWREx_EnableVddUSB,"ax",%progbits
 1649              		.align	1
 1650              		.p2align 2,,3
 1651              		.global	HAL_PWREx_EnableVddUSB
 1652              		.syntax unified
 1653              		.thumb
 1654              		.thumb_func
 1655              		.fpu fpv5-d16
 1657              	HAL_PWREx_EnableVddUSB:
 1658              	.LFB841:
 999:Drivers/STM32N6xx_HAL_Driver/Src/stm32n6xx_hal_pwr_ex.c **** 
1000:Drivers/STM32N6xx_HAL_Driver/Src/stm32n6xx_hal_pwr_ex.c **** /**
1001:Drivers/STM32N6xx_HAL_Driver/Src/stm32n6xx_hal_pwr_ex.c ****   * @brief  Enable VDDUSB supply valid.
1002:Drivers/STM32N6xx_HAL_Driver/Src/stm32n6xx_hal_pwr_ex.c ****   * @note   Setting this bit is mandatory to use the USB2 HS PHYs.
1003:Drivers/STM32N6xx_HAL_Driver/Src/stm32n6xx_hal_pwr_ex.c ****   *         is present for consumption saving.
1004:Drivers/STM32N6xx_HAL_Driver/Src/stm32n6xx_hal_pwr_ex.c ****   * @retval None.
1005:Drivers/STM32N6xx_HAL_Driver/Src/stm32n6xx_hal_pwr_ex.c ****   */
1006:Drivers/STM32N6xx_HAL_Driver/Src/stm32n6xx_hal_pwr_ex.c **** void HAL_PWREx_EnableVddUSB(void)
1007:Drivers/STM32N6xx_HAL_Driver/Src/stm32n6xx_hal_pwr_ex.c **** {
 1659              		.loc 1 1007 1 is_stmt 1 view -0
 1660              		.cfi_startproc
 1661              		@ args = 0, pretend = 0, frame = 0
 1662              		@ frame_needed = 0, uses_anonymous_args = 0
 1663              		@ link register save eliminated.
1008:Drivers/STM32N6xx_HAL_Driver/Src/stm32n6xx_hal_pwr_ex.c ****   SET_BIT(PWR->SVMCR3, PWR_SVMCR3_USB33SV);
 1664              		.loc 1 1008 3 view .LVU322
 1665 0000 024A     		ldr	r2, .L171
 1666 0002 D36B     		ldr	r3, [r2, #60]
 1667 0004 43F48063 		orr	r3, r3, #1024
 1668 0008 D363     		str	r3, [r2, #60]
1009:Drivers/STM32N6xx_HAL_Driver/Src/stm32n6xx_hal_pwr_ex.c **** }
 1669              		.loc 1 1009 1 is_stmt 0 view .LVU323
 1670 000a 7047     		bx	lr
 1671              	.L172:
 1672              		.align	2
 1673              	.L171:
 1674 000c 00480246 		.word	1174554624
 1675              		.cfi_endproc
 1676              	.LFE841:
 1678              		.section	.text.HAL_PWREx_DisableVddUSB,"ax",%progbits
 1679              		.align	1
 1680              		.p2align 2,,3
 1681              		.global	HAL_PWREx_DisableVddUSB
 1682              		.syntax unified
 1683              		.thumb
 1684              		.thumb_func
 1685              		.fpu fpv5-d16
 1687              	HAL_PWREx_DisableVddUSB:
ARM GAS  /tmp/ccUfYlKQ.s 			page 54


 1688              	.LFB842:
1010:Drivers/STM32N6xx_HAL_Driver/Src/stm32n6xx_hal_pwr_ex.c **** 
1011:Drivers/STM32N6xx_HAL_Driver/Src/stm32n6xx_hal_pwr_ex.c **** /**
1012:Drivers/STM32N6xx_HAL_Driver/Src/stm32n6xx_hal_pwr_ex.c ****   * @brief  Disable VDDUSB supply valid.
1013:Drivers/STM32N6xx_HAL_Driver/Src/stm32n6xx_hal_pwr_ex.c ****   * @retval None.
1014:Drivers/STM32N6xx_HAL_Driver/Src/stm32n6xx_hal_pwr_ex.c ****   */
1015:Drivers/STM32N6xx_HAL_Driver/Src/stm32n6xx_hal_pwr_ex.c **** void HAL_PWREx_DisableVddUSB(void)
1016:Drivers/STM32N6xx_HAL_Driver/Src/stm32n6xx_hal_pwr_ex.c **** {
 1689              		.loc 1 1016 1 is_stmt 1 view -0
 1690              		.cfi_startproc
 1691              		@ args = 0, pretend = 0, frame = 0
 1692              		@ frame_needed = 0, uses_anonymous_args = 0
 1693              		@ link register save eliminated.
1017:Drivers/STM32N6xx_HAL_Driver/Src/stm32n6xx_hal_pwr_ex.c ****   CLEAR_BIT(PWR->SVMCR3, PWR_SVMCR3_USB33SV);
 1694              		.loc 1 1017 3 view .LVU325
 1695 0000 024A     		ldr	r2, .L174
 1696 0002 D36B     		ldr	r3, [r2, #60]
 1697 0004 23F48063 		bic	r3, r3, #1024
 1698 0008 D363     		str	r3, [r2, #60]
1018:Drivers/STM32N6xx_HAL_Driver/Src/stm32n6xx_hal_pwr_ex.c **** }
 1699              		.loc 1 1018 1 is_stmt 0 view .LVU326
 1700 000a 7047     		bx	lr
 1701              	.L175:
 1702              		.align	2
 1703              	.L174:
 1704 000c 00480246 		.word	1174554624
 1705              		.cfi_endproc
 1706              	.LFE842:
 1708              		.section	.text.HAL_PWREx_EnableVddIO2,"ax",%progbits
 1709              		.align	1
 1710              		.p2align 2,,3
 1711              		.global	HAL_PWREx_EnableVddIO2
 1712              		.syntax unified
 1713              		.thumb
 1714              		.thumb_func
 1715              		.fpu fpv5-d16
 1717              	HAL_PWREx_EnableVddIO2:
 1718              	.LFB843:
1019:Drivers/STM32N6xx_HAL_Driver/Src/stm32n6xx_hal_pwr_ex.c **** 
1020:Drivers/STM32N6xx_HAL_Driver/Src/stm32n6xx_hal_pwr_ex.c **** /**
1021:Drivers/STM32N6xx_HAL_Driver/Src/stm32n6xx_hal_pwr_ex.c ****   * @brief  Enable VDDIO2 supply valid.
1022:Drivers/STM32N6xx_HAL_Driver/Src/stm32n6xx_hal_pwr_ex.c ****   * @note   Setting this bit is mandatory to use PO[5:0] and PP[15:0] I/Os.
1023:Drivers/STM32N6xx_HAL_Driver/Src/stm32n6xx_hal_pwr_ex.c ****   * @retval None.
1024:Drivers/STM32N6xx_HAL_Driver/Src/stm32n6xx_hal_pwr_ex.c ****   */
1025:Drivers/STM32N6xx_HAL_Driver/Src/stm32n6xx_hal_pwr_ex.c **** void HAL_PWREx_EnableVddIO2(void)
1026:Drivers/STM32N6xx_HAL_Driver/Src/stm32n6xx_hal_pwr_ex.c **** {
 1719              		.loc 1 1026 1 is_stmt 1 view -0
 1720              		.cfi_startproc
 1721              		@ args = 0, pretend = 0, frame = 0
 1722              		@ frame_needed = 0, uses_anonymous_args = 0
 1723              		@ link register save eliminated.
1027:Drivers/STM32N6xx_HAL_Driver/Src/stm32n6xx_hal_pwr_ex.c ****   SET_BIT(PWR->SVMCR3, PWR_SVMCR3_VDDIO2SV);
 1724              		.loc 1 1027 3 view .LVU328
 1725 0000 024A     		ldr	r2, .L177
 1726 0002 D36B     		ldr	r3, [r2, #60]
 1727 0004 43F48073 		orr	r3, r3, #256
 1728 0008 D363     		str	r3, [r2, #60]
ARM GAS  /tmp/ccUfYlKQ.s 			page 55


1028:Drivers/STM32N6xx_HAL_Driver/Src/stm32n6xx_hal_pwr_ex.c **** }
 1729              		.loc 1 1028 1 is_stmt 0 view .LVU329
 1730 000a 7047     		bx	lr
 1731              	.L178:
 1732              		.align	2
 1733              	.L177:
 1734 000c 00480246 		.word	1174554624
 1735              		.cfi_endproc
 1736              	.LFE843:
 1738              		.section	.text.HAL_PWREx_DisableVddIO2,"ax",%progbits
 1739              		.align	1
 1740              		.p2align 2,,3
 1741              		.global	HAL_PWREx_DisableVddIO2
 1742              		.syntax unified
 1743              		.thumb
 1744              		.thumb_func
 1745              		.fpu fpv5-d16
 1747              	HAL_PWREx_DisableVddIO2:
 1748              	.LFB844:
1029:Drivers/STM32N6xx_HAL_Driver/Src/stm32n6xx_hal_pwr_ex.c **** 
1030:Drivers/STM32N6xx_HAL_Driver/Src/stm32n6xx_hal_pwr_ex.c **** /**
1031:Drivers/STM32N6xx_HAL_Driver/Src/stm32n6xx_hal_pwr_ex.c ****   * @brief  Disable VDDIO2 supply valid.
1032:Drivers/STM32N6xx_HAL_Driver/Src/stm32n6xx_hal_pwr_ex.c ****   * @retval None.
1033:Drivers/STM32N6xx_HAL_Driver/Src/stm32n6xx_hal_pwr_ex.c ****   */
1034:Drivers/STM32N6xx_HAL_Driver/Src/stm32n6xx_hal_pwr_ex.c **** void HAL_PWREx_DisableVddIO2(void)
1035:Drivers/STM32N6xx_HAL_Driver/Src/stm32n6xx_hal_pwr_ex.c **** {
 1749              		.loc 1 1035 1 is_stmt 1 view -0
 1750              		.cfi_startproc
 1751              		@ args = 0, pretend = 0, frame = 0
 1752              		@ frame_needed = 0, uses_anonymous_args = 0
 1753              		@ link register save eliminated.
1036:Drivers/STM32N6xx_HAL_Driver/Src/stm32n6xx_hal_pwr_ex.c ****   CLEAR_BIT(PWR->SVMCR3, PWR_SVMCR3_VDDIO2SV);
 1754              		.loc 1 1036 3 view .LVU331
 1755 0000 024A     		ldr	r2, .L180
 1756 0002 D36B     		ldr	r3, [r2, #60]
 1757 0004 23F48073 		bic	r3, r3, #256
 1758 0008 D363     		str	r3, [r2, #60]
1037:Drivers/STM32N6xx_HAL_Driver/Src/stm32n6xx_hal_pwr_ex.c **** }
 1759              		.loc 1 1037 1 is_stmt 0 view .LVU332
 1760 000a 7047     		bx	lr
 1761              	.L181:
 1762              		.align	2
 1763              	.L180:
 1764 000c 00480246 		.word	1174554624
 1765              		.cfi_endproc
 1766              	.LFE844:
 1768              		.section	.text.HAL_PWREx_EnableVddIO3,"ax",%progbits
 1769              		.align	1
 1770              		.p2align 2,,3
 1771              		.global	HAL_PWREx_EnableVddIO3
 1772              		.syntax unified
 1773              		.thumb
 1774              		.thumb_func
 1775              		.fpu fpv5-d16
 1777              	HAL_PWREx_EnableVddIO3:
 1778              	.LFB845:
1038:Drivers/STM32N6xx_HAL_Driver/Src/stm32n6xx_hal_pwr_ex.c **** 
ARM GAS  /tmp/ccUfYlKQ.s 			page 56


1039:Drivers/STM32N6xx_HAL_Driver/Src/stm32n6xx_hal_pwr_ex.c **** /**
1040:Drivers/STM32N6xx_HAL_Driver/Src/stm32n6xx_hal_pwr_ex.c ****   * @brief  Enable VDDIO3 supply valid.
1041:Drivers/STM32N6xx_HAL_Driver/Src/stm32n6xx_hal_pwr_ex.c ****   * @note   Setting this bit is mandatory to use PN[12:0] I/Os.
1042:Drivers/STM32N6xx_HAL_Driver/Src/stm32n6xx_hal_pwr_ex.c ****   * @retval None.
1043:Drivers/STM32N6xx_HAL_Driver/Src/stm32n6xx_hal_pwr_ex.c ****   */
1044:Drivers/STM32N6xx_HAL_Driver/Src/stm32n6xx_hal_pwr_ex.c **** void HAL_PWREx_EnableVddIO3(void)
1045:Drivers/STM32N6xx_HAL_Driver/Src/stm32n6xx_hal_pwr_ex.c **** {
 1779              		.loc 1 1045 1 is_stmt 1 view -0
 1780              		.cfi_startproc
 1781              		@ args = 0, pretend = 0, frame = 0
 1782              		@ frame_needed = 0, uses_anonymous_args = 0
 1783              		@ link register save eliminated.
1046:Drivers/STM32N6xx_HAL_Driver/Src/stm32n6xx_hal_pwr_ex.c ****   SET_BIT(PWR->SVMCR3, PWR_SVMCR3_VDDIO3SV);
 1784              		.loc 1 1046 3 view .LVU334
 1785 0000 024A     		ldr	r2, .L183
 1786 0002 D36B     		ldr	r3, [r2, #60]
 1787 0004 43F40073 		orr	r3, r3, #512
 1788 0008 D363     		str	r3, [r2, #60]
1047:Drivers/STM32N6xx_HAL_Driver/Src/stm32n6xx_hal_pwr_ex.c **** }
 1789              		.loc 1 1047 1 is_stmt 0 view .LVU335
 1790 000a 7047     		bx	lr
 1791              	.L184:
 1792              		.align	2
 1793              	.L183:
 1794 000c 00480246 		.word	1174554624
 1795              		.cfi_endproc
 1796              	.LFE845:
 1798              		.section	.text.HAL_PWREx_DisableVddIO3,"ax",%progbits
 1799              		.align	1
 1800              		.p2align 2,,3
 1801              		.global	HAL_PWREx_DisableVddIO3
 1802              		.syntax unified
 1803              		.thumb
 1804              		.thumb_func
 1805              		.fpu fpv5-d16
 1807              	HAL_PWREx_DisableVddIO3:
 1808              	.LFB846:
1048:Drivers/STM32N6xx_HAL_Driver/Src/stm32n6xx_hal_pwr_ex.c **** 
1049:Drivers/STM32N6xx_HAL_Driver/Src/stm32n6xx_hal_pwr_ex.c **** /**
1050:Drivers/STM32N6xx_HAL_Driver/Src/stm32n6xx_hal_pwr_ex.c ****   * @brief  Disable VDDIO3 supply valid.
1051:Drivers/STM32N6xx_HAL_Driver/Src/stm32n6xx_hal_pwr_ex.c ****   * @retval None.
1052:Drivers/STM32N6xx_HAL_Driver/Src/stm32n6xx_hal_pwr_ex.c ****   */
1053:Drivers/STM32N6xx_HAL_Driver/Src/stm32n6xx_hal_pwr_ex.c **** void HAL_PWREx_DisableVddIO3(void)
1054:Drivers/STM32N6xx_HAL_Driver/Src/stm32n6xx_hal_pwr_ex.c **** {
 1809              		.loc 1 1054 1 is_stmt 1 view -0
 1810              		.cfi_startproc
 1811              		@ args = 0, pretend = 0, frame = 0
 1812              		@ frame_needed = 0, uses_anonymous_args = 0
 1813              		@ link register save eliminated.
1055:Drivers/STM32N6xx_HAL_Driver/Src/stm32n6xx_hal_pwr_ex.c ****   CLEAR_BIT(PWR->SVMCR3, PWR_SVMCR3_VDDIO3SV);
 1814              		.loc 1 1055 3 view .LVU337
 1815 0000 024A     		ldr	r2, .L186
 1816 0002 D36B     		ldr	r3, [r2, #60]
 1817 0004 23F40073 		bic	r3, r3, #512
 1818 0008 D363     		str	r3, [r2, #60]
1056:Drivers/STM32N6xx_HAL_Driver/Src/stm32n6xx_hal_pwr_ex.c **** }
 1819              		.loc 1 1056 1 is_stmt 0 view .LVU338
ARM GAS  /tmp/ccUfYlKQ.s 			page 57


 1820 000a 7047     		bx	lr
 1821              	.L187:
 1822              		.align	2
 1823              	.L186:
 1824 000c 00480246 		.word	1174554624
 1825              		.cfi_endproc
 1826              	.LFE846:
 1828              		.section	.text.HAL_PWREx_EnableVddIO4,"ax",%progbits
 1829              		.align	1
 1830              		.p2align 2,,3
 1831              		.global	HAL_PWREx_EnableVddIO4
 1832              		.syntax unified
 1833              		.thumb
 1834              		.thumb_func
 1835              		.fpu fpv5-d16
 1837              	HAL_PWREx_EnableVddIO4:
 1838              	.LFB847:
1057:Drivers/STM32N6xx_HAL_Driver/Src/stm32n6xx_hal_pwr_ex.c **** 
1058:Drivers/STM32N6xx_HAL_Driver/Src/stm32n6xx_hal_pwr_ex.c **** /**
1059:Drivers/STM32N6xx_HAL_Driver/Src/stm32n6xx_hal_pwr_ex.c ****   * @brief  Enable VDDIO4 supply valid.
1060:Drivers/STM32N6xx_HAL_Driver/Src/stm32n6xx_hal_pwr_ex.c ****   * @note   Setting this bit is mandatory to use PB[9,8], PC[12:6], and PD[2] I/Os.
1061:Drivers/STM32N6xx_HAL_Driver/Src/stm32n6xx_hal_pwr_ex.c ****   * @retval None.
1062:Drivers/STM32N6xx_HAL_Driver/Src/stm32n6xx_hal_pwr_ex.c ****   */
1063:Drivers/STM32N6xx_HAL_Driver/Src/stm32n6xx_hal_pwr_ex.c **** void HAL_PWREx_EnableVddIO4(void)
1064:Drivers/STM32N6xx_HAL_Driver/Src/stm32n6xx_hal_pwr_ex.c **** {
 1839              		.loc 1 1064 1 is_stmt 1 view -0
 1840              		.cfi_startproc
 1841              		@ args = 0, pretend = 0, frame = 0
 1842              		@ frame_needed = 0, uses_anonymous_args = 0
 1843              		@ link register save eliminated.
1065:Drivers/STM32N6xx_HAL_Driver/Src/stm32n6xx_hal_pwr_ex.c ****   SET_BIT(PWR->SVMCR1, PWR_SVMCR1_VDDIO4SV);
 1844              		.loc 1 1065 3 view .LVU340
 1845 0000 024A     		ldr	r2, .L189
 1846 0002 536B     		ldr	r3, [r2, #52]
 1847 0004 43F48073 		orr	r3, r3, #256
 1848 0008 5363     		str	r3, [r2, #52]
1066:Drivers/STM32N6xx_HAL_Driver/Src/stm32n6xx_hal_pwr_ex.c **** }
 1849              		.loc 1 1066 1 is_stmt 0 view .LVU341
 1850 000a 7047     		bx	lr
 1851              	.L190:
 1852              		.align	2
 1853              	.L189:
 1854 000c 00480246 		.word	1174554624
 1855              		.cfi_endproc
 1856              	.LFE847:
 1858              		.section	.text.HAL_PWREx_DisableVddIO4,"ax",%progbits
 1859              		.align	1
 1860              		.p2align 2,,3
 1861              		.global	HAL_PWREx_DisableVddIO4
 1862              		.syntax unified
 1863              		.thumb
 1864              		.thumb_func
 1865              		.fpu fpv5-d16
 1867              	HAL_PWREx_DisableVddIO4:
 1868              	.LFB848:
1067:Drivers/STM32N6xx_HAL_Driver/Src/stm32n6xx_hal_pwr_ex.c **** 
1068:Drivers/STM32N6xx_HAL_Driver/Src/stm32n6xx_hal_pwr_ex.c **** /**
ARM GAS  /tmp/ccUfYlKQ.s 			page 58


1069:Drivers/STM32N6xx_HAL_Driver/Src/stm32n6xx_hal_pwr_ex.c ****   * @brief  Disable VDDIO4 supply valid.
1070:Drivers/STM32N6xx_HAL_Driver/Src/stm32n6xx_hal_pwr_ex.c ****   * @retval None.
1071:Drivers/STM32N6xx_HAL_Driver/Src/stm32n6xx_hal_pwr_ex.c ****   */
1072:Drivers/STM32N6xx_HAL_Driver/Src/stm32n6xx_hal_pwr_ex.c **** void HAL_PWREx_DisableVddIO4(void)
1073:Drivers/STM32N6xx_HAL_Driver/Src/stm32n6xx_hal_pwr_ex.c **** {
 1869              		.loc 1 1073 1 is_stmt 1 view -0
 1870              		.cfi_startproc
 1871              		@ args = 0, pretend = 0, frame = 0
 1872              		@ frame_needed = 0, uses_anonymous_args = 0
 1873              		@ link register save eliminated.
1074:Drivers/STM32N6xx_HAL_Driver/Src/stm32n6xx_hal_pwr_ex.c ****   CLEAR_BIT(PWR->SVMCR1, PWR_SVMCR1_VDDIO4SV);
 1874              		.loc 1 1074 3 view .LVU343
 1875 0000 024A     		ldr	r2, .L192
 1876 0002 536B     		ldr	r3, [r2, #52]
 1877 0004 23F48073 		bic	r3, r3, #256
 1878 0008 5363     		str	r3, [r2, #52]
1075:Drivers/STM32N6xx_HAL_Driver/Src/stm32n6xx_hal_pwr_ex.c **** }
 1879              		.loc 1 1075 1 is_stmt 0 view .LVU344
 1880 000a 7047     		bx	lr
 1881              	.L193:
 1882              		.align	2
 1883              	.L192:
 1884 000c 00480246 		.word	1174554624
 1885              		.cfi_endproc
 1886              	.LFE848:
 1888              		.section	.text.HAL_PWREx_EnableVddIO5,"ax",%progbits
 1889              		.align	1
 1890              		.p2align 2,,3
 1891              		.global	HAL_PWREx_EnableVddIO5
 1892              		.syntax unified
 1893              		.thumb
 1894              		.thumb_func
 1895              		.fpu fpv5-d16
 1897              	HAL_PWREx_EnableVddIO5:
 1898              	.LFB849:
1076:Drivers/STM32N6xx_HAL_Driver/Src/stm32n6xx_hal_pwr_ex.c **** 
1077:Drivers/STM32N6xx_HAL_Driver/Src/stm32n6xx_hal_pwr_ex.c **** /**
1078:Drivers/STM32N6xx_HAL_Driver/Src/stm32n6xx_hal_pwr_ex.c ****   * @brief  Enable VDDIO5 supply valid.
1079:Drivers/STM32N6xx_HAL_Driver/Src/stm32n6xx_hal_pwr_ex.c ****   * @note   Setting this bit is mandatory to use PN[12:0] I/Os.
1080:Drivers/STM32N6xx_HAL_Driver/Src/stm32n6xx_hal_pwr_ex.c ****   * @retval None.
1081:Drivers/STM32N6xx_HAL_Driver/Src/stm32n6xx_hal_pwr_ex.c ****   */
1082:Drivers/STM32N6xx_HAL_Driver/Src/stm32n6xx_hal_pwr_ex.c **** void HAL_PWREx_EnableVddIO5(void)
1083:Drivers/STM32N6xx_HAL_Driver/Src/stm32n6xx_hal_pwr_ex.c **** {
 1899              		.loc 1 1083 1 is_stmt 1 view -0
 1900              		.cfi_startproc
 1901              		@ args = 0, pretend = 0, frame = 0
 1902              		@ frame_needed = 0, uses_anonymous_args = 0
 1903              		@ link register save eliminated.
1084:Drivers/STM32N6xx_HAL_Driver/Src/stm32n6xx_hal_pwr_ex.c ****   SET_BIT(PWR->SVMCR2, PWR_SVMCR2_VDDIO5SV);
 1904              		.loc 1 1084 3 view .LVU346
 1905 0000 024A     		ldr	r2, .L195
 1906 0002 936B     		ldr	r3, [r2, #56]
 1907 0004 43F48073 		orr	r3, r3, #256
 1908 0008 9363     		str	r3, [r2, #56]
1085:Drivers/STM32N6xx_HAL_Driver/Src/stm32n6xx_hal_pwr_ex.c **** }
 1909              		.loc 1 1085 1 is_stmt 0 view .LVU347
 1910 000a 7047     		bx	lr
ARM GAS  /tmp/ccUfYlKQ.s 			page 59


 1911              	.L196:
 1912              		.align	2
 1913              	.L195:
 1914 000c 00480246 		.word	1174554624
 1915              		.cfi_endproc
 1916              	.LFE849:
 1918              		.section	.text.HAL_PWREx_DisableVddIO5,"ax",%progbits
 1919              		.align	1
 1920              		.p2align 2,,3
 1921              		.global	HAL_PWREx_DisableVddIO5
 1922              		.syntax unified
 1923              		.thumb
 1924              		.thumb_func
 1925              		.fpu fpv5-d16
 1927              	HAL_PWREx_DisableVddIO5:
 1928              	.LFB850:
1086:Drivers/STM32N6xx_HAL_Driver/Src/stm32n6xx_hal_pwr_ex.c **** 
1087:Drivers/STM32N6xx_HAL_Driver/Src/stm32n6xx_hal_pwr_ex.c **** /**
1088:Drivers/STM32N6xx_HAL_Driver/Src/stm32n6xx_hal_pwr_ex.c ****   * @brief  Disable VDDIO5 supply valid.
1089:Drivers/STM32N6xx_HAL_Driver/Src/stm32n6xx_hal_pwr_ex.c ****   * @retval None.
1090:Drivers/STM32N6xx_HAL_Driver/Src/stm32n6xx_hal_pwr_ex.c ****   */
1091:Drivers/STM32N6xx_HAL_Driver/Src/stm32n6xx_hal_pwr_ex.c **** void HAL_PWREx_DisableVddIO5(void)
1092:Drivers/STM32N6xx_HAL_Driver/Src/stm32n6xx_hal_pwr_ex.c **** {
 1929              		.loc 1 1092 1 is_stmt 1 view -0
 1930              		.cfi_startproc
 1931              		@ args = 0, pretend = 0, frame = 0
 1932              		@ frame_needed = 0, uses_anonymous_args = 0
 1933              		@ link register save eliminated.
1093:Drivers/STM32N6xx_HAL_Driver/Src/stm32n6xx_hal_pwr_ex.c ****   CLEAR_BIT(PWR->SVMCR2, PWR_SVMCR2_VDDIO5SV);
 1934              		.loc 1 1093 3 view .LVU349
 1935 0000 024A     		ldr	r2, .L198
 1936 0002 936B     		ldr	r3, [r2, #56]
 1937 0004 23F48073 		bic	r3, r3, #256
 1938 0008 9363     		str	r3, [r2, #56]
1094:Drivers/STM32N6xx_HAL_Driver/Src/stm32n6xx_hal_pwr_ex.c **** }
 1939              		.loc 1 1094 1 is_stmt 0 view .LVU350
 1940 000a 7047     		bx	lr
 1941              	.L199:
 1942              		.align	2
 1943              	.L198:
 1944 000c 00480246 		.word	1174554624
 1945              		.cfi_endproc
 1946              	.LFE850:
 1948              		.section	.text.HAL_PWREx_EnableVddA,"ax",%progbits
 1949              		.align	1
 1950              		.p2align 2,,3
 1951              		.global	HAL_PWREx_EnableVddA
 1952              		.syntax unified
 1953              		.thumb
 1954              		.thumb_func
 1955              		.fpu fpv5-d16
 1957              	HAL_PWREx_EnableVddA:
 1958              	.LFB851:
1095:Drivers/STM32N6xx_HAL_Driver/Src/stm32n6xx_hal_pwr_ex.c **** 
1096:Drivers/STM32N6xx_HAL_Driver/Src/stm32n6xx_hal_pwr_ex.c **** /**
1097:Drivers/STM32N6xx_HAL_Driver/Src/stm32n6xx_hal_pwr_ex.c ****   * @brief  Enable VDDA supply valid.
1098:Drivers/STM32N6xx_HAL_Driver/Src/stm32n6xx_hal_pwr_ex.c ****   * @note   Setting this bit is mandatory to use the analog to digital converters.
ARM GAS  /tmp/ccUfYlKQ.s 			page 60


1099:Drivers/STM32N6xx_HAL_Driver/Src/stm32n6xx_hal_pwr_ex.c ****   * @retval None.
1100:Drivers/STM32N6xx_HAL_Driver/Src/stm32n6xx_hal_pwr_ex.c ****   */
1101:Drivers/STM32N6xx_HAL_Driver/Src/stm32n6xx_hal_pwr_ex.c **** void HAL_PWREx_EnableVddA(void)
1102:Drivers/STM32N6xx_HAL_Driver/Src/stm32n6xx_hal_pwr_ex.c **** {
 1959              		.loc 1 1102 1 is_stmt 1 view -0
 1960              		.cfi_startproc
 1961              		@ args = 0, pretend = 0, frame = 0
 1962              		@ frame_needed = 0, uses_anonymous_args = 0
 1963              		@ link register save eliminated.
1103:Drivers/STM32N6xx_HAL_Driver/Src/stm32n6xx_hal_pwr_ex.c ****   SET_BIT(PWR->SVMCR3, PWR_SVMCR3_ASV);
 1964              		.loc 1 1103 3 view .LVU352
 1965 0000 024A     		ldr	r2, .L201
 1966 0002 D36B     		ldr	r3, [r2, #60]
 1967 0004 43F48053 		orr	r3, r3, #4096
 1968 0008 D363     		str	r3, [r2, #60]
1104:Drivers/STM32N6xx_HAL_Driver/Src/stm32n6xx_hal_pwr_ex.c **** }
 1969              		.loc 1 1104 1 is_stmt 0 view .LVU353
 1970 000a 7047     		bx	lr
 1971              	.L202:
 1972              		.align	2
 1973              	.L201:
 1974 000c 00480246 		.word	1174554624
 1975              		.cfi_endproc
 1976              	.LFE851:
 1978              		.section	.text.HAL_PWREx_DisableVddA,"ax",%progbits
 1979              		.align	1
 1980              		.p2align 2,,3
 1981              		.global	HAL_PWREx_DisableVddA
 1982              		.syntax unified
 1983              		.thumb
 1984              		.thumb_func
 1985              		.fpu fpv5-d16
 1987              	HAL_PWREx_DisableVddA:
 1988              	.LFB852:
1105:Drivers/STM32N6xx_HAL_Driver/Src/stm32n6xx_hal_pwr_ex.c **** 
1106:Drivers/STM32N6xx_HAL_Driver/Src/stm32n6xx_hal_pwr_ex.c **** /**
1107:Drivers/STM32N6xx_HAL_Driver/Src/stm32n6xx_hal_pwr_ex.c ****   * @brief  Disable VDDA supply valid.
1108:Drivers/STM32N6xx_HAL_Driver/Src/stm32n6xx_hal_pwr_ex.c ****   * @retval None.
1109:Drivers/STM32N6xx_HAL_Driver/Src/stm32n6xx_hal_pwr_ex.c ****   */
1110:Drivers/STM32N6xx_HAL_Driver/Src/stm32n6xx_hal_pwr_ex.c **** void HAL_PWREx_DisableVddA(void)
1111:Drivers/STM32N6xx_HAL_Driver/Src/stm32n6xx_hal_pwr_ex.c **** {
 1989              		.loc 1 1111 1 is_stmt 1 view -0
 1990              		.cfi_startproc
 1991              		@ args = 0, pretend = 0, frame = 0
 1992              		@ frame_needed = 0, uses_anonymous_args = 0
 1993              		@ link register save eliminated.
1112:Drivers/STM32N6xx_HAL_Driver/Src/stm32n6xx_hal_pwr_ex.c ****   CLEAR_BIT(PWR->SVMCR3, PWR_SVMCR3_ASV);
 1994              		.loc 1 1112 3 view .LVU355
 1995 0000 024A     		ldr	r2, .L204
 1996 0002 D36B     		ldr	r3, [r2, #60]
 1997 0004 23F48053 		bic	r3, r3, #4096
 1998 0008 D363     		str	r3, [r2, #60]
1113:Drivers/STM32N6xx_HAL_Driver/Src/stm32n6xx_hal_pwr_ex.c **** }
 1999              		.loc 1 1113 1 is_stmt 0 view .LVU356
 2000 000a 7047     		bx	lr
 2001              	.L205:
 2002              		.align	2
ARM GAS  /tmp/ccUfYlKQ.s 			page 61


 2003              	.L204:
 2004 000c 00480246 		.word	1174554624
 2005              		.cfi_endproc
 2006              	.LFE852:
 2008              		.section	.text.HAL_PWREx_EnableVddUSBVMEN,"ax",%progbits
 2009              		.align	1
 2010              		.p2align 2,,3
 2011              		.global	HAL_PWREx_EnableVddUSBVMEN
 2012              		.syntax unified
 2013              		.thumb
 2014              		.thumb_func
 2015              		.fpu fpv5-d16
 2017              	HAL_PWREx_EnableVddUSBVMEN:
 2018              	.LFB853:
1114:Drivers/STM32N6xx_HAL_Driver/Src/stm32n6xx_hal_pwr_ex.c **** 
1115:Drivers/STM32N6xx_HAL_Driver/Src/stm32n6xx_hal_pwr_ex.c **** /**
1116:Drivers/STM32N6xx_HAL_Driver/Src/stm32n6xx_hal_pwr_ex.c ****   * @brief  Enable the VDD33USB independent USB 33 voltage monitor.
1117:Drivers/STM32N6xx_HAL_Driver/Src/stm32n6xx_hal_pwr_ex.c ****   * @retval None.
1118:Drivers/STM32N6xx_HAL_Driver/Src/stm32n6xx_hal_pwr_ex.c ****   */
1119:Drivers/STM32N6xx_HAL_Driver/Src/stm32n6xx_hal_pwr_ex.c **** void HAL_PWREx_EnableVddUSBVMEN(void)
1120:Drivers/STM32N6xx_HAL_Driver/Src/stm32n6xx_hal_pwr_ex.c **** {
 2019              		.loc 1 1120 1 is_stmt 1 view -0
 2020              		.cfi_startproc
 2021              		@ args = 0, pretend = 0, frame = 0
 2022              		@ frame_needed = 0, uses_anonymous_args = 0
 2023              		@ link register save eliminated.
1121:Drivers/STM32N6xx_HAL_Driver/Src/stm32n6xx_hal_pwr_ex.c ****   SET_BIT(PWR->SVMCR3, PWR_SVMCR3_USB33VMEN);
 2024              		.loc 1 1121 3 view .LVU358
 2025 0000 024A     		ldr	r2, .L207
 2026 0002 D36B     		ldr	r3, [r2, #60]
 2027 0004 43F00403 		orr	r3, r3, #4
 2028 0008 D363     		str	r3, [r2, #60]
1122:Drivers/STM32N6xx_HAL_Driver/Src/stm32n6xx_hal_pwr_ex.c **** }
 2029              		.loc 1 1122 1 is_stmt 0 view .LVU359
 2030 000a 7047     		bx	lr
 2031              	.L208:
 2032              		.align	2
 2033              	.L207:
 2034 000c 00480246 		.word	1174554624
 2035              		.cfi_endproc
 2036              	.LFE853:
 2038              		.section	.text.HAL_PWREx_DisableVddUSBVMEN,"ax",%progbits
 2039              		.align	1
 2040              		.p2align 2,,3
 2041              		.global	HAL_PWREx_DisableVddUSBVMEN
 2042              		.syntax unified
 2043              		.thumb
 2044              		.thumb_func
 2045              		.fpu fpv5-d16
 2047              	HAL_PWREx_DisableVddUSBVMEN:
 2048              	.LFB854:
1123:Drivers/STM32N6xx_HAL_Driver/Src/stm32n6xx_hal_pwr_ex.c **** 
1124:Drivers/STM32N6xx_HAL_Driver/Src/stm32n6xx_hal_pwr_ex.c **** /**
1125:Drivers/STM32N6xx_HAL_Driver/Src/stm32n6xx_hal_pwr_ex.c ****   * @brief  Disable the VDD33USB independent USB 33 voltage monitor.
1126:Drivers/STM32N6xx_HAL_Driver/Src/stm32n6xx_hal_pwr_ex.c ****   * @retval None.
1127:Drivers/STM32N6xx_HAL_Driver/Src/stm32n6xx_hal_pwr_ex.c ****   */
1128:Drivers/STM32N6xx_HAL_Driver/Src/stm32n6xx_hal_pwr_ex.c **** void HAL_PWREx_DisableVddUSBVMEN(void)
ARM GAS  /tmp/ccUfYlKQ.s 			page 62


1129:Drivers/STM32N6xx_HAL_Driver/Src/stm32n6xx_hal_pwr_ex.c **** {
 2049              		.loc 1 1129 1 is_stmt 1 view -0
 2050              		.cfi_startproc
 2051              		@ args = 0, pretend = 0, frame = 0
 2052              		@ frame_needed = 0, uses_anonymous_args = 0
 2053              		@ link register save eliminated.
1130:Drivers/STM32N6xx_HAL_Driver/Src/stm32n6xx_hal_pwr_ex.c ****   CLEAR_BIT(PWR->SVMCR3, PWR_SVMCR3_USB33VMEN);
 2054              		.loc 1 1130 3 view .LVU361
 2055 0000 024A     		ldr	r2, .L210
 2056 0002 D36B     		ldr	r3, [r2, #60]
 2057 0004 23F00403 		bic	r3, r3, #4
 2058 0008 D363     		str	r3, [r2, #60]
1131:Drivers/STM32N6xx_HAL_Driver/Src/stm32n6xx_hal_pwr_ex.c **** }
 2059              		.loc 1 1131 1 is_stmt 0 view .LVU362
 2060 000a 7047     		bx	lr
 2061              	.L211:
 2062              		.align	2
 2063              	.L210:
 2064 000c 00480246 		.word	1174554624
 2065              		.cfi_endproc
 2066              	.LFE854:
 2068              		.section	.text.HAL_PWREx_EnableVddIO2VMEN,"ax",%progbits
 2069              		.align	1
 2070              		.p2align 2,,3
 2071              		.global	HAL_PWREx_EnableVddIO2VMEN
 2072              		.syntax unified
 2073              		.thumb
 2074              		.thumb_func
 2075              		.fpu fpv5-d16
 2077              	HAL_PWREx_EnableVddIO2VMEN:
 2078              	.LFB855:
1132:Drivers/STM32N6xx_HAL_Driver/Src/stm32n6xx_hal_pwr_ex.c **** 
1133:Drivers/STM32N6xx_HAL_Driver/Src/stm32n6xx_hal_pwr_ex.c **** /**
1134:Drivers/STM32N6xx_HAL_Driver/Src/stm32n6xx_hal_pwr_ex.c ****   * @brief  Enable the VDDIO2 independent voltage monitor.
1135:Drivers/STM32N6xx_HAL_Driver/Src/stm32n6xx_hal_pwr_ex.c ****   * @retval None.
1136:Drivers/STM32N6xx_HAL_Driver/Src/stm32n6xx_hal_pwr_ex.c ****   */
1137:Drivers/STM32N6xx_HAL_Driver/Src/stm32n6xx_hal_pwr_ex.c **** void HAL_PWREx_EnableVddIO2VMEN(void)
1138:Drivers/STM32N6xx_HAL_Driver/Src/stm32n6xx_hal_pwr_ex.c **** {
 2079              		.loc 1 1138 1 is_stmt 1 view -0
 2080              		.cfi_startproc
 2081              		@ args = 0, pretend = 0, frame = 0
 2082              		@ frame_needed = 0, uses_anonymous_args = 0
 2083              		@ link register save eliminated.
1139:Drivers/STM32N6xx_HAL_Driver/Src/stm32n6xx_hal_pwr_ex.c ****   SET_BIT(PWR->SVMCR3, PWR_SVMCR3_VDDIO2VMEN);
 2084              		.loc 1 1139 3 view .LVU364
 2085 0000 024A     		ldr	r2, .L213
 2086 0002 D36B     		ldr	r3, [r2, #60]
 2087 0004 43F00103 		orr	r3, r3, #1
 2088 0008 D363     		str	r3, [r2, #60]
1140:Drivers/STM32N6xx_HAL_Driver/Src/stm32n6xx_hal_pwr_ex.c **** }
 2089              		.loc 1 1140 1 is_stmt 0 view .LVU365
 2090 000a 7047     		bx	lr
 2091              	.L214:
 2092              		.align	2
 2093              	.L213:
 2094 000c 00480246 		.word	1174554624
 2095              		.cfi_endproc
ARM GAS  /tmp/ccUfYlKQ.s 			page 63


 2096              	.LFE855:
 2098              		.section	.text.HAL_PWREx_DisableVddIO2VMEN,"ax",%progbits
 2099              		.align	1
 2100              		.p2align 2,,3
 2101              		.global	HAL_PWREx_DisableVddIO2VMEN
 2102              		.syntax unified
 2103              		.thumb
 2104              		.thumb_func
 2105              		.fpu fpv5-d16
 2107              	HAL_PWREx_DisableVddIO2VMEN:
 2108              	.LFB856:
1141:Drivers/STM32N6xx_HAL_Driver/Src/stm32n6xx_hal_pwr_ex.c **** 
1142:Drivers/STM32N6xx_HAL_Driver/Src/stm32n6xx_hal_pwr_ex.c **** /**
1143:Drivers/STM32N6xx_HAL_Driver/Src/stm32n6xx_hal_pwr_ex.c ****   * @brief  Disable the VDDIO2 independent voltage monitor.
1144:Drivers/STM32N6xx_HAL_Driver/Src/stm32n6xx_hal_pwr_ex.c ****   * @retval None.
1145:Drivers/STM32N6xx_HAL_Driver/Src/stm32n6xx_hal_pwr_ex.c ****   */
1146:Drivers/STM32N6xx_HAL_Driver/Src/stm32n6xx_hal_pwr_ex.c **** void HAL_PWREx_DisableVddIO2VMEN(void)
1147:Drivers/STM32N6xx_HAL_Driver/Src/stm32n6xx_hal_pwr_ex.c **** {
 2109              		.loc 1 1147 1 is_stmt 1 view -0
 2110              		.cfi_startproc
 2111              		@ args = 0, pretend = 0, frame = 0
 2112              		@ frame_needed = 0, uses_anonymous_args = 0
 2113              		@ link register save eliminated.
1148:Drivers/STM32N6xx_HAL_Driver/Src/stm32n6xx_hal_pwr_ex.c ****   CLEAR_BIT(PWR->SVMCR3, PWR_SVMCR3_VDDIO2VMEN);
 2114              		.loc 1 1148 3 view .LVU367
 2115 0000 024A     		ldr	r2, .L216
 2116 0002 D36B     		ldr	r3, [r2, #60]
 2117 0004 23F00103 		bic	r3, r3, #1
 2118 0008 D363     		str	r3, [r2, #60]
1149:Drivers/STM32N6xx_HAL_Driver/Src/stm32n6xx_hal_pwr_ex.c **** }
 2119              		.loc 1 1149 1 is_stmt 0 view .LVU368
 2120 000a 7047     		bx	lr
 2121              	.L217:
 2122              		.align	2
 2123              	.L216:
 2124 000c 00480246 		.word	1174554624
 2125              		.cfi_endproc
 2126              	.LFE856:
 2128              		.section	.text.HAL_PWREx_EnableVddIO3VMEN,"ax",%progbits
 2129              		.align	1
 2130              		.p2align 2,,3
 2131              		.global	HAL_PWREx_EnableVddIO3VMEN
 2132              		.syntax unified
 2133              		.thumb
 2134              		.thumb_func
 2135              		.fpu fpv5-d16
 2137              	HAL_PWREx_EnableVddIO3VMEN:
 2138              	.LFB857:
1150:Drivers/STM32N6xx_HAL_Driver/Src/stm32n6xx_hal_pwr_ex.c **** 
1151:Drivers/STM32N6xx_HAL_Driver/Src/stm32n6xx_hal_pwr_ex.c **** /**
1152:Drivers/STM32N6xx_HAL_Driver/Src/stm32n6xx_hal_pwr_ex.c ****   * @brief  Enable the VDDIO3 independent voltage monitor.
1153:Drivers/STM32N6xx_HAL_Driver/Src/stm32n6xx_hal_pwr_ex.c ****   * @retval None.
1154:Drivers/STM32N6xx_HAL_Driver/Src/stm32n6xx_hal_pwr_ex.c ****   */
1155:Drivers/STM32N6xx_HAL_Driver/Src/stm32n6xx_hal_pwr_ex.c **** void HAL_PWREx_EnableVddIO3VMEN(void)
1156:Drivers/STM32N6xx_HAL_Driver/Src/stm32n6xx_hal_pwr_ex.c **** {
 2139              		.loc 1 1156 1 is_stmt 1 view -0
 2140              		.cfi_startproc
ARM GAS  /tmp/ccUfYlKQ.s 			page 64


 2141              		@ args = 0, pretend = 0, frame = 0
 2142              		@ frame_needed = 0, uses_anonymous_args = 0
 2143              		@ link register save eliminated.
1157:Drivers/STM32N6xx_HAL_Driver/Src/stm32n6xx_hal_pwr_ex.c ****   SET_BIT(PWR->SVMCR3, PWR_SVMCR3_VDDIO3VMEN);
 2144              		.loc 1 1157 3 view .LVU370
 2145 0000 024A     		ldr	r2, .L219
 2146 0002 D36B     		ldr	r3, [r2, #60]
 2147 0004 43F00203 		orr	r3, r3, #2
 2148 0008 D363     		str	r3, [r2, #60]
1158:Drivers/STM32N6xx_HAL_Driver/Src/stm32n6xx_hal_pwr_ex.c **** }
 2149              		.loc 1 1158 1 is_stmt 0 view .LVU371
 2150 000a 7047     		bx	lr
 2151              	.L220:
 2152              		.align	2
 2153              	.L219:
 2154 000c 00480246 		.word	1174554624
 2155              		.cfi_endproc
 2156              	.LFE857:
 2158              		.section	.text.HAL_PWREx_DisableVddIO3VMEN,"ax",%progbits
 2159              		.align	1
 2160              		.p2align 2,,3
 2161              		.global	HAL_PWREx_DisableVddIO3VMEN
 2162              		.syntax unified
 2163              		.thumb
 2164              		.thumb_func
 2165              		.fpu fpv5-d16
 2167              	HAL_PWREx_DisableVddIO3VMEN:
 2168              	.LFB858:
1159:Drivers/STM32N6xx_HAL_Driver/Src/stm32n6xx_hal_pwr_ex.c **** 
1160:Drivers/STM32N6xx_HAL_Driver/Src/stm32n6xx_hal_pwr_ex.c **** /**
1161:Drivers/STM32N6xx_HAL_Driver/Src/stm32n6xx_hal_pwr_ex.c ****   * @brief  Disable the VDDIO3 independent voltage monitor.
1162:Drivers/STM32N6xx_HAL_Driver/Src/stm32n6xx_hal_pwr_ex.c ****   * @retval None.
1163:Drivers/STM32N6xx_HAL_Driver/Src/stm32n6xx_hal_pwr_ex.c ****   */
1164:Drivers/STM32N6xx_HAL_Driver/Src/stm32n6xx_hal_pwr_ex.c **** void HAL_PWREx_DisableVddIO3VMEN(void)
1165:Drivers/STM32N6xx_HAL_Driver/Src/stm32n6xx_hal_pwr_ex.c **** {
 2169              		.loc 1 1165 1 is_stmt 1 view -0
 2170              		.cfi_startproc
 2171              		@ args = 0, pretend = 0, frame = 0
 2172              		@ frame_needed = 0, uses_anonymous_args = 0
 2173              		@ link register save eliminated.
1166:Drivers/STM32N6xx_HAL_Driver/Src/stm32n6xx_hal_pwr_ex.c ****   CLEAR_BIT(PWR->SVMCR3, PWR_SVMCR3_VDDIO3VMEN);
 2174              		.loc 1 1166 3 view .LVU373
 2175 0000 024A     		ldr	r2, .L222
 2176 0002 D36B     		ldr	r3, [r2, #60]
 2177 0004 23F00203 		bic	r3, r3, #2
 2178 0008 D363     		str	r3, [r2, #60]
1167:Drivers/STM32N6xx_HAL_Driver/Src/stm32n6xx_hal_pwr_ex.c **** }
 2179              		.loc 1 1167 1 is_stmt 0 view .LVU374
 2180 000a 7047     		bx	lr
 2181              	.L223:
 2182              		.align	2
 2183              	.L222:
 2184 000c 00480246 		.word	1174554624
 2185              		.cfi_endproc
 2186              	.LFE858:
 2188              		.section	.text.HAL_PWREx_EnableVddIO4VMEN,"ax",%progbits
 2189              		.align	1
ARM GAS  /tmp/ccUfYlKQ.s 			page 65


 2190              		.p2align 2,,3
 2191              		.global	HAL_PWREx_EnableVddIO4VMEN
 2192              		.syntax unified
 2193              		.thumb
 2194              		.thumb_func
 2195              		.fpu fpv5-d16
 2197              	HAL_PWREx_EnableVddIO4VMEN:
 2198              	.LFB859:
1168:Drivers/STM32N6xx_HAL_Driver/Src/stm32n6xx_hal_pwr_ex.c **** 
1169:Drivers/STM32N6xx_HAL_Driver/Src/stm32n6xx_hal_pwr_ex.c **** /**
1170:Drivers/STM32N6xx_HAL_Driver/Src/stm32n6xx_hal_pwr_ex.c ****   * @brief  Enable the VDDIO4 independent voltage monitor.
1171:Drivers/STM32N6xx_HAL_Driver/Src/stm32n6xx_hal_pwr_ex.c ****   * @retval None.
1172:Drivers/STM32N6xx_HAL_Driver/Src/stm32n6xx_hal_pwr_ex.c ****   */
1173:Drivers/STM32N6xx_HAL_Driver/Src/stm32n6xx_hal_pwr_ex.c **** void HAL_PWREx_EnableVddIO4VMEN(void)
1174:Drivers/STM32N6xx_HAL_Driver/Src/stm32n6xx_hal_pwr_ex.c **** {
 2199              		.loc 1 1174 1 is_stmt 1 view -0
 2200              		.cfi_startproc
 2201              		@ args = 0, pretend = 0, frame = 0
 2202              		@ frame_needed = 0, uses_anonymous_args = 0
 2203              		@ link register save eliminated.
1175:Drivers/STM32N6xx_HAL_Driver/Src/stm32n6xx_hal_pwr_ex.c ****   SET_BIT(PWR->SVMCR1, PWR_SVMCR1_VDDIO4VMEN);
 2204              		.loc 1 1175 3 view .LVU376
 2205 0000 024A     		ldr	r2, .L225
 2206 0002 536B     		ldr	r3, [r2, #52]
 2207 0004 43F00103 		orr	r3, r3, #1
 2208 0008 5363     		str	r3, [r2, #52]
1176:Drivers/STM32N6xx_HAL_Driver/Src/stm32n6xx_hal_pwr_ex.c **** }
 2209              		.loc 1 1176 1 is_stmt 0 view .LVU377
 2210 000a 7047     		bx	lr
 2211              	.L226:
 2212              		.align	2
 2213              	.L225:
 2214 000c 00480246 		.word	1174554624
 2215              		.cfi_endproc
 2216              	.LFE859:
 2218              		.section	.text.HAL_PWREx_DisableVddIO4VMEN,"ax",%progbits
 2219              		.align	1
 2220              		.p2align 2,,3
 2221              		.global	HAL_PWREx_DisableVddIO4VMEN
 2222              		.syntax unified
 2223              		.thumb
 2224              		.thumb_func
 2225              		.fpu fpv5-d16
 2227              	HAL_PWREx_DisableVddIO4VMEN:
 2228              	.LFB860:
1177:Drivers/STM32N6xx_HAL_Driver/Src/stm32n6xx_hal_pwr_ex.c **** 
1178:Drivers/STM32N6xx_HAL_Driver/Src/stm32n6xx_hal_pwr_ex.c **** /**
1179:Drivers/STM32N6xx_HAL_Driver/Src/stm32n6xx_hal_pwr_ex.c ****   * @brief  Disable the VDDIO4 independent voltage monitor.
1180:Drivers/STM32N6xx_HAL_Driver/Src/stm32n6xx_hal_pwr_ex.c ****   * @retval None.
1181:Drivers/STM32N6xx_HAL_Driver/Src/stm32n6xx_hal_pwr_ex.c ****   */
1182:Drivers/STM32N6xx_HAL_Driver/Src/stm32n6xx_hal_pwr_ex.c **** void HAL_PWREx_DisableVddIO4VMEN(void)
1183:Drivers/STM32N6xx_HAL_Driver/Src/stm32n6xx_hal_pwr_ex.c **** {
 2229              		.loc 1 1183 1 is_stmt 1 view -0
 2230              		.cfi_startproc
 2231              		@ args = 0, pretend = 0, frame = 0
 2232              		@ frame_needed = 0, uses_anonymous_args = 0
 2233              		@ link register save eliminated.
ARM GAS  /tmp/ccUfYlKQ.s 			page 66


1184:Drivers/STM32N6xx_HAL_Driver/Src/stm32n6xx_hal_pwr_ex.c ****   CLEAR_BIT(PWR->SVMCR1, PWR_SVMCR1_VDDIO4VMEN);
 2234              		.loc 1 1184 3 view .LVU379
 2235 0000 024A     		ldr	r2, .L228
 2236 0002 536B     		ldr	r3, [r2, #52]
 2237 0004 23F00103 		bic	r3, r3, #1
 2238 0008 5363     		str	r3, [r2, #52]
1185:Drivers/STM32N6xx_HAL_Driver/Src/stm32n6xx_hal_pwr_ex.c **** }
 2239              		.loc 1 1185 1 is_stmt 0 view .LVU380
 2240 000a 7047     		bx	lr
 2241              	.L229:
 2242              		.align	2
 2243              	.L228:
 2244 000c 00480246 		.word	1174554624
 2245              		.cfi_endproc
 2246              	.LFE860:
 2248              		.section	.text.HAL_PWREx_EnableVddIO5VMEN,"ax",%progbits
 2249              		.align	1
 2250              		.p2align 2,,3
 2251              		.global	HAL_PWREx_EnableVddIO5VMEN
 2252              		.syntax unified
 2253              		.thumb
 2254              		.thumb_func
 2255              		.fpu fpv5-d16
 2257              	HAL_PWREx_EnableVddIO5VMEN:
 2258              	.LFB861:
1186:Drivers/STM32N6xx_HAL_Driver/Src/stm32n6xx_hal_pwr_ex.c **** 
1187:Drivers/STM32N6xx_HAL_Driver/Src/stm32n6xx_hal_pwr_ex.c **** /**
1188:Drivers/STM32N6xx_HAL_Driver/Src/stm32n6xx_hal_pwr_ex.c ****   * @brief  Enable the VDDIO5 independent voltage monitor.
1189:Drivers/STM32N6xx_HAL_Driver/Src/stm32n6xx_hal_pwr_ex.c ****   * @retval None.
1190:Drivers/STM32N6xx_HAL_Driver/Src/stm32n6xx_hal_pwr_ex.c ****   */
1191:Drivers/STM32N6xx_HAL_Driver/Src/stm32n6xx_hal_pwr_ex.c **** void HAL_PWREx_EnableVddIO5VMEN(void)
1192:Drivers/STM32N6xx_HAL_Driver/Src/stm32n6xx_hal_pwr_ex.c **** {
 2259              		.loc 1 1192 1 is_stmt 1 view -0
 2260              		.cfi_startproc
 2261              		@ args = 0, pretend = 0, frame = 0
 2262              		@ frame_needed = 0, uses_anonymous_args = 0
 2263              		@ link register save eliminated.
1193:Drivers/STM32N6xx_HAL_Driver/Src/stm32n6xx_hal_pwr_ex.c ****   SET_BIT(PWR->SVMCR2, PWR_SVMCR2_VDDIO5VMEN);
 2264              		.loc 1 1193 3 view .LVU382
 2265 0000 024A     		ldr	r2, .L231
 2266 0002 936B     		ldr	r3, [r2, #56]
 2267 0004 43F00103 		orr	r3, r3, #1
 2268 0008 9363     		str	r3, [r2, #56]
1194:Drivers/STM32N6xx_HAL_Driver/Src/stm32n6xx_hal_pwr_ex.c **** }
 2269              		.loc 1 1194 1 is_stmt 0 view .LVU383
 2270 000a 7047     		bx	lr
 2271              	.L232:
 2272              		.align	2
 2273              	.L231:
 2274 000c 00480246 		.word	1174554624
 2275              		.cfi_endproc
 2276              	.LFE861:
 2278              		.section	.text.HAL_PWREx_DisableVddIO5VMEN,"ax",%progbits
 2279              		.align	1
 2280              		.p2align 2,,3
 2281              		.global	HAL_PWREx_DisableVddIO5VMEN
 2282              		.syntax unified
ARM GAS  /tmp/ccUfYlKQ.s 			page 67


 2283              		.thumb
 2284              		.thumb_func
 2285              		.fpu fpv5-d16
 2287              	HAL_PWREx_DisableVddIO5VMEN:
 2288              	.LFB862:
1195:Drivers/STM32N6xx_HAL_Driver/Src/stm32n6xx_hal_pwr_ex.c **** 
1196:Drivers/STM32N6xx_HAL_Driver/Src/stm32n6xx_hal_pwr_ex.c **** /**
1197:Drivers/STM32N6xx_HAL_Driver/Src/stm32n6xx_hal_pwr_ex.c ****   * @brief  Disable the VDDIO5 independent voltage monitor.
1198:Drivers/STM32N6xx_HAL_Driver/Src/stm32n6xx_hal_pwr_ex.c ****   * @retval None.
1199:Drivers/STM32N6xx_HAL_Driver/Src/stm32n6xx_hal_pwr_ex.c ****   */
1200:Drivers/STM32N6xx_HAL_Driver/Src/stm32n6xx_hal_pwr_ex.c **** void HAL_PWREx_DisableVddIO5VMEN(void)
1201:Drivers/STM32N6xx_HAL_Driver/Src/stm32n6xx_hal_pwr_ex.c **** {
 2289              		.loc 1 1201 1 is_stmt 1 view -0
 2290              		.cfi_startproc
 2291              		@ args = 0, pretend = 0, frame = 0
 2292              		@ frame_needed = 0, uses_anonymous_args = 0
 2293              		@ link register save eliminated.
1202:Drivers/STM32N6xx_HAL_Driver/Src/stm32n6xx_hal_pwr_ex.c ****   CLEAR_BIT(PWR->SVMCR2, PWR_SVMCR2_VDDIO5VMEN);
 2294              		.loc 1 1202 3 view .LVU385
 2295 0000 024A     		ldr	r2, .L234
 2296 0002 936B     		ldr	r3, [r2, #56]
 2297 0004 23F00103 		bic	r3, r3, #1
 2298 0008 9363     		str	r3, [r2, #56]
1203:Drivers/STM32N6xx_HAL_Driver/Src/stm32n6xx_hal_pwr_ex.c **** }
 2299              		.loc 1 1203 1 is_stmt 0 view .LVU386
 2300 000a 7047     		bx	lr
 2301              	.L235:
 2302              		.align	2
 2303              	.L234:
 2304 000c 00480246 		.word	1174554624
 2305              		.cfi_endproc
 2306              	.LFE862:
 2308              		.section	.text.HAL_PWREx_EnableVddAVMEN,"ax",%progbits
 2309              		.align	1
 2310              		.p2align 2,,3
 2311              		.global	HAL_PWREx_EnableVddAVMEN
 2312              		.syntax unified
 2313              		.thumb
 2314              		.thumb_func
 2315              		.fpu fpv5-d16
 2317              	HAL_PWREx_EnableVddAVMEN:
 2318              	.LFB863:
1204:Drivers/STM32N6xx_HAL_Driver/Src/stm32n6xx_hal_pwr_ex.c **** 
1205:Drivers/STM32N6xx_HAL_Driver/Src/stm32n6xx_hal_pwr_ex.c **** /**
1206:Drivers/STM32N6xx_HAL_Driver/Src/stm32n6xx_hal_pwr_ex.c ****   * @brief  Enable the VDDA18ADC independent ADC voltage monitor.
1207:Drivers/STM32N6xx_HAL_Driver/Src/stm32n6xx_hal_pwr_ex.c ****   * @retval None.
1208:Drivers/STM32N6xx_HAL_Driver/Src/stm32n6xx_hal_pwr_ex.c ****   */
1209:Drivers/STM32N6xx_HAL_Driver/Src/stm32n6xx_hal_pwr_ex.c **** void HAL_PWREx_EnableVddAVMEN(void)
1210:Drivers/STM32N6xx_HAL_Driver/Src/stm32n6xx_hal_pwr_ex.c **** {
 2319              		.loc 1 1210 1 is_stmt 1 view -0
 2320              		.cfi_startproc
 2321              		@ args = 0, pretend = 0, frame = 0
 2322              		@ frame_needed = 0, uses_anonymous_args = 0
 2323              		@ link register save eliminated.
1211:Drivers/STM32N6xx_HAL_Driver/Src/stm32n6xx_hal_pwr_ex.c ****   SET_BIT(PWR->SVMCR3, PWR_SVMCR3_AVMEN);
 2324              		.loc 1 1211 3 view .LVU388
 2325 0000 024A     		ldr	r2, .L237
ARM GAS  /tmp/ccUfYlKQ.s 			page 68


 2326 0002 D36B     		ldr	r3, [r2, #60]
 2327 0004 43F01003 		orr	r3, r3, #16
 2328 0008 D363     		str	r3, [r2, #60]
1212:Drivers/STM32N6xx_HAL_Driver/Src/stm32n6xx_hal_pwr_ex.c **** }
 2329              		.loc 1 1212 1 is_stmt 0 view .LVU389
 2330 000a 7047     		bx	lr
 2331              	.L238:
 2332              		.align	2
 2333              	.L237:
 2334 000c 00480246 		.word	1174554624
 2335              		.cfi_endproc
 2336              	.LFE863:
 2338              		.section	.text.HAL_PWREx_DisableVddAVMEN,"ax",%progbits
 2339              		.align	1
 2340              		.p2align 2,,3
 2341              		.global	HAL_PWREx_DisableVddAVMEN
 2342              		.syntax unified
 2343              		.thumb
 2344              		.thumb_func
 2345              		.fpu fpv5-d16
 2347              	HAL_PWREx_DisableVddAVMEN:
 2348              	.LFB864:
1213:Drivers/STM32N6xx_HAL_Driver/Src/stm32n6xx_hal_pwr_ex.c **** 
1214:Drivers/STM32N6xx_HAL_Driver/Src/stm32n6xx_hal_pwr_ex.c **** /**
1215:Drivers/STM32N6xx_HAL_Driver/Src/stm32n6xx_hal_pwr_ex.c ****   * @brief  Disable the VDDA18ADC independent ADC voltage monitor.
1216:Drivers/STM32N6xx_HAL_Driver/Src/stm32n6xx_hal_pwr_ex.c ****   * @retval None.
1217:Drivers/STM32N6xx_HAL_Driver/Src/stm32n6xx_hal_pwr_ex.c ****   */
1218:Drivers/STM32N6xx_HAL_Driver/Src/stm32n6xx_hal_pwr_ex.c **** void HAL_PWREx_DisableVddAVMEN(void)
1219:Drivers/STM32N6xx_HAL_Driver/Src/stm32n6xx_hal_pwr_ex.c **** {
 2349              		.loc 1 1219 1 is_stmt 1 view -0
 2350              		.cfi_startproc
 2351              		@ args = 0, pretend = 0, frame = 0
 2352              		@ frame_needed = 0, uses_anonymous_args = 0
 2353              		@ link register save eliminated.
1220:Drivers/STM32N6xx_HAL_Driver/Src/stm32n6xx_hal_pwr_ex.c ****   CLEAR_BIT(PWR->SVMCR3, PWR_SVMCR3_AVMEN);
 2354              		.loc 1 1220 3 view .LVU391
 2355 0000 024A     		ldr	r2, .L240
 2356 0002 D36B     		ldr	r3, [r2, #60]
 2357 0004 23F01003 		bic	r3, r3, #16
 2358 0008 D363     		str	r3, [r2, #60]
1221:Drivers/STM32N6xx_HAL_Driver/Src/stm32n6xx_hal_pwr_ex.c **** }
 2359              		.loc 1 1221 1 is_stmt 0 view .LVU392
 2360 000a 7047     		bx	lr
 2361              	.L241:
 2362              		.align	2
 2363              	.L240:
 2364 000c 00480246 		.word	1174554624
 2365              		.cfi_endproc
 2366              	.LFE864:
 2368              		.section	.text.HAL_PWREx_ConfigPVM,"ax",%progbits
 2369              		.align	1
 2370              		.p2align 2,,3
 2371              		.global	HAL_PWREx_ConfigPVM
 2372              		.syntax unified
 2373              		.thumb
 2374              		.thumb_func
 2375              		.fpu fpv5-d16
ARM GAS  /tmp/ccUfYlKQ.s 			page 69


 2377              	HAL_PWREx_ConfigPVM:
 2378              	.LVL80:
 2379              	.LFB865:
1222:Drivers/STM32N6xx_HAL_Driver/Src/stm32n6xx_hal_pwr_ex.c **** 
1223:Drivers/STM32N6xx_HAL_Driver/Src/stm32n6xx_hal_pwr_ex.c **** /**
1224:Drivers/STM32N6xx_HAL_Driver/Src/stm32n6xx_hal_pwr_ex.c ****   * @brief  Configure the voltage monitor threshold detected by the Peripheral
1225:Drivers/STM32N6xx_HAL_Driver/Src/stm32n6xx_hal_pwr_ex.c ****   *         voltage monitoring (PVM).
1226:Drivers/STM32N6xx_HAL_Driver/Src/stm32n6xx_hal_pwr_ex.c ****   * @param  pConfigPVM : Pointer to a PWR_PVMTypeDef structure that contains the
1227:Drivers/STM32N6xx_HAL_Driver/Src/stm32n6xx_hal_pwr_ex.c ****   *                      PVM configuration information (PVMType and EventMode).
1228:Drivers/STM32N6xx_HAL_Driver/Src/stm32n6xx_hal_pwr_ex.c ****   * @retval HAL Status.
1229:Drivers/STM32N6xx_HAL_Driver/Src/stm32n6xx_hal_pwr_ex.c ****   */
1230:Drivers/STM32N6xx_HAL_Driver/Src/stm32n6xx_hal_pwr_ex.c **** HAL_StatusTypeDef HAL_PWREx_ConfigPVM(const PWR_PVMTypeDef *pConfigPVM)
1231:Drivers/STM32N6xx_HAL_Driver/Src/stm32n6xx_hal_pwr_ex.c **** {
 2380              		.loc 1 1231 1 is_stmt 1 view -0
 2381              		.cfi_startproc
 2382              		@ args = 0, pretend = 0, frame = 0
 2383              		@ frame_needed = 0, uses_anonymous_args = 0
 2384              		@ link register save eliminated.
1232:Drivers/STM32N6xx_HAL_Driver/Src/stm32n6xx_hal_pwr_ex.c **** 
1233:Drivers/STM32N6xx_HAL_Driver/Src/stm32n6xx_hal_pwr_ex.c ****   /* Check the parameters */
1234:Drivers/STM32N6xx_HAL_Driver/Src/stm32n6xx_hal_pwr_ex.c ****   assert_param(IS_PWR_PVM_TYPE(pConfigPVM->PVMType));
 2385              		.loc 1 1234 3 view .LVU394
1235:Drivers/STM32N6xx_HAL_Driver/Src/stm32n6xx_hal_pwr_ex.c ****   assert_param(IS_PWR_PVM_MODE(pConfigPVM->Mode));
 2386              		.loc 1 1235 3 view .LVU395
1236:Drivers/STM32N6xx_HAL_Driver/Src/stm32n6xx_hal_pwr_ex.c **** 
1237:Drivers/STM32N6xx_HAL_Driver/Src/stm32n6xx_hal_pwr_ex.c ****   /* Check the peripheral voltage monitor type */
1238:Drivers/STM32N6xx_HAL_Driver/Src/stm32n6xx_hal_pwr_ex.c ****   switch (pConfigPVM->PVMType)
 2387              		.loc 1 1238 3 view .LVU396
 2388 0000 0368     		ldr	r3, [r0]
 2389 0002 052B     		cmp	r3, #5
 2390 0004 00F25781 		bhi	.L271
 2391 0008 DFE813F0 		tbh	[pc, r3, lsl #1]
 2392              	.L245:
 2393 000c 3E00     		.2byte	(.L250-.L245)/2
 2394 000e 7600     		.2byte	(.L249-.L245)/2
 2395 0010 AE00     		.2byte	(.L248-.L245)/2
 2396 0012 E500     		.2byte	(.L247-.L245)/2
 2397 0014 1C01     		.2byte	(.L246-.L245)/2
 2398 0016 0600     		.2byte	(.L244-.L245)/2
 2399              		.p2align 1
 2400              	.L244:
1239:Drivers/STM32N6xx_HAL_Driver/Src/stm32n6xx_hal_pwr_ex.c ****   {
1240:Drivers/STM32N6xx_HAL_Driver/Src/stm32n6xx_hal_pwr_ex.c ****     case PWR_VDDUSB_VM: /* Independent USB voltage monitor */
1241:Drivers/STM32N6xx_HAL_Driver/Src/stm32n6xx_hal_pwr_ex.c **** 
1242:Drivers/STM32N6xx_HAL_Driver/Src/stm32n6xx_hal_pwr_ex.c ****       /* Disable EXTI USBVM event and interrupt */
1243:Drivers/STM32N6xx_HAL_Driver/Src/stm32n6xx_hal_pwr_ex.c ****       __HAL_PWR_USBVM_EXTI_DISABLE_EVENT();
1244:Drivers/STM32N6xx_HAL_Driver/Src/stm32n6xx_hal_pwr_ex.c ****       __HAL_PWR_USBVM_EXTI_DISABLE_IT();
1245:Drivers/STM32N6xx_HAL_Driver/Src/stm32n6xx_hal_pwr_ex.c ****       __HAL_PWR_USBVM_EXTI_DISABLE_RISING_EDGE();
1246:Drivers/STM32N6xx_HAL_Driver/Src/stm32n6xx_hal_pwr_ex.c ****       __HAL_PWR_USBVM_EXTI_DISABLE_FALLING_EDGE();
1247:Drivers/STM32N6xx_HAL_Driver/Src/stm32n6xx_hal_pwr_ex.c **** 
1248:Drivers/STM32N6xx_HAL_Driver/Src/stm32n6xx_hal_pwr_ex.c ****       /* Configure the USBVM in interrupt mode */
1249:Drivers/STM32N6xx_HAL_Driver/Src/stm32n6xx_hal_pwr_ex.c ****       if ((pConfigPVM->Mode & PVM_MODE_IT) == PVM_MODE_IT)
1250:Drivers/STM32N6xx_HAL_Driver/Src/stm32n6xx_hal_pwr_ex.c ****       {
1251:Drivers/STM32N6xx_HAL_Driver/Src/stm32n6xx_hal_pwr_ex.c ****         __HAL_PWR_USBVM_EXTI_ENABLE_IT();
1252:Drivers/STM32N6xx_HAL_Driver/Src/stm32n6xx_hal_pwr_ex.c ****       }
1253:Drivers/STM32N6xx_HAL_Driver/Src/stm32n6xx_hal_pwr_ex.c **** 
1254:Drivers/STM32N6xx_HAL_Driver/Src/stm32n6xx_hal_pwr_ex.c ****       /* Configure the USBVM in event mode */
ARM GAS  /tmp/ccUfYlKQ.s 			page 70


1255:Drivers/STM32N6xx_HAL_Driver/Src/stm32n6xx_hal_pwr_ex.c ****       if ((pConfigPVM->Mode & PVM_MODE_EVT) == PVM_MODE_EVT)
1256:Drivers/STM32N6xx_HAL_Driver/Src/stm32n6xx_hal_pwr_ex.c ****       {
1257:Drivers/STM32N6xx_HAL_Driver/Src/stm32n6xx_hal_pwr_ex.c ****         __HAL_PWR_USBVM_EXTI_ENABLE_EVENT();
1258:Drivers/STM32N6xx_HAL_Driver/Src/stm32n6xx_hal_pwr_ex.c ****       }
1259:Drivers/STM32N6xx_HAL_Driver/Src/stm32n6xx_hal_pwr_ex.c **** 
1260:Drivers/STM32N6xx_HAL_Driver/Src/stm32n6xx_hal_pwr_ex.c ****       /* Configure the USBVM in rising edge */
1261:Drivers/STM32N6xx_HAL_Driver/Src/stm32n6xx_hal_pwr_ex.c ****       if ((pConfigPVM->Mode & PVM_RISING_EDGE) == PVM_RISING_EDGE)
1262:Drivers/STM32N6xx_HAL_Driver/Src/stm32n6xx_hal_pwr_ex.c ****       {
1263:Drivers/STM32N6xx_HAL_Driver/Src/stm32n6xx_hal_pwr_ex.c ****         __HAL_PWR_USBVM_EXTI_ENABLE_RISING_EDGE();
1264:Drivers/STM32N6xx_HAL_Driver/Src/stm32n6xx_hal_pwr_ex.c ****       }
1265:Drivers/STM32N6xx_HAL_Driver/Src/stm32n6xx_hal_pwr_ex.c **** 
1266:Drivers/STM32N6xx_HAL_Driver/Src/stm32n6xx_hal_pwr_ex.c ****       /* Configure the USBVM in falling edge */
1267:Drivers/STM32N6xx_HAL_Driver/Src/stm32n6xx_hal_pwr_ex.c ****       if ((pConfigPVM->Mode & PVM_FALLING_EDGE) == PVM_FALLING_EDGE)
1268:Drivers/STM32N6xx_HAL_Driver/Src/stm32n6xx_hal_pwr_ex.c ****       {
1269:Drivers/STM32N6xx_HAL_Driver/Src/stm32n6xx_hal_pwr_ex.c ****         __HAL_PWR_USBVM_EXTI_ENABLE_FALLING_EDGE();
