ARM GAS  /tmp/ccIlBc3y.s 			page 1


   1              		.arch armv8.1-m.main
   2              		.arch_extension dsp
   3              		.arch_extension fp
   4              		.arch_extension fp.dp
   5              		.arch_extension mve
   6              		.eabi_attribute 28, 1
   7              		.eabi_attribute 20, 1
   8              		.eabi_attribute 21, 1
   9              		.eabi_attribute 23, 3
  10              		.eabi_attribute 24, 1
  11              		.eabi_attribute 25, 1
  12              		.eabi_attribute 26, 1
  13              		.eabi_attribute 30, 2
  14              		.eabi_attribute 34, 1
  15              		.eabi_attribute 38, 1
  16              		.eabi_attribute 18, 4
  17              		.file	"timers.c"
  18              		.text
  19              	.Ltext0:
  20              		.cfi_sections	.debug_frame
  21              		.section	.rodata.prvCheckForValidListAndQueue.str1.4,"aMS",%progbits,1
  22              		.align	2
  23              	.LC0:
  24 0000 546D7251 		.ascii	"TmrQ\000"
  24      00
  25              		.section	.text.prvCheckForValidListAndQueue,"ax",%progbits
  26              		.align	1
  27              		.p2align 2,,3
  28              		.arch armv8.1-m.main
  29              		.arch_extension dsp
  30              		.arch_extension fp
  31              		.arch_extension fp.dp
  32              		.arch_extension mve
  33              		.syntax unified
  34              		.thumb
  35              		.thumb_func
  36              		.fpu fpv5-d16
  38              	prvCheckForValidListAndQueue:
  39              	.LFB828:
  40              		.file 1 "Middlewares/FreeRTOS/source/timers.c"
   1:Middlewares/FreeRTOS/source/timers.c **** /*
   2:Middlewares/FreeRTOS/source/timers.c ****  * FreeRTOS Kernel V10.6.2
   3:Middlewares/FreeRTOS/source/timers.c ****  * Copyright (C) 2021 Amazon.com, Inc. or its affiliates.  All Rights Reserved.
   4:Middlewares/FreeRTOS/source/timers.c ****  *
   5:Middlewares/FreeRTOS/source/timers.c ****  * SPDX-License-Identifier: MIT
   6:Middlewares/FreeRTOS/source/timers.c ****  *
   7:Middlewares/FreeRTOS/source/timers.c ****  * Permission is hereby granted, free of charge, to any person obtaining a copy of
   8:Middlewares/FreeRTOS/source/timers.c ****  * this software and associated documentation files (the "Software"), to deal in
   9:Middlewares/FreeRTOS/source/timers.c ****  * the Software without restriction, including without limitation the rights to
  10:Middlewares/FreeRTOS/source/timers.c ****  * use, copy, modify, merge, publish, distribute, sublicense, and/or sell copies of
  11:Middlewares/FreeRTOS/source/timers.c ****  * the Software, and to permit persons to whom the Software is furnished to do so,
  12:Middlewares/FreeRTOS/source/timers.c ****  * subject to the following conditions:
  13:Middlewares/FreeRTOS/source/timers.c ****  *
  14:Middlewares/FreeRTOS/source/timers.c ****  * The above copyright notice and this permission notice shall be included in all
  15:Middlewares/FreeRTOS/source/timers.c ****  * copies or substantial portions of the Software.
  16:Middlewares/FreeRTOS/source/timers.c ****  *
  17:Middlewares/FreeRTOS/source/timers.c ****  * THE SOFTWARE IS PROVIDED "AS IS", WITHOUT WARRANTY OF ANY KIND, EXPRESS OR
ARM GAS  /tmp/ccIlBc3y.s 			page 2


  18:Middlewares/FreeRTOS/source/timers.c ****  * IMPLIED, INCLUDING BUT NOT LIMITED TO THE WARRANTIES OF MERCHANTABILITY, FITNESS
  19:Middlewares/FreeRTOS/source/timers.c ****  * FOR A PARTICULAR PURPOSE AND NONINFRINGEMENT. IN NO EVENT SHALL THE AUTHORS OR
  20:Middlewares/FreeRTOS/source/timers.c ****  * COPYRIGHT HOLDERS BE LIABLE FOR ANY CLAIM, DAMAGES OR OTHER LIABILITY, WHETHER
  21:Middlewares/FreeRTOS/source/timers.c ****  * IN AN ACTION OF CONTRACT, TORT OR OTHERWISE, ARISING FROM, OUT OF OR IN
  22:Middlewares/FreeRTOS/source/timers.c ****  * CONNECTION WITH THE SOFTWARE OR THE USE OR OTHER DEALINGS IN THE SOFTWARE.
  23:Middlewares/FreeRTOS/source/timers.c ****  *
  24:Middlewares/FreeRTOS/source/timers.c ****  * https://www.FreeRTOS.org
  25:Middlewares/FreeRTOS/source/timers.c ****  * https://github.com/FreeRTOS
  26:Middlewares/FreeRTOS/source/timers.c ****  *
  27:Middlewares/FreeRTOS/source/timers.c ****  */
  28:Middlewares/FreeRTOS/source/timers.c **** 
  29:Middlewares/FreeRTOS/source/timers.c **** /* Standard includes. */
  30:Middlewares/FreeRTOS/source/timers.c **** #include <stdlib.h>
  31:Middlewares/FreeRTOS/source/timers.c **** 
  32:Middlewares/FreeRTOS/source/timers.c **** /* Defining MPU_WRAPPERS_INCLUDED_FROM_API_FILE prevents task.h from redefining
  33:Middlewares/FreeRTOS/source/timers.c ****  * all the API functions to use the MPU wrappers.  That should only be done when
  34:Middlewares/FreeRTOS/source/timers.c ****  * task.h is included from an application file. */
  35:Middlewares/FreeRTOS/source/timers.c **** #define MPU_WRAPPERS_INCLUDED_FROM_API_FILE
  36:Middlewares/FreeRTOS/source/timers.c **** 
  37:Middlewares/FreeRTOS/source/timers.c **** #include "FreeRTOS.h"
  38:Middlewares/FreeRTOS/source/timers.c **** #include "task.h"
  39:Middlewares/FreeRTOS/source/timers.c **** #include "queue.h"
  40:Middlewares/FreeRTOS/source/timers.c **** #include "timers.h"
  41:Middlewares/FreeRTOS/source/timers.c **** 
  42:Middlewares/FreeRTOS/source/timers.c **** #if ( INCLUDE_xTimerPendFunctionCall == 1 ) && ( configUSE_TIMERS == 0 )
  43:Middlewares/FreeRTOS/source/timers.c ****     #error configUSE_TIMERS must be set to 1 to make the xTimerPendFunctionCall() function availabl
  44:Middlewares/FreeRTOS/source/timers.c **** #endif
  45:Middlewares/FreeRTOS/source/timers.c **** 
  46:Middlewares/FreeRTOS/source/timers.c **** /* Lint e9021, e961 and e750 are suppressed as a MISRA exception justified
  47:Middlewares/FreeRTOS/source/timers.c ****  * because the MPU ports require MPU_WRAPPERS_INCLUDED_FROM_API_FILE to be defined
  48:Middlewares/FreeRTOS/source/timers.c ****  * for the header files above, but not in this file, in order to generate the
  49:Middlewares/FreeRTOS/source/timers.c ****  * correct privileged Vs unprivileged linkage and placement. */
  50:Middlewares/FreeRTOS/source/timers.c **** #undef MPU_WRAPPERS_INCLUDED_FROM_API_FILE /*lint !e9021 !e961 !e750. */
  51:Middlewares/FreeRTOS/source/timers.c **** 
  52:Middlewares/FreeRTOS/source/timers.c **** 
  53:Middlewares/FreeRTOS/source/timers.c **** /* This entire source file will be skipped if the application is not configured
  54:Middlewares/FreeRTOS/source/timers.c ****  * to include software timer functionality.  This #if is closed at the very bottom
  55:Middlewares/FreeRTOS/source/timers.c ****  * of this file.  If you want to include software timer functionality then ensure
  56:Middlewares/FreeRTOS/source/timers.c ****  * configUSE_TIMERS is set to 1 in FreeRTOSConfig.h. */
  57:Middlewares/FreeRTOS/source/timers.c **** #if ( configUSE_TIMERS == 1 )
  58:Middlewares/FreeRTOS/source/timers.c **** 
  59:Middlewares/FreeRTOS/source/timers.c **** /* Misc definitions. */
  60:Middlewares/FreeRTOS/source/timers.c ****     #define tmrNO_DELAY                    ( ( TickType_t ) 0U )
  61:Middlewares/FreeRTOS/source/timers.c ****     #define tmrMAX_TIME_BEFORE_OVERFLOW    ( ( TickType_t ) -1 )
  62:Middlewares/FreeRTOS/source/timers.c **** 
  63:Middlewares/FreeRTOS/source/timers.c **** /* The name assigned to the timer service task.  This can be overridden by
  64:Middlewares/FreeRTOS/source/timers.c ****  * defining trmTIMER_SERVICE_TASK_NAME in FreeRTOSConfig.h. */
  65:Middlewares/FreeRTOS/source/timers.c ****     #ifndef configTIMER_SERVICE_TASK_NAME
  66:Middlewares/FreeRTOS/source/timers.c ****         #define configTIMER_SERVICE_TASK_NAME    "Tmr Svc"
  67:Middlewares/FreeRTOS/source/timers.c ****     #endif
  68:Middlewares/FreeRTOS/source/timers.c **** 
  69:Middlewares/FreeRTOS/source/timers.c **** /* Bit definitions used in the ucStatus member of a timer structure. */
  70:Middlewares/FreeRTOS/source/timers.c ****     #define tmrSTATUS_IS_ACTIVE                  ( ( uint8_t ) 0x01 )
  71:Middlewares/FreeRTOS/source/timers.c ****     #define tmrSTATUS_IS_STATICALLY_ALLOCATED    ( ( uint8_t ) 0x02 )
  72:Middlewares/FreeRTOS/source/timers.c ****     #define tmrSTATUS_IS_AUTORELOAD              ( ( uint8_t ) 0x04 )
  73:Middlewares/FreeRTOS/source/timers.c **** 
  74:Middlewares/FreeRTOS/source/timers.c **** /* The definition of the timers themselves. */
ARM GAS  /tmp/ccIlBc3y.s 			page 3


  75:Middlewares/FreeRTOS/source/timers.c ****     typedef struct tmrTimerControl                  /* The old naming convention is used to prevent
  76:Middlewares/FreeRTOS/source/timers.c ****     {
  77:Middlewares/FreeRTOS/source/timers.c ****         const char * pcTimerName;                   /**< Text name.  This is not used by the kernel
  78:Middlewares/FreeRTOS/source/timers.c ****         ListItem_t xTimerListItem;                  /**< Standard linked list item as used by all k
  79:Middlewares/FreeRTOS/source/timers.c ****         TickType_t xTimerPeriodInTicks;             /**< How quickly and often the timer expires. *
  80:Middlewares/FreeRTOS/source/timers.c ****         void * pvTimerID;                           /**< An ID to identify the timer.  This allows 
  81:Middlewares/FreeRTOS/source/timers.c ****         TimerCallbackFunction_t pxCallbackFunction; /**< The function that will be called when the 
  82:Middlewares/FreeRTOS/source/timers.c ****         #if ( configUSE_TRACE_FACILITY == 1 )
  83:Middlewares/FreeRTOS/source/timers.c ****             UBaseType_t uxTimerNumber;              /**< An ID assigned by trace tools such as Free
  84:Middlewares/FreeRTOS/source/timers.c ****         #endif
  85:Middlewares/FreeRTOS/source/timers.c ****         uint8_t ucStatus;                           /**< Holds bits to say if the timer was statica
  86:Middlewares/FreeRTOS/source/timers.c ****     } xTIMER;
  87:Middlewares/FreeRTOS/source/timers.c **** 
  88:Middlewares/FreeRTOS/source/timers.c **** /* The old xTIMER name is maintained above then typedefed to the new Timer_t
  89:Middlewares/FreeRTOS/source/timers.c ****  * name below to enable the use of older kernel aware debuggers. */
  90:Middlewares/FreeRTOS/source/timers.c ****     typedef xTIMER Timer_t;
  91:Middlewares/FreeRTOS/source/timers.c **** 
  92:Middlewares/FreeRTOS/source/timers.c **** /* The definition of messages that can be sent and received on the timer queue.
  93:Middlewares/FreeRTOS/source/timers.c ****  * Two types of message can be queued - messages that manipulate a software timer,
  94:Middlewares/FreeRTOS/source/timers.c ****  * and messages that request the execution of a non-timer related callback.  The
  95:Middlewares/FreeRTOS/source/timers.c ****  * two message types are defined in two separate structures, xTimerParametersType
  96:Middlewares/FreeRTOS/source/timers.c ****  * and xCallbackParametersType respectively. */
  97:Middlewares/FreeRTOS/source/timers.c ****     typedef struct tmrTimerParameters
  98:Middlewares/FreeRTOS/source/timers.c ****     {
  99:Middlewares/FreeRTOS/source/timers.c ****         TickType_t xMessageValue; /**< An optional value used by a subset of commands, for example,
 100:Middlewares/FreeRTOS/source/timers.c ****         Timer_t * pxTimer;        /**< The timer to which the command will be applied. */
 101:Middlewares/FreeRTOS/source/timers.c ****     } TimerParameter_t;
 102:Middlewares/FreeRTOS/source/timers.c **** 
 103:Middlewares/FreeRTOS/source/timers.c **** 
 104:Middlewares/FreeRTOS/source/timers.c ****     typedef struct tmrCallbackParameters
 105:Middlewares/FreeRTOS/source/timers.c ****     {
 106:Middlewares/FreeRTOS/source/timers.c ****         PendedFunction_t pxCallbackFunction; /* << The callback function to execute. */
 107:Middlewares/FreeRTOS/source/timers.c ****         void * pvParameter1;                 /* << The value that will be used as the callback func
 108:Middlewares/FreeRTOS/source/timers.c ****         uint32_t ulParameter2;               /* << The value that will be used as the callback func
 109:Middlewares/FreeRTOS/source/timers.c ****     } CallbackParameters_t;
 110:Middlewares/FreeRTOS/source/timers.c **** 
 111:Middlewares/FreeRTOS/source/timers.c **** /* The structure that contains the two message types, along with an identifier
 112:Middlewares/FreeRTOS/source/timers.c ****  * that is used to determine which message type is valid. */
 113:Middlewares/FreeRTOS/source/timers.c ****     typedef struct tmrTimerQueueMessage
 114:Middlewares/FreeRTOS/source/timers.c ****     {
 115:Middlewares/FreeRTOS/source/timers.c ****         BaseType_t xMessageID; /**< The command being sent to the timer service task. */
 116:Middlewares/FreeRTOS/source/timers.c ****         union
 117:Middlewares/FreeRTOS/source/timers.c ****         {
 118:Middlewares/FreeRTOS/source/timers.c ****             TimerParameter_t xTimerParameters;
 119:Middlewares/FreeRTOS/source/timers.c **** 
 120:Middlewares/FreeRTOS/source/timers.c ****             /* Don't include xCallbackParameters if it is not going to be used as
 121:Middlewares/FreeRTOS/source/timers.c ****              * it makes the structure (and therefore the timer queue) larger. */
 122:Middlewares/FreeRTOS/source/timers.c ****             #if ( INCLUDE_xTimerPendFunctionCall == 1 )
 123:Middlewares/FreeRTOS/source/timers.c ****                 CallbackParameters_t xCallbackParameters;
 124:Middlewares/FreeRTOS/source/timers.c ****             #endif /* INCLUDE_xTimerPendFunctionCall */
 125:Middlewares/FreeRTOS/source/timers.c ****         } u;
 126:Middlewares/FreeRTOS/source/timers.c ****     } DaemonTaskMessage_t;
 127:Middlewares/FreeRTOS/source/timers.c **** 
 128:Middlewares/FreeRTOS/source/timers.c **** /*lint -save -e956 A manual analysis and inspection has been used to determine
 129:Middlewares/FreeRTOS/source/timers.c ****  * which static variables must be declared volatile. */
 130:Middlewares/FreeRTOS/source/timers.c **** 
 131:Middlewares/FreeRTOS/source/timers.c **** /* The list in which active timers are stored.  Timers are referenced in expire
ARM GAS  /tmp/ccIlBc3y.s 			page 4


 132:Middlewares/FreeRTOS/source/timers.c ****  * time order, with the nearest expiry time at the front of the list.  Only the
 133:Middlewares/FreeRTOS/source/timers.c ****  * timer service task is allowed to access these lists.
 134:Middlewares/FreeRTOS/source/timers.c ****  * xActiveTimerList1 and xActiveTimerList2 could be at function scope but that
 135:Middlewares/FreeRTOS/source/timers.c ****  * breaks some kernel aware debuggers, and debuggers that reply on removing the
 136:Middlewares/FreeRTOS/source/timers.c ****  * static qualifier. */
 137:Middlewares/FreeRTOS/source/timers.c ****     PRIVILEGED_DATA static List_t xActiveTimerList1;
 138:Middlewares/FreeRTOS/source/timers.c ****     PRIVILEGED_DATA static List_t xActiveTimerList2;
 139:Middlewares/FreeRTOS/source/timers.c ****     PRIVILEGED_DATA static List_t * pxCurrentTimerList;
 140:Middlewares/FreeRTOS/source/timers.c ****     PRIVILEGED_DATA static List_t * pxOverflowTimerList;
 141:Middlewares/FreeRTOS/source/timers.c **** 
 142:Middlewares/FreeRTOS/source/timers.c **** /* A queue that is used to send commands to the timer service task. */
 143:Middlewares/FreeRTOS/source/timers.c ****     PRIVILEGED_DATA static QueueHandle_t xTimerQueue = NULL;
 144:Middlewares/FreeRTOS/source/timers.c ****     PRIVILEGED_DATA static TaskHandle_t xTimerTaskHandle = NULL;
 145:Middlewares/FreeRTOS/source/timers.c **** 
 146:Middlewares/FreeRTOS/source/timers.c **** /*lint -restore */
 147:Middlewares/FreeRTOS/source/timers.c **** 
 148:Middlewares/FreeRTOS/source/timers.c **** /*-----------------------------------------------------------*/
 149:Middlewares/FreeRTOS/source/timers.c **** 
 150:Middlewares/FreeRTOS/source/timers.c **** /*
 151:Middlewares/FreeRTOS/source/timers.c ****  * Initialise the infrastructure used by the timer service task if it has not
 152:Middlewares/FreeRTOS/source/timers.c ****  * been initialised already.
 153:Middlewares/FreeRTOS/source/timers.c ****  */
 154:Middlewares/FreeRTOS/source/timers.c ****     static void prvCheckForValidListAndQueue( void ) PRIVILEGED_FUNCTION;
 155:Middlewares/FreeRTOS/source/timers.c **** 
 156:Middlewares/FreeRTOS/source/timers.c **** /*
 157:Middlewares/FreeRTOS/source/timers.c ****  * The timer service task (daemon).  Timer functionality is controlled by this
 158:Middlewares/FreeRTOS/source/timers.c ****  * task.  Other tasks communicate with the timer service task using the
 159:Middlewares/FreeRTOS/source/timers.c ****  * xTimerQueue queue.
 160:Middlewares/FreeRTOS/source/timers.c ****  */
 161:Middlewares/FreeRTOS/source/timers.c ****     static portTASK_FUNCTION_PROTO( prvTimerTask, pvParameters ) PRIVILEGED_FUNCTION;
 162:Middlewares/FreeRTOS/source/timers.c **** 
 163:Middlewares/FreeRTOS/source/timers.c **** /*
 164:Middlewares/FreeRTOS/source/timers.c ****  * Called by the timer service task to interpret and process a command it
 165:Middlewares/FreeRTOS/source/timers.c ****  * received on the timer queue.
 166:Middlewares/FreeRTOS/source/timers.c ****  */
 167:Middlewares/FreeRTOS/source/timers.c ****     static void prvProcessReceivedCommands( void ) PRIVILEGED_FUNCTION;
 168:Middlewares/FreeRTOS/source/timers.c **** 
 169:Middlewares/FreeRTOS/source/timers.c **** /*
 170:Middlewares/FreeRTOS/source/timers.c ****  * Insert the timer into either xActiveTimerList1, or xActiveTimerList2,
 171:Middlewares/FreeRTOS/source/timers.c ****  * depending on if the expire time causes a timer counter overflow.
 172:Middlewares/FreeRTOS/source/timers.c ****  */
 173:Middlewares/FreeRTOS/source/timers.c ****     static BaseType_t prvInsertTimerInActiveList( Timer_t * const pxTimer,
 174:Middlewares/FreeRTOS/source/timers.c ****                                                   const TickType_t xNextExpiryTime,
 175:Middlewares/FreeRTOS/source/timers.c ****                                                   const TickType_t xTimeNow,
 176:Middlewares/FreeRTOS/source/timers.c ****                                                   const TickType_t xCommandTime ) PRIVILEGED_FUNCTI
 177:Middlewares/FreeRTOS/source/timers.c **** 
 178:Middlewares/FreeRTOS/source/timers.c **** /*
 179:Middlewares/FreeRTOS/source/timers.c ****  * Reload the specified auto-reload timer.  If the reloading is backlogged,
 180:Middlewares/FreeRTOS/source/timers.c ****  * clear the backlog, calling the callback for each additional reload.  When
 181:Middlewares/FreeRTOS/source/timers.c ****  * this function returns, the next expiry time is after xTimeNow.
 182:Middlewares/FreeRTOS/source/timers.c ****  */
 183:Middlewares/FreeRTOS/source/timers.c ****     static void prvReloadTimer( Timer_t * const pxTimer,
 184:Middlewares/FreeRTOS/source/timers.c ****                                 TickType_t xExpiredTime,
 185:Middlewares/FreeRTOS/source/timers.c ****                                 const TickType_t xTimeNow ) PRIVILEGED_FUNCTION;
 186:Middlewares/FreeRTOS/source/timers.c **** 
 187:Middlewares/FreeRTOS/source/timers.c **** /*
 188:Middlewares/FreeRTOS/source/timers.c ****  * An active timer has reached its expire time.  Reload the timer if it is an
ARM GAS  /tmp/ccIlBc3y.s 			page 5


 189:Middlewares/FreeRTOS/source/timers.c ****  * auto-reload timer, then call its callback.
 190:Middlewares/FreeRTOS/source/timers.c ****  */
 191:Middlewares/FreeRTOS/source/timers.c ****     static void prvProcessExpiredTimer( const TickType_t xNextExpireTime,
 192:Middlewares/FreeRTOS/source/timers.c ****                                         const TickType_t xTimeNow ) PRIVILEGED_FUNCTION;
 193:Middlewares/FreeRTOS/source/timers.c **** 
 194:Middlewares/FreeRTOS/source/timers.c **** /*
 195:Middlewares/FreeRTOS/source/timers.c ****  * The tick count has overflowed.  Switch the timer lists after ensuring the
 196:Middlewares/FreeRTOS/source/timers.c ****  * current timer list does not still reference some timers.
 197:Middlewares/FreeRTOS/source/timers.c ****  */
 198:Middlewares/FreeRTOS/source/timers.c ****     static void prvSwitchTimerLists( void ) PRIVILEGED_FUNCTION;
 199:Middlewares/FreeRTOS/source/timers.c **** 
 200:Middlewares/FreeRTOS/source/timers.c **** /*
 201:Middlewares/FreeRTOS/source/timers.c ****  * Obtain the current tick count, setting *pxTimerListsWereSwitched to pdTRUE
 202:Middlewares/FreeRTOS/source/timers.c ****  * if a tick count overflow occurred since prvSampleTimeNow() was last called.
 203:Middlewares/FreeRTOS/source/timers.c ****  */
 204:Middlewares/FreeRTOS/source/timers.c ****     static TickType_t prvSampleTimeNow( BaseType_t * const pxTimerListsWereSwitched ) PRIVILEGED_FU
 205:Middlewares/FreeRTOS/source/timers.c **** 
 206:Middlewares/FreeRTOS/source/timers.c **** /*
 207:Middlewares/FreeRTOS/source/timers.c ****  * If the timer list contains any active timers then return the expire time of
 208:Middlewares/FreeRTOS/source/timers.c ****  * the timer that will expire first and set *pxListWasEmpty to false.  If the
 209:Middlewares/FreeRTOS/source/timers.c ****  * timer list does not contain any timers then return 0 and set *pxListWasEmpty
 210:Middlewares/FreeRTOS/source/timers.c ****  * to pdTRUE.
 211:Middlewares/FreeRTOS/source/timers.c ****  */
 212:Middlewares/FreeRTOS/source/timers.c ****     static TickType_t prvGetNextExpireTime( BaseType_t * const pxListWasEmpty ) PRIVILEGED_FUNCTION
 213:Middlewares/FreeRTOS/source/timers.c **** 
 214:Middlewares/FreeRTOS/source/timers.c **** /*
 215:Middlewares/FreeRTOS/source/timers.c ****  * If a timer has expired, process it.  Otherwise, block the timer service task
 216:Middlewares/FreeRTOS/source/timers.c ****  * until either a timer does expire or a command is received.
 217:Middlewares/FreeRTOS/source/timers.c ****  */
 218:Middlewares/FreeRTOS/source/timers.c ****     static void prvProcessTimerOrBlockTask( const TickType_t xNextExpireTime,
 219:Middlewares/FreeRTOS/source/timers.c ****                                             BaseType_t xListWasEmpty ) PRIVILEGED_FUNCTION;
 220:Middlewares/FreeRTOS/source/timers.c **** 
 221:Middlewares/FreeRTOS/source/timers.c **** /*
 222:Middlewares/FreeRTOS/source/timers.c ****  * Called after a Timer_t structure has been allocated either statically or
 223:Middlewares/FreeRTOS/source/timers.c ****  * dynamically to fill in the structure's members.
 224:Middlewares/FreeRTOS/source/timers.c ****  */
 225:Middlewares/FreeRTOS/source/timers.c ****     static void prvInitialiseNewTimer( const char * const pcTimerName, /*lint !e971 Unqualified cha
 226:Middlewares/FreeRTOS/source/timers.c ****                                        const TickType_t xTimerPeriodInTicks,
 227:Middlewares/FreeRTOS/source/timers.c ****                                        const BaseType_t xAutoReload,
 228:Middlewares/FreeRTOS/source/timers.c ****                                        void * const pvTimerID,
 229:Middlewares/FreeRTOS/source/timers.c ****                                        TimerCallbackFunction_t pxCallbackFunction,
 230:Middlewares/FreeRTOS/source/timers.c ****                                        Timer_t * pxNewTimer ) PRIVILEGED_FUNCTION;
 231:Middlewares/FreeRTOS/source/timers.c **** /*-----------------------------------------------------------*/
 232:Middlewares/FreeRTOS/source/timers.c **** 
 233:Middlewares/FreeRTOS/source/timers.c ****     BaseType_t xTimerCreateTimerTask( void )
 234:Middlewares/FreeRTOS/source/timers.c ****     {
 235:Middlewares/FreeRTOS/source/timers.c ****         BaseType_t xReturn = pdFAIL;
 236:Middlewares/FreeRTOS/source/timers.c **** 
 237:Middlewares/FreeRTOS/source/timers.c ****         /* This function is called when the scheduler is started if
 238:Middlewares/FreeRTOS/source/timers.c ****          * configUSE_TIMERS is set to 1.  Check that the infrastructure used by the
 239:Middlewares/FreeRTOS/source/timers.c ****          * timer service task has been created/initialised.  If timers have already
 240:Middlewares/FreeRTOS/source/timers.c ****          * been created then the initialisation will already have been performed. */
 241:Middlewares/FreeRTOS/source/timers.c ****         prvCheckForValidListAndQueue();
 242:Middlewares/FreeRTOS/source/timers.c **** 
 243:Middlewares/FreeRTOS/source/timers.c ****         if( xTimerQueue != NULL )
 244:Middlewares/FreeRTOS/source/timers.c ****         {
 245:Middlewares/FreeRTOS/source/timers.c ****             #if ( configSUPPORT_STATIC_ALLOCATION == 1 )
ARM GAS  /tmp/ccIlBc3y.s 			page 6


 246:Middlewares/FreeRTOS/source/timers.c ****             {
 247:Middlewares/FreeRTOS/source/timers.c ****                 StaticTask_t * pxTimerTaskTCBBuffer = NULL;
 248:Middlewares/FreeRTOS/source/timers.c ****                 StackType_t * pxTimerTaskStackBuffer = NULL;
 249:Middlewares/FreeRTOS/source/timers.c ****                 uint32_t ulTimerTaskStackSize;
 250:Middlewares/FreeRTOS/source/timers.c **** 
 251:Middlewares/FreeRTOS/source/timers.c ****                 vApplicationGetTimerTaskMemory( &pxTimerTaskTCBBuffer, &pxTimerTaskStackBuffer, &ul
 252:Middlewares/FreeRTOS/source/timers.c ****                 xTimerTaskHandle = xTaskCreateStatic( prvTimerTask,
 253:Middlewares/FreeRTOS/source/timers.c ****                                                       configTIMER_SERVICE_TASK_NAME,
 254:Middlewares/FreeRTOS/source/timers.c ****                                                       ulTimerTaskStackSize,
 255:Middlewares/FreeRTOS/source/timers.c ****                                                       NULL,
 256:Middlewares/FreeRTOS/source/timers.c ****                                                       ( ( UBaseType_t ) configTIMER_TASK_PRIORITY )
 257:Middlewares/FreeRTOS/source/timers.c ****                                                       pxTimerTaskStackBuffer,
 258:Middlewares/FreeRTOS/source/timers.c ****                                                       pxTimerTaskTCBBuffer );
 259:Middlewares/FreeRTOS/source/timers.c **** 
 260:Middlewares/FreeRTOS/source/timers.c ****                 if( xTimerTaskHandle != NULL )
 261:Middlewares/FreeRTOS/source/timers.c ****                 {
 262:Middlewares/FreeRTOS/source/timers.c ****                     xReturn = pdPASS;
 263:Middlewares/FreeRTOS/source/timers.c ****                 }
 264:Middlewares/FreeRTOS/source/timers.c ****             }
 265:Middlewares/FreeRTOS/source/timers.c ****             #else /* if ( configSUPPORT_STATIC_ALLOCATION == 1 ) */
 266:Middlewares/FreeRTOS/source/timers.c ****             {
 267:Middlewares/FreeRTOS/source/timers.c ****                 xReturn = xTaskCreate( prvTimerTask,
 268:Middlewares/FreeRTOS/source/timers.c ****                                        configTIMER_SERVICE_TASK_NAME,
 269:Middlewares/FreeRTOS/source/timers.c ****                                        configTIMER_TASK_STACK_DEPTH,
 270:Middlewares/FreeRTOS/source/timers.c ****                                        NULL,
 271:Middlewares/FreeRTOS/source/timers.c ****                                        ( ( UBaseType_t ) configTIMER_TASK_PRIORITY ) | portPRIVILEG
 272:Middlewares/FreeRTOS/source/timers.c ****                                        &xTimerTaskHandle );
 273:Middlewares/FreeRTOS/source/timers.c ****             }
 274:Middlewares/FreeRTOS/source/timers.c ****             #endif /* configSUPPORT_STATIC_ALLOCATION */
 275:Middlewares/FreeRTOS/source/timers.c ****         }
 276:Middlewares/FreeRTOS/source/timers.c ****         else
 277:Middlewares/FreeRTOS/source/timers.c ****         {
 278:Middlewares/FreeRTOS/source/timers.c ****             mtCOVERAGE_TEST_MARKER();
 279:Middlewares/FreeRTOS/source/timers.c ****         }
 280:Middlewares/FreeRTOS/source/timers.c **** 
 281:Middlewares/FreeRTOS/source/timers.c ****         configASSERT( xReturn );
 282:Middlewares/FreeRTOS/source/timers.c ****         return xReturn;
 283:Middlewares/FreeRTOS/source/timers.c ****     }
 284:Middlewares/FreeRTOS/source/timers.c **** /*-----------------------------------------------------------*/
 285:Middlewares/FreeRTOS/source/timers.c **** 
 286:Middlewares/FreeRTOS/source/timers.c ****     #if ( configSUPPORT_DYNAMIC_ALLOCATION == 1 )
 287:Middlewares/FreeRTOS/source/timers.c **** 
 288:Middlewares/FreeRTOS/source/timers.c ****         TimerHandle_t xTimerCreate( const char * const pcTimerName, /*lint !e971 Unqualified char t
 289:Middlewares/FreeRTOS/source/timers.c ****                                     const TickType_t xTimerPeriodInTicks,
 290:Middlewares/FreeRTOS/source/timers.c ****                                     const BaseType_t xAutoReload,
 291:Middlewares/FreeRTOS/source/timers.c ****                                     void * const pvTimerID,
 292:Middlewares/FreeRTOS/source/timers.c ****                                     TimerCallbackFunction_t pxCallbackFunction )
 293:Middlewares/FreeRTOS/source/timers.c ****         {
 294:Middlewares/FreeRTOS/source/timers.c ****             Timer_t * pxNewTimer;
 295:Middlewares/FreeRTOS/source/timers.c **** 
 296:Middlewares/FreeRTOS/source/timers.c ****             pxNewTimer = ( Timer_t * ) pvPortMalloc( sizeof( Timer_t ) ); /*lint !e9087 !e9079 All 
 297:Middlewares/FreeRTOS/source/timers.c **** 
 298:Middlewares/FreeRTOS/source/timers.c ****             if( pxNewTimer != NULL )
 299:Middlewares/FreeRTOS/source/timers.c ****             {
 300:Middlewares/FreeRTOS/source/timers.c ****                 /* Status is thus far zero as the timer is not created statically
 301:Middlewares/FreeRTOS/source/timers.c ****                  * and has not been started.  The auto-reload bit may get set in
 302:Middlewares/FreeRTOS/source/timers.c ****                  * prvInitialiseNewTimer. */
ARM GAS  /tmp/ccIlBc3y.s 			page 7


 303:Middlewares/FreeRTOS/source/timers.c ****                 pxNewTimer->ucStatus = 0x00;
 304:Middlewares/FreeRTOS/source/timers.c ****                 prvInitialiseNewTimer( pcTimerName, xTimerPeriodInTicks, xAutoReload, pvTimerID, px
 305:Middlewares/FreeRTOS/source/timers.c ****             }
 306:Middlewares/FreeRTOS/source/timers.c **** 
 307:Middlewares/FreeRTOS/source/timers.c ****             return pxNewTimer;
 308:Middlewares/FreeRTOS/source/timers.c ****         }
 309:Middlewares/FreeRTOS/source/timers.c **** 
 310:Middlewares/FreeRTOS/source/timers.c ****     #endif /* configSUPPORT_DYNAMIC_ALLOCATION */
 311:Middlewares/FreeRTOS/source/timers.c **** /*-----------------------------------------------------------*/
 312:Middlewares/FreeRTOS/source/timers.c **** 
 313:Middlewares/FreeRTOS/source/timers.c ****     #if ( configSUPPORT_STATIC_ALLOCATION == 1 )
 314:Middlewares/FreeRTOS/source/timers.c **** 
 315:Middlewares/FreeRTOS/source/timers.c ****         TimerHandle_t xTimerCreateStatic( const char * const pcTimerName, /*lint !e971 Unqualified 
 316:Middlewares/FreeRTOS/source/timers.c ****                                           const TickType_t xTimerPeriodInTicks,
 317:Middlewares/FreeRTOS/source/timers.c ****                                           const BaseType_t xAutoReload,
 318:Middlewares/FreeRTOS/source/timers.c ****                                           void * const pvTimerID,
 319:Middlewares/FreeRTOS/source/timers.c ****                                           TimerCallbackFunction_t pxCallbackFunction,
 320:Middlewares/FreeRTOS/source/timers.c ****                                           StaticTimer_t * pxTimerBuffer )
 321:Middlewares/FreeRTOS/source/timers.c ****         {
 322:Middlewares/FreeRTOS/source/timers.c ****             Timer_t * pxNewTimer;
 323:Middlewares/FreeRTOS/source/timers.c **** 
 324:Middlewares/FreeRTOS/source/timers.c ****             #if ( configASSERT_DEFINED == 1 )
 325:Middlewares/FreeRTOS/source/timers.c ****             {
 326:Middlewares/FreeRTOS/source/timers.c ****                 /* Sanity check that the size of the structure used to declare a
 327:Middlewares/FreeRTOS/source/timers.c ****                  * variable of type StaticTimer_t equals the size of the real timer
 328:Middlewares/FreeRTOS/source/timers.c ****                  * structure. */
 329:Middlewares/FreeRTOS/source/timers.c ****                 volatile size_t xSize = sizeof( StaticTimer_t );
 330:Middlewares/FreeRTOS/source/timers.c ****                 configASSERT( xSize == sizeof( Timer_t ) );
 331:Middlewares/FreeRTOS/source/timers.c ****                 ( void ) xSize; /* Keeps lint quiet when configASSERT() is not defined. */
 332:Middlewares/FreeRTOS/source/timers.c ****             }
 333:Middlewares/FreeRTOS/source/timers.c ****             #endif /* configASSERT_DEFINED */
 334:Middlewares/FreeRTOS/source/timers.c **** 
 335:Middlewares/FreeRTOS/source/timers.c ****             /* A pointer to a StaticTimer_t structure MUST be provided, use it. */
 336:Middlewares/FreeRTOS/source/timers.c ****             configASSERT( pxTimerBuffer );
 337:Middlewares/FreeRTOS/source/timers.c ****             pxNewTimer = ( Timer_t * ) pxTimerBuffer; /*lint !e740 !e9087 StaticTimer_t is a pointe
 338:Middlewares/FreeRTOS/source/timers.c **** 
 339:Middlewares/FreeRTOS/source/timers.c ****             if( pxNewTimer != NULL )
 340:Middlewares/FreeRTOS/source/timers.c ****             {
 341:Middlewares/FreeRTOS/source/timers.c ****                 /* Timers can be created statically or dynamically so note this
 342:Middlewares/FreeRTOS/source/timers.c ****                  * timer was created statically in case it is later deleted.  The
 343:Middlewares/FreeRTOS/source/timers.c ****                  * auto-reload bit may get set in prvInitialiseNewTimer(). */
 344:Middlewares/FreeRTOS/source/timers.c ****                 pxNewTimer->ucStatus = tmrSTATUS_IS_STATICALLY_ALLOCATED;
 345:Middlewares/FreeRTOS/source/timers.c **** 
 346:Middlewares/FreeRTOS/source/timers.c ****                 prvInitialiseNewTimer( pcTimerName, xTimerPeriodInTicks, xAutoReload, pvTimerID, px
 347:Middlewares/FreeRTOS/source/timers.c ****             }
 348:Middlewares/FreeRTOS/source/timers.c **** 
 349:Middlewares/FreeRTOS/source/timers.c ****             return pxNewTimer;
 350:Middlewares/FreeRTOS/source/timers.c ****         }
 351:Middlewares/FreeRTOS/source/timers.c **** 
 352:Middlewares/FreeRTOS/source/timers.c ****     #endif /* configSUPPORT_STATIC_ALLOCATION */
 353:Middlewares/FreeRTOS/source/timers.c **** /*-----------------------------------------------------------*/
 354:Middlewares/FreeRTOS/source/timers.c **** 
 355:Middlewares/FreeRTOS/source/timers.c ****     static void prvInitialiseNewTimer( const char * const pcTimerName, /*lint !e971 Unqualified cha
 356:Middlewares/FreeRTOS/source/timers.c ****                                        const TickType_t xTimerPeriodInTicks,
 357:Middlewares/FreeRTOS/source/timers.c ****                                        const BaseType_t xAutoReload,
 358:Middlewares/FreeRTOS/source/timers.c ****                                        void * const pvTimerID,
 359:Middlewares/FreeRTOS/source/timers.c ****                                        TimerCallbackFunction_t pxCallbackFunction,
ARM GAS  /tmp/ccIlBc3y.s 			page 8


 360:Middlewares/FreeRTOS/source/timers.c ****                                        Timer_t * pxNewTimer )
 361:Middlewares/FreeRTOS/source/timers.c ****     {
 362:Middlewares/FreeRTOS/source/timers.c ****         /* 0 is not a valid value for xTimerPeriodInTicks. */
 363:Middlewares/FreeRTOS/source/timers.c ****         configASSERT( ( xTimerPeriodInTicks > 0 ) );
 364:Middlewares/FreeRTOS/source/timers.c **** 
 365:Middlewares/FreeRTOS/source/timers.c ****         /* Ensure the infrastructure used by the timer service task has been
 366:Middlewares/FreeRTOS/source/timers.c ****          * created/initialised. */
 367:Middlewares/FreeRTOS/source/timers.c ****         prvCheckForValidListAndQueue();
 368:Middlewares/FreeRTOS/source/timers.c **** 
 369:Middlewares/FreeRTOS/source/timers.c ****         /* Initialise the timer structure members using the function
 370:Middlewares/FreeRTOS/source/timers.c ****          * parameters. */
 371:Middlewares/FreeRTOS/source/timers.c ****         pxNewTimer->pcTimerName = pcTimerName;
 372:Middlewares/FreeRTOS/source/timers.c ****         pxNewTimer->xTimerPeriodInTicks = xTimerPeriodInTicks;
 373:Middlewares/FreeRTOS/source/timers.c ****         pxNewTimer->pvTimerID = pvTimerID;
 374:Middlewares/FreeRTOS/source/timers.c ****         pxNewTimer->pxCallbackFunction = pxCallbackFunction;
 375:Middlewares/FreeRTOS/source/timers.c ****         vListInitialiseItem( &( pxNewTimer->xTimerListItem ) );
 376:Middlewares/FreeRTOS/source/timers.c **** 
 377:Middlewares/FreeRTOS/source/timers.c ****         if( xAutoReload != pdFALSE )
 378:Middlewares/FreeRTOS/source/timers.c ****         {
 379:Middlewares/FreeRTOS/source/timers.c ****             pxNewTimer->ucStatus |= tmrSTATUS_IS_AUTORELOAD;
 380:Middlewares/FreeRTOS/source/timers.c ****         }
 381:Middlewares/FreeRTOS/source/timers.c **** 
 382:Middlewares/FreeRTOS/source/timers.c ****         traceTIMER_CREATE( pxNewTimer );
 383:Middlewares/FreeRTOS/source/timers.c ****     }
 384:Middlewares/FreeRTOS/source/timers.c **** /*-----------------------------------------------------------*/
 385:Middlewares/FreeRTOS/source/timers.c **** 
 386:Middlewares/FreeRTOS/source/timers.c ****     BaseType_t xTimerGenericCommand( TimerHandle_t xTimer,
 387:Middlewares/FreeRTOS/source/timers.c ****                                      const BaseType_t xCommandID,
 388:Middlewares/FreeRTOS/source/timers.c ****                                      const TickType_t xOptionalValue,
 389:Middlewares/FreeRTOS/source/timers.c ****                                      BaseType_t * const pxHigherPriorityTaskWoken,
 390:Middlewares/FreeRTOS/source/timers.c ****                                      const TickType_t xTicksToWait )
 391:Middlewares/FreeRTOS/source/timers.c ****     {
 392:Middlewares/FreeRTOS/source/timers.c ****         BaseType_t xReturn = pdFAIL;
 393:Middlewares/FreeRTOS/source/timers.c ****         DaemonTaskMessage_t xMessage;
 394:Middlewares/FreeRTOS/source/timers.c **** 
 395:Middlewares/FreeRTOS/source/timers.c ****         configASSERT( xTimer );
 396:Middlewares/FreeRTOS/source/timers.c **** 
 397:Middlewares/FreeRTOS/source/timers.c ****         /* Send a message to the timer service task to perform a particular action
 398:Middlewares/FreeRTOS/source/timers.c ****          * on a particular timer definition. */
 399:Middlewares/FreeRTOS/source/timers.c ****         if( xTimerQueue != NULL )
 400:Middlewares/FreeRTOS/source/timers.c ****         {
 401:Middlewares/FreeRTOS/source/timers.c ****             /* Send a command to the timer service task to start the xTimer timer. */
 402:Middlewares/FreeRTOS/source/timers.c ****             xMessage.xMessageID = xCommandID;
 403:Middlewares/FreeRTOS/source/timers.c ****             xMessage.u.xTimerParameters.xMessageValue = xOptionalValue;
 404:Middlewares/FreeRTOS/source/timers.c ****             xMessage.u.xTimerParameters.pxTimer = xTimer;
 405:Middlewares/FreeRTOS/source/timers.c **** 
 406:Middlewares/FreeRTOS/source/timers.c ****             if( xCommandID < tmrFIRST_FROM_ISR_COMMAND )
 407:Middlewares/FreeRTOS/source/timers.c ****             {
 408:Middlewares/FreeRTOS/source/timers.c ****                 if( xTaskGetSchedulerState() == taskSCHEDULER_RUNNING )
 409:Middlewares/FreeRTOS/source/timers.c ****                 {
 410:Middlewares/FreeRTOS/source/timers.c ****                     xReturn = xQueueSendToBack( xTimerQueue, &xMessage, xTicksToWait );
 411:Middlewares/FreeRTOS/source/timers.c ****                 }
 412:Middlewares/FreeRTOS/source/timers.c ****                 else
 413:Middlewares/FreeRTOS/source/timers.c ****                 {
 414:Middlewares/FreeRTOS/source/timers.c ****                     xReturn = xQueueSendToBack( xTimerQueue, &xMessage, tmrNO_DELAY );
 415:Middlewares/FreeRTOS/source/timers.c ****                 }
 416:Middlewares/FreeRTOS/source/timers.c ****             }
ARM GAS  /tmp/ccIlBc3y.s 			page 9


 417:Middlewares/FreeRTOS/source/timers.c ****             else
 418:Middlewares/FreeRTOS/source/timers.c ****             {
 419:Middlewares/FreeRTOS/source/timers.c ****                 xReturn = xQueueSendToBackFromISR( xTimerQueue, &xMessage, pxHigherPriorityTaskWoke
 420:Middlewares/FreeRTOS/source/timers.c ****             }
 421:Middlewares/FreeRTOS/source/timers.c **** 
 422:Middlewares/FreeRTOS/source/timers.c ****             traceTIMER_COMMAND_SEND( xTimer, xCommandID, xOptionalValue, xReturn );
 423:Middlewares/FreeRTOS/source/timers.c ****         }
 424:Middlewares/FreeRTOS/source/timers.c ****         else
 425:Middlewares/FreeRTOS/source/timers.c ****         {
 426:Middlewares/FreeRTOS/source/timers.c ****             mtCOVERAGE_TEST_MARKER();
 427:Middlewares/FreeRTOS/source/timers.c ****         }
 428:Middlewares/FreeRTOS/source/timers.c **** 
 429:Middlewares/FreeRTOS/source/timers.c ****         return xReturn;
 430:Middlewares/FreeRTOS/source/timers.c ****     }
 431:Middlewares/FreeRTOS/source/timers.c **** /*-----------------------------------------------------------*/
 432:Middlewares/FreeRTOS/source/timers.c **** 
 433:Middlewares/FreeRTOS/source/timers.c ****     TaskHandle_t xTimerGetTimerDaemonTaskHandle( void )
 434:Middlewares/FreeRTOS/source/timers.c ****     {
 435:Middlewares/FreeRTOS/source/timers.c ****         /* If xTimerGetTimerDaemonTaskHandle() is called before the scheduler has been
 436:Middlewares/FreeRTOS/source/timers.c ****          * started, then xTimerTaskHandle will be NULL. */
 437:Middlewares/FreeRTOS/source/timers.c ****         configASSERT( ( xTimerTaskHandle != NULL ) );
 438:Middlewares/FreeRTOS/source/timers.c ****         return xTimerTaskHandle;
 439:Middlewares/FreeRTOS/source/timers.c ****     }
 440:Middlewares/FreeRTOS/source/timers.c **** /*-----------------------------------------------------------*/
 441:Middlewares/FreeRTOS/source/timers.c **** 
 442:Middlewares/FreeRTOS/source/timers.c ****     TickType_t xTimerGetPeriod( TimerHandle_t xTimer )
 443:Middlewares/FreeRTOS/source/timers.c ****     {
 444:Middlewares/FreeRTOS/source/timers.c ****         Timer_t * pxTimer = xTimer;
 445:Middlewares/FreeRTOS/source/timers.c **** 
 446:Middlewares/FreeRTOS/source/timers.c ****         configASSERT( xTimer );
 447:Middlewares/FreeRTOS/source/timers.c ****         return pxTimer->xTimerPeriodInTicks;
 448:Middlewares/FreeRTOS/source/timers.c ****     }
 449:Middlewares/FreeRTOS/source/timers.c **** /*-----------------------------------------------------------*/
 450:Middlewares/FreeRTOS/source/timers.c **** 
 451:Middlewares/FreeRTOS/source/timers.c ****     void vTimerSetReloadMode( TimerHandle_t xTimer,
 452:Middlewares/FreeRTOS/source/timers.c ****                               const BaseType_t xAutoReload )
 453:Middlewares/FreeRTOS/source/timers.c ****     {
 454:Middlewares/FreeRTOS/source/timers.c ****         Timer_t * pxTimer = xTimer;
 455:Middlewares/FreeRTOS/source/timers.c **** 
 456:Middlewares/FreeRTOS/source/timers.c ****         configASSERT( xTimer );
 457:Middlewares/FreeRTOS/source/timers.c ****         taskENTER_CRITICAL();
 458:Middlewares/FreeRTOS/source/timers.c ****         {
 459:Middlewares/FreeRTOS/source/timers.c ****             if( xAutoReload != pdFALSE )
 460:Middlewares/FreeRTOS/source/timers.c ****             {
 461:Middlewares/FreeRTOS/source/timers.c ****                 pxTimer->ucStatus |= tmrSTATUS_IS_AUTORELOAD;
 462:Middlewares/FreeRTOS/source/timers.c ****             }
 463:Middlewares/FreeRTOS/source/timers.c ****             else
 464:Middlewares/FreeRTOS/source/timers.c ****             {
 465:Middlewares/FreeRTOS/source/timers.c ****                 pxTimer->ucStatus &= ( ( uint8_t ) ~tmrSTATUS_IS_AUTORELOAD );
 466:Middlewares/FreeRTOS/source/timers.c ****             }
 467:Middlewares/FreeRTOS/source/timers.c ****         }
 468:Middlewares/FreeRTOS/source/timers.c ****         taskEXIT_CRITICAL();
 469:Middlewares/FreeRTOS/source/timers.c ****     }
 470:Middlewares/FreeRTOS/source/timers.c **** /*-----------------------------------------------------------*/
 471:Middlewares/FreeRTOS/source/timers.c **** 
 472:Middlewares/FreeRTOS/source/timers.c ****     BaseType_t xTimerGetReloadMode( TimerHandle_t xTimer )
 473:Middlewares/FreeRTOS/source/timers.c ****     {
ARM GAS  /tmp/ccIlBc3y.s 			page 10


 474:Middlewares/FreeRTOS/source/timers.c ****         Timer_t * pxTimer = xTimer;
 475:Middlewares/FreeRTOS/source/timers.c ****         BaseType_t xReturn;
 476:Middlewares/FreeRTOS/source/timers.c **** 
 477:Middlewares/FreeRTOS/source/timers.c ****         configASSERT( xTimer );
 478:Middlewares/FreeRTOS/source/timers.c ****         taskENTER_CRITICAL();
 479:Middlewares/FreeRTOS/source/timers.c ****         {
 480:Middlewares/FreeRTOS/source/timers.c ****             if( ( pxTimer->ucStatus & tmrSTATUS_IS_AUTORELOAD ) == 0 )
 481:Middlewares/FreeRTOS/source/timers.c ****             {
 482:Middlewares/FreeRTOS/source/timers.c ****                 /* Not an auto-reload timer. */
 483:Middlewares/FreeRTOS/source/timers.c ****                 xReturn = pdFALSE;
 484:Middlewares/FreeRTOS/source/timers.c ****             }
 485:Middlewares/FreeRTOS/source/timers.c ****             else
 486:Middlewares/FreeRTOS/source/timers.c ****             {
 487:Middlewares/FreeRTOS/source/timers.c ****                 /* Is an auto-reload timer. */
 488:Middlewares/FreeRTOS/source/timers.c ****                 xReturn = pdTRUE;
 489:Middlewares/FreeRTOS/source/timers.c ****             }
 490:Middlewares/FreeRTOS/source/timers.c ****         }
 491:Middlewares/FreeRTOS/source/timers.c ****         taskEXIT_CRITICAL();
 492:Middlewares/FreeRTOS/source/timers.c **** 
 493:Middlewares/FreeRTOS/source/timers.c ****         return xReturn;
 494:Middlewares/FreeRTOS/source/timers.c ****     }
 495:Middlewares/FreeRTOS/source/timers.c **** 
 496:Middlewares/FreeRTOS/source/timers.c ****     UBaseType_t uxTimerGetReloadMode( TimerHandle_t xTimer )
 497:Middlewares/FreeRTOS/source/timers.c ****     {
 498:Middlewares/FreeRTOS/source/timers.c ****         return ( UBaseType_t ) xTimerGetReloadMode( xTimer );
 499:Middlewares/FreeRTOS/source/timers.c ****     }
 500:Middlewares/FreeRTOS/source/timers.c **** /*-----------------------------------------------------------*/
 501:Middlewares/FreeRTOS/source/timers.c **** 
 502:Middlewares/FreeRTOS/source/timers.c ****     TickType_t xTimerGetExpiryTime( TimerHandle_t xTimer )
 503:Middlewares/FreeRTOS/source/timers.c ****     {
 504:Middlewares/FreeRTOS/source/timers.c ****         Timer_t * pxTimer = xTimer;
 505:Middlewares/FreeRTOS/source/timers.c ****         TickType_t xReturn;
 506:Middlewares/FreeRTOS/source/timers.c **** 
 507:Middlewares/FreeRTOS/source/timers.c ****         configASSERT( xTimer );
 508:Middlewares/FreeRTOS/source/timers.c ****         xReturn = listGET_LIST_ITEM_VALUE( &( pxTimer->xTimerListItem ) );
 509:Middlewares/FreeRTOS/source/timers.c ****         return xReturn;
 510:Middlewares/FreeRTOS/source/timers.c ****     }
 511:Middlewares/FreeRTOS/source/timers.c **** /*-----------------------------------------------------------*/
 512:Middlewares/FreeRTOS/source/timers.c **** 
 513:Middlewares/FreeRTOS/source/timers.c ****     #if ( configSUPPORT_STATIC_ALLOCATION == 1 )
 514:Middlewares/FreeRTOS/source/timers.c ****         BaseType_t xTimerGetStaticBuffer( TimerHandle_t xTimer,
 515:Middlewares/FreeRTOS/source/timers.c ****                                           StaticTimer_t ** ppxTimerBuffer )
 516:Middlewares/FreeRTOS/source/timers.c ****         {
 517:Middlewares/FreeRTOS/source/timers.c ****             BaseType_t xReturn;
 518:Middlewares/FreeRTOS/source/timers.c ****             Timer_t * pxTimer = xTimer;
 519:Middlewares/FreeRTOS/source/timers.c **** 
 520:Middlewares/FreeRTOS/source/timers.c ****             configASSERT( ppxTimerBuffer != NULL );
 521:Middlewares/FreeRTOS/source/timers.c **** 
 522:Middlewares/FreeRTOS/source/timers.c ****             if( ( pxTimer->ucStatus & tmrSTATUS_IS_STATICALLY_ALLOCATED ) != 0 )
 523:Middlewares/FreeRTOS/source/timers.c ****             {
 524:Middlewares/FreeRTOS/source/timers.c ****                 *ppxTimerBuffer = ( StaticTimer_t * ) pxTimer;
 525:Middlewares/FreeRTOS/source/timers.c ****                 xReturn = pdTRUE;
 526:Middlewares/FreeRTOS/source/timers.c ****             }
 527:Middlewares/FreeRTOS/source/timers.c ****             else
 528:Middlewares/FreeRTOS/source/timers.c ****             {
 529:Middlewares/FreeRTOS/source/timers.c ****                 xReturn = pdFALSE;
 530:Middlewares/FreeRTOS/source/timers.c ****             }
ARM GAS  /tmp/ccIlBc3y.s 			page 11


 531:Middlewares/FreeRTOS/source/timers.c **** 
 532:Middlewares/FreeRTOS/source/timers.c ****             return xReturn;
 533:Middlewares/FreeRTOS/source/timers.c ****         }
 534:Middlewares/FreeRTOS/source/timers.c ****     #endif /* configSUPPORT_STATIC_ALLOCATION */
 535:Middlewares/FreeRTOS/source/timers.c **** /*-----------------------------------------------------------*/
 536:Middlewares/FreeRTOS/source/timers.c **** 
 537:Middlewares/FreeRTOS/source/timers.c ****     const char * pcTimerGetName( TimerHandle_t xTimer ) /*lint !e971 Unqualified char types are all
 538:Middlewares/FreeRTOS/source/timers.c ****     {
 539:Middlewares/FreeRTOS/source/timers.c ****         Timer_t * pxTimer = xTimer;
 540:Middlewares/FreeRTOS/source/timers.c **** 
 541:Middlewares/FreeRTOS/source/timers.c ****         configASSERT( xTimer );
 542:Middlewares/FreeRTOS/source/timers.c ****         return pxTimer->pcTimerName;
 543:Middlewares/FreeRTOS/source/timers.c ****     }
 544:Middlewares/FreeRTOS/source/timers.c **** /*-----------------------------------------------------------*/
 545:Middlewares/FreeRTOS/source/timers.c **** 
 546:Middlewares/FreeRTOS/source/timers.c ****     static void prvReloadTimer( Timer_t * const pxTimer,
 547:Middlewares/FreeRTOS/source/timers.c ****                                 TickType_t xExpiredTime,
 548:Middlewares/FreeRTOS/source/timers.c ****                                 const TickType_t xTimeNow )
 549:Middlewares/FreeRTOS/source/timers.c ****     {
 550:Middlewares/FreeRTOS/source/timers.c ****         /* Insert the timer into the appropriate list for the next expiry time.
 551:Middlewares/FreeRTOS/source/timers.c ****          * If the next expiry time has already passed, advance the expiry time,
 552:Middlewares/FreeRTOS/source/timers.c ****          * call the callback function, and try again. */
 553:Middlewares/FreeRTOS/source/timers.c ****         while( prvInsertTimerInActiveList( pxTimer, ( xExpiredTime + pxTimer->xTimerPeriodInTicks )
 554:Middlewares/FreeRTOS/source/timers.c ****         {
 555:Middlewares/FreeRTOS/source/timers.c ****             /* Advance the expiry time. */
 556:Middlewares/FreeRTOS/source/timers.c ****             xExpiredTime += pxTimer->xTimerPeriodInTicks;
 557:Middlewares/FreeRTOS/source/timers.c **** 
 558:Middlewares/FreeRTOS/source/timers.c ****             /* Call the timer callback. */
 559:Middlewares/FreeRTOS/source/timers.c ****             traceTIMER_EXPIRED( pxTimer );
 560:Middlewares/FreeRTOS/source/timers.c ****             pxTimer->pxCallbackFunction( ( TimerHandle_t ) pxTimer );
 561:Middlewares/FreeRTOS/source/timers.c ****         }
 562:Middlewares/FreeRTOS/source/timers.c ****     }
 563:Middlewares/FreeRTOS/source/timers.c **** /*-----------------------------------------------------------*/
 564:Middlewares/FreeRTOS/source/timers.c **** 
 565:Middlewares/FreeRTOS/source/timers.c ****     static void prvProcessExpiredTimer( const TickType_t xNextExpireTime,
 566:Middlewares/FreeRTOS/source/timers.c ****                                         const TickType_t xTimeNow )
 567:Middlewares/FreeRTOS/source/timers.c ****     {
 568:Middlewares/FreeRTOS/source/timers.c ****         Timer_t * const pxTimer = ( Timer_t * ) listGET_OWNER_OF_HEAD_ENTRY( pxCurrentTimerList ); 
 569:Middlewares/FreeRTOS/source/timers.c **** 
 570:Middlewares/FreeRTOS/source/timers.c ****         /* Remove the timer from the list of active timers.  A check has already
 571:Middlewares/FreeRTOS/source/timers.c ****          * been performed to ensure the list is not empty. */
 572:Middlewares/FreeRTOS/source/timers.c **** 
 573:Middlewares/FreeRTOS/source/timers.c ****         ( void ) uxListRemove( &( pxTimer->xTimerListItem ) );
 574:Middlewares/FreeRTOS/source/timers.c **** 
 575:Middlewares/FreeRTOS/source/timers.c ****         /* If the timer is an auto-reload timer then calculate the next
 576:Middlewares/FreeRTOS/source/timers.c ****          * expiry time and re-insert the timer in the list of active timers. */
 577:Middlewares/FreeRTOS/source/timers.c ****         if( ( pxTimer->ucStatus & tmrSTATUS_IS_AUTORELOAD ) != 0 )
 578:Middlewares/FreeRTOS/source/timers.c ****         {
 579:Middlewares/FreeRTOS/source/timers.c ****             prvReloadTimer( pxTimer, xNextExpireTime, xTimeNow );
 580:Middlewares/FreeRTOS/source/timers.c ****         }
 581:Middlewares/FreeRTOS/source/timers.c ****         else
 582:Middlewares/FreeRTOS/source/timers.c ****         {
 583:Middlewares/FreeRTOS/source/timers.c ****             pxTimer->ucStatus &= ( ( uint8_t ) ~tmrSTATUS_IS_ACTIVE );
 584:Middlewares/FreeRTOS/source/timers.c ****         }
 585:Middlewares/FreeRTOS/source/timers.c **** 
 586:Middlewares/FreeRTOS/source/timers.c ****         /* Call the timer callback. */
 587:Middlewares/FreeRTOS/source/timers.c ****         traceTIMER_EXPIRED( pxTimer );
ARM GAS  /tmp/ccIlBc3y.s 			page 12


 588:Middlewares/FreeRTOS/source/timers.c ****         pxTimer->pxCallbackFunction( ( TimerHandle_t ) pxTimer );
 589:Middlewares/FreeRTOS/source/timers.c ****     }
 590:Middlewares/FreeRTOS/source/timers.c **** /*-----------------------------------------------------------*/
 591:Middlewares/FreeRTOS/source/timers.c **** 
 592:Middlewares/FreeRTOS/source/timers.c ****     static portTASK_FUNCTION( prvTimerTask, pvParameters )
 593:Middlewares/FreeRTOS/source/timers.c ****     {
 594:Middlewares/FreeRTOS/source/timers.c ****         TickType_t xNextExpireTime;
 595:Middlewares/FreeRTOS/source/timers.c ****         BaseType_t xListWasEmpty;
 596:Middlewares/FreeRTOS/source/timers.c **** 
 597:Middlewares/FreeRTOS/source/timers.c ****         /* Just to avoid compiler warnings. */
 598:Middlewares/FreeRTOS/source/timers.c ****         ( void ) pvParameters;
 599:Middlewares/FreeRTOS/source/timers.c **** 
 600:Middlewares/FreeRTOS/source/timers.c ****         #if ( configUSE_DAEMON_TASK_STARTUP_HOOK == 1 )
 601:Middlewares/FreeRTOS/source/timers.c ****         {
 602:Middlewares/FreeRTOS/source/timers.c ****             /* Allow the application writer to execute some code in the context of
 603:Middlewares/FreeRTOS/source/timers.c ****              * this task at the point the task starts executing.  This is useful if the
 604:Middlewares/FreeRTOS/source/timers.c ****              * application includes initialisation code that would benefit from
 605:Middlewares/FreeRTOS/source/timers.c ****              * executing after the scheduler has been started. */
 606:Middlewares/FreeRTOS/source/timers.c ****             vApplicationDaemonTaskStartupHook();
 607:Middlewares/FreeRTOS/source/timers.c ****         }
 608:Middlewares/FreeRTOS/source/timers.c ****         #endif /* configUSE_DAEMON_TASK_STARTUP_HOOK */
 609:Middlewares/FreeRTOS/source/timers.c **** 
 610:Middlewares/FreeRTOS/source/timers.c ****         for( ; ; )
 611:Middlewares/FreeRTOS/source/timers.c ****         {
 612:Middlewares/FreeRTOS/source/timers.c ****             /* Query the timers list to see if it contains any timers, and if so,
 613:Middlewares/FreeRTOS/source/timers.c ****              * obtain the time at which the next timer will expire. */
 614:Middlewares/FreeRTOS/source/timers.c ****             xNextExpireTime = prvGetNextExpireTime( &xListWasEmpty );
 615:Middlewares/FreeRTOS/source/timers.c **** 
 616:Middlewares/FreeRTOS/source/timers.c ****             /* If a timer has expired, process it.  Otherwise, block this task
 617:Middlewares/FreeRTOS/source/timers.c ****              * until either a timer does expire, or a command is received. */
 618:Middlewares/FreeRTOS/source/timers.c ****             prvProcessTimerOrBlockTask( xNextExpireTime, xListWasEmpty );
 619:Middlewares/FreeRTOS/source/timers.c **** 
 620:Middlewares/FreeRTOS/source/timers.c ****             /* Empty the command queue. */
 621:Middlewares/FreeRTOS/source/timers.c ****             prvProcessReceivedCommands();
 622:Middlewares/FreeRTOS/source/timers.c ****         }
 623:Middlewares/FreeRTOS/source/timers.c ****     }
 624:Middlewares/FreeRTOS/source/timers.c **** /*-----------------------------------------------------------*/
 625:Middlewares/FreeRTOS/source/timers.c **** 
 626:Middlewares/FreeRTOS/source/timers.c ****     static void prvProcessTimerOrBlockTask( const TickType_t xNextExpireTime,
 627:Middlewares/FreeRTOS/source/timers.c ****                                             BaseType_t xListWasEmpty )
 628:Middlewares/FreeRTOS/source/timers.c ****     {
 629:Middlewares/FreeRTOS/source/timers.c ****         TickType_t xTimeNow;
 630:Middlewares/FreeRTOS/source/timers.c ****         BaseType_t xTimerListsWereSwitched;
 631:Middlewares/FreeRTOS/source/timers.c **** 
 632:Middlewares/FreeRTOS/source/timers.c ****         vTaskSuspendAll();
 633:Middlewares/FreeRTOS/source/timers.c ****         {
 634:Middlewares/FreeRTOS/source/timers.c ****             /* Obtain the time now to make an assessment as to whether the timer
 635:Middlewares/FreeRTOS/source/timers.c ****              * has expired or not.  If obtaining the time causes the lists to switch
 636:Middlewares/FreeRTOS/source/timers.c ****              * then don't process this timer as any timers that remained in the list
 637:Middlewares/FreeRTOS/source/timers.c ****              * when the lists were switched will have been processed within the
 638:Middlewares/FreeRTOS/source/timers.c ****              * prvSampleTimeNow() function. */
 639:Middlewares/FreeRTOS/source/timers.c ****             xTimeNow = prvSampleTimeNow( &xTimerListsWereSwitched );
 640:Middlewares/FreeRTOS/source/timers.c **** 
 641:Middlewares/FreeRTOS/source/timers.c ****             if( xTimerListsWereSwitched == pdFALSE )
 642:Middlewares/FreeRTOS/source/timers.c ****             {
 643:Middlewares/FreeRTOS/source/timers.c ****                 /* The tick count has not overflowed, has the timer expired? */
 644:Middlewares/FreeRTOS/source/timers.c ****                 if( ( xListWasEmpty == pdFALSE ) && ( xNextExpireTime <= xTimeNow ) )
ARM GAS  /tmp/ccIlBc3y.s 			page 13


 645:Middlewares/FreeRTOS/source/timers.c ****                 {
 646:Middlewares/FreeRTOS/source/timers.c ****                     ( void ) xTaskResumeAll();
 647:Middlewares/FreeRTOS/source/timers.c ****                     prvProcessExpiredTimer( xNextExpireTime, xTimeNow );
 648:Middlewares/FreeRTOS/source/timers.c ****                 }
 649:Middlewares/FreeRTOS/source/timers.c ****                 else
 650:Middlewares/FreeRTOS/source/timers.c ****                 {
 651:Middlewares/FreeRTOS/source/timers.c ****                     /* The tick count has not overflowed, and the next expire
 652:Middlewares/FreeRTOS/source/timers.c ****                      * time has not been reached yet.  This task should therefore
 653:Middlewares/FreeRTOS/source/timers.c ****                      * block to wait for the next expire time or a command to be
 654:Middlewares/FreeRTOS/source/timers.c ****                      * received - whichever comes first.  The following line cannot
 655:Middlewares/FreeRTOS/source/timers.c ****                      * be reached unless xNextExpireTime > xTimeNow, except in the
 656:Middlewares/FreeRTOS/source/timers.c ****                      * case when the current timer list is empty. */
 657:Middlewares/FreeRTOS/source/timers.c ****                     if( xListWasEmpty != pdFALSE )
 658:Middlewares/FreeRTOS/source/timers.c ****                     {
 659:Middlewares/FreeRTOS/source/timers.c ****                         /* The current timer list is empty - is the overflow list
 660:Middlewares/FreeRTOS/source/timers.c ****                          * also empty? */
 661:Middlewares/FreeRTOS/source/timers.c ****                         xListWasEmpty = listLIST_IS_EMPTY( pxOverflowTimerList );
 662:Middlewares/FreeRTOS/source/timers.c ****                     }
 663:Middlewares/FreeRTOS/source/timers.c **** 
 664:Middlewares/FreeRTOS/source/timers.c ****                     vQueueWaitForMessageRestricted( xTimerQueue, ( xNextExpireTime - xTimeNow ), xL
 665:Middlewares/FreeRTOS/source/timers.c **** 
 666:Middlewares/FreeRTOS/source/timers.c ****                     if( xTaskResumeAll() == pdFALSE )
 667:Middlewares/FreeRTOS/source/timers.c ****                     {
 668:Middlewares/FreeRTOS/source/timers.c ****                         /* Yield to wait for either a command to arrive, or the
 669:Middlewares/FreeRTOS/source/timers.c ****                          * block time to expire.  If a command arrived between the
 670:Middlewares/FreeRTOS/source/timers.c ****                          * critical section being exited and this yield then the yield
 671:Middlewares/FreeRTOS/source/timers.c ****                          * will not cause the task to block. */
 672:Middlewares/FreeRTOS/source/timers.c ****                         portYIELD_WITHIN_API();
 673:Middlewares/FreeRTOS/source/timers.c ****                     }
 674:Middlewares/FreeRTOS/source/timers.c ****                     else
 675:Middlewares/FreeRTOS/source/timers.c ****                     {
 676:Middlewares/FreeRTOS/source/timers.c ****                         mtCOVERAGE_TEST_MARKER();
 677:Middlewares/FreeRTOS/source/timers.c ****                     }
 678:Middlewares/FreeRTOS/source/timers.c ****                 }
 679:Middlewares/FreeRTOS/source/timers.c ****             }
 680:Middlewares/FreeRTOS/source/timers.c ****             else
 681:Middlewares/FreeRTOS/source/timers.c ****             {
 682:Middlewares/FreeRTOS/source/timers.c ****                 ( void ) xTaskResumeAll();
 683:Middlewares/FreeRTOS/source/timers.c ****             }
 684:Middlewares/FreeRTOS/source/timers.c ****         }
 685:Middlewares/FreeRTOS/source/timers.c ****     }
 686:Middlewares/FreeRTOS/source/timers.c **** /*-----------------------------------------------------------*/
 687:Middlewares/FreeRTOS/source/timers.c **** 
 688:Middlewares/FreeRTOS/source/timers.c ****     static TickType_t prvGetNextExpireTime( BaseType_t * const pxListWasEmpty )
 689:Middlewares/FreeRTOS/source/timers.c ****     {
 690:Middlewares/FreeRTOS/source/timers.c ****         TickType_t xNextExpireTime;
 691:Middlewares/FreeRTOS/source/timers.c **** 
 692:Middlewares/FreeRTOS/source/timers.c ****         /* Timers are listed in expiry time order, with the head of the list
 693:Middlewares/FreeRTOS/source/timers.c ****          * referencing the task that will expire first.  Obtain the time at which
 694:Middlewares/FreeRTOS/source/timers.c ****          * the timer with the nearest expiry time will expire.  If there are no
 695:Middlewares/FreeRTOS/source/timers.c ****          * active timers then just set the next expire time to 0.  That will cause
 696:Middlewares/FreeRTOS/source/timers.c ****          * this task to unblock when the tick count overflows, at which point the
 697:Middlewares/FreeRTOS/source/timers.c ****          * timer lists will be switched and the next expiry time can be
 698:Middlewares/FreeRTOS/source/timers.c ****          * re-assessed.  */
 699:Middlewares/FreeRTOS/source/timers.c ****         *pxListWasEmpty = listLIST_IS_EMPTY( pxCurrentTimerList );
 700:Middlewares/FreeRTOS/source/timers.c **** 
 701:Middlewares/FreeRTOS/source/timers.c ****         if( *pxListWasEmpty == pdFALSE )
ARM GAS  /tmp/ccIlBc3y.s 			page 14


 702:Middlewares/FreeRTOS/source/timers.c ****         {
 703:Middlewares/FreeRTOS/source/timers.c ****             xNextExpireTime = listGET_ITEM_VALUE_OF_HEAD_ENTRY( pxCurrentTimerList );
 704:Middlewares/FreeRTOS/source/timers.c ****         }
 705:Middlewares/FreeRTOS/source/timers.c ****         else
 706:Middlewares/FreeRTOS/source/timers.c ****         {
 707:Middlewares/FreeRTOS/source/timers.c ****             /* Ensure the task unblocks when the tick count rolls over. */
 708:Middlewares/FreeRTOS/source/timers.c ****             xNextExpireTime = ( TickType_t ) 0U;
 709:Middlewares/FreeRTOS/source/timers.c ****         }
 710:Middlewares/FreeRTOS/source/timers.c **** 
 711:Middlewares/FreeRTOS/source/timers.c ****         return xNextExpireTime;
 712:Middlewares/FreeRTOS/source/timers.c ****     }
 713:Middlewares/FreeRTOS/source/timers.c **** /*-----------------------------------------------------------*/
 714:Middlewares/FreeRTOS/source/timers.c **** 
 715:Middlewares/FreeRTOS/source/timers.c ****     static TickType_t prvSampleTimeNow( BaseType_t * const pxTimerListsWereSwitched )
 716:Middlewares/FreeRTOS/source/timers.c ****     {
 717:Middlewares/FreeRTOS/source/timers.c ****         TickType_t xTimeNow;
 718:Middlewares/FreeRTOS/source/timers.c ****         PRIVILEGED_DATA static TickType_t xLastTime = ( TickType_t ) 0U; /*lint !e956 Variable is o
 719:Middlewares/FreeRTOS/source/timers.c **** 
 720:Middlewares/FreeRTOS/source/timers.c ****         xTimeNow = xTaskGetTickCount();
 721:Middlewares/FreeRTOS/source/timers.c **** 
 722:Middlewares/FreeRTOS/source/timers.c ****         if( xTimeNow < xLastTime )
 723:Middlewares/FreeRTOS/source/timers.c ****         {
 724:Middlewares/FreeRTOS/source/timers.c ****             prvSwitchTimerLists();
 725:Middlewares/FreeRTOS/source/timers.c ****             *pxTimerListsWereSwitched = pdTRUE;
 726:Middlewares/FreeRTOS/source/timers.c ****         }
 727:Middlewares/FreeRTOS/source/timers.c ****         else
 728:Middlewares/FreeRTOS/source/timers.c ****         {
 729:Middlewares/FreeRTOS/source/timers.c ****             *pxTimerListsWereSwitched = pdFALSE;
 730:Middlewares/FreeRTOS/source/timers.c ****         }
 731:Middlewares/FreeRTOS/source/timers.c **** 
 732:Middlewares/FreeRTOS/source/timers.c ****         xLastTime = xTimeNow;
 733:Middlewares/FreeRTOS/source/timers.c **** 
 734:Middlewares/FreeRTOS/source/timers.c ****         return xTimeNow;
 735:Middlewares/FreeRTOS/source/timers.c ****     }
 736:Middlewares/FreeRTOS/source/timers.c **** /*-----------------------------------------------------------*/
 737:Middlewares/FreeRTOS/source/timers.c **** 
 738:Middlewares/FreeRTOS/source/timers.c ****     static BaseType_t prvInsertTimerInActiveList( Timer_t * const pxTimer,
 739:Middlewares/FreeRTOS/source/timers.c ****                                                   const TickType_t xNextExpiryTime,
 740:Middlewares/FreeRTOS/source/timers.c ****                                                   const TickType_t xTimeNow,
 741:Middlewares/FreeRTOS/source/timers.c ****                                                   const TickType_t xCommandTime )
 742:Middlewares/FreeRTOS/source/timers.c ****     {
 743:Middlewares/FreeRTOS/source/timers.c ****         BaseType_t xProcessTimerNow = pdFALSE;
 744:Middlewares/FreeRTOS/source/timers.c **** 
 745:Middlewares/FreeRTOS/source/timers.c ****         listSET_LIST_ITEM_VALUE( &( pxTimer->xTimerListItem ), xNextExpiryTime );
 746:Middlewares/FreeRTOS/source/timers.c ****         listSET_LIST_ITEM_OWNER( &( pxTimer->xTimerListItem ), pxTimer );
 747:Middlewares/FreeRTOS/source/timers.c **** 
 748:Middlewares/FreeRTOS/source/timers.c ****         if( xNextExpiryTime <= xTimeNow )
 749:Middlewares/FreeRTOS/source/timers.c ****         {
 750:Middlewares/FreeRTOS/source/timers.c ****             /* Has the expiry time elapsed between the command to start/reset a
 751:Middlewares/FreeRTOS/source/timers.c ****              * timer was issued, and the time the command was processed? */
 752:Middlewares/FreeRTOS/source/timers.c ****             if( ( ( TickType_t ) ( xTimeNow - xCommandTime ) ) >= pxTimer->xTimerPeriodInTicks ) /*
 753:Middlewares/FreeRTOS/source/timers.c ****             {
 754:Middlewares/FreeRTOS/source/timers.c ****                 /* The time between a command being issued and the command being
 755:Middlewares/FreeRTOS/source/timers.c ****                  * processed actually exceeds the timers period.  */
 756:Middlewares/FreeRTOS/source/timers.c ****                 xProcessTimerNow = pdTRUE;
 757:Middlewares/FreeRTOS/source/timers.c ****             }
 758:Middlewares/FreeRTOS/source/timers.c ****             else
ARM GAS  /tmp/ccIlBc3y.s 			page 15


 759:Middlewares/FreeRTOS/source/timers.c ****             {
 760:Middlewares/FreeRTOS/source/timers.c ****                 vListInsert( pxOverflowTimerList, &( pxTimer->xTimerListItem ) );
 761:Middlewares/FreeRTOS/source/timers.c ****             }
 762:Middlewares/FreeRTOS/source/timers.c ****         }
 763:Middlewares/FreeRTOS/source/timers.c ****         else
 764:Middlewares/FreeRTOS/source/timers.c ****         {
 765:Middlewares/FreeRTOS/source/timers.c ****             if( ( xTimeNow < xCommandTime ) && ( xNextExpiryTime >= xCommandTime ) )
 766:Middlewares/FreeRTOS/source/timers.c ****             {
 767:Middlewares/FreeRTOS/source/timers.c ****                 /* If, since the command was issued, the tick count has overflowed
 768:Middlewares/FreeRTOS/source/timers.c ****                  * but the expiry time has not, then the timer must have already passed
 769:Middlewares/FreeRTOS/source/timers.c ****                  * its expiry time and should be processed immediately. */
 770:Middlewares/FreeRTOS/source/timers.c ****                 xProcessTimerNow = pdTRUE;
 771:Middlewares/FreeRTOS/source/timers.c ****             }
 772:Middlewares/FreeRTOS/source/timers.c ****             else
 773:Middlewares/FreeRTOS/source/timers.c ****             {
 774:Middlewares/FreeRTOS/source/timers.c ****                 vListInsert( pxCurrentTimerList, &( pxTimer->xTimerListItem ) );
 775:Middlewares/FreeRTOS/source/timers.c ****             }
 776:Middlewares/FreeRTOS/source/timers.c ****         }
 777:Middlewares/FreeRTOS/source/timers.c **** 
 778:Middlewares/FreeRTOS/source/timers.c ****         return xProcessTimerNow;
 779:Middlewares/FreeRTOS/source/timers.c ****     }
 780:Middlewares/FreeRTOS/source/timers.c **** /*-----------------------------------------------------------*/
 781:Middlewares/FreeRTOS/source/timers.c **** 
 782:Middlewares/FreeRTOS/source/timers.c ****     static void prvProcessReceivedCommands( void )
 783:Middlewares/FreeRTOS/source/timers.c ****     {
 784:Middlewares/FreeRTOS/source/timers.c ****         DaemonTaskMessage_t xMessage;
 785:Middlewares/FreeRTOS/source/timers.c ****         Timer_t * pxTimer;
 786:Middlewares/FreeRTOS/source/timers.c ****         BaseType_t xTimerListsWereSwitched;
 787:Middlewares/FreeRTOS/source/timers.c ****         TickType_t xTimeNow;
 788:Middlewares/FreeRTOS/source/timers.c **** 
 789:Middlewares/FreeRTOS/source/timers.c ****         while( xQueueReceive( xTimerQueue, &xMessage, tmrNO_DELAY ) != pdFAIL ) /*lint !e603 xMessa
 790:Middlewares/FreeRTOS/source/timers.c ****         {
 791:Middlewares/FreeRTOS/source/timers.c ****             #if ( INCLUDE_xTimerPendFunctionCall == 1 )
 792:Middlewares/FreeRTOS/source/timers.c ****             {
 793:Middlewares/FreeRTOS/source/timers.c ****                 /* Negative commands are pended function calls rather than timer
 794:Middlewares/FreeRTOS/source/timers.c ****                  * commands. */
 795:Middlewares/FreeRTOS/source/timers.c ****                 if( xMessage.xMessageID < ( BaseType_t ) 0 )
 796:Middlewares/FreeRTOS/source/timers.c ****                 {
 797:Middlewares/FreeRTOS/source/timers.c ****                     const CallbackParameters_t * const pxCallback = &( xMessage.u.xCallbackParamete
 798:Middlewares/FreeRTOS/source/timers.c **** 
 799:Middlewares/FreeRTOS/source/timers.c ****                     /* The timer uses the xCallbackParameters member to request a
 800:Middlewares/FreeRTOS/source/timers.c ****                      * callback be executed.  Check the callback is not NULL. */
 801:Middlewares/FreeRTOS/source/timers.c ****                     configASSERT( pxCallback );
 802:Middlewares/FreeRTOS/source/timers.c **** 
 803:Middlewares/FreeRTOS/source/timers.c ****                     /* Call the function. */
 804:Middlewares/FreeRTOS/source/timers.c ****                     pxCallback->pxCallbackFunction( pxCallback->pvParameter1, pxCallback->ulParamet
 805:Middlewares/FreeRTOS/source/timers.c ****                 }
 806:Middlewares/FreeRTOS/source/timers.c ****                 else
 807:Middlewares/FreeRTOS/source/timers.c ****                 {
 808:Middlewares/FreeRTOS/source/timers.c ****                     mtCOVERAGE_TEST_MARKER();
 809:Middlewares/FreeRTOS/source/timers.c ****                 }
 810:Middlewares/FreeRTOS/source/timers.c ****             }
 811:Middlewares/FreeRTOS/source/timers.c ****             #endif /* INCLUDE_xTimerPendFunctionCall */
 812:Middlewares/FreeRTOS/source/timers.c **** 
 813:Middlewares/FreeRTOS/source/timers.c ****             /* Commands that are positive are timer commands rather than pended
 814:Middlewares/FreeRTOS/source/timers.c ****              * function calls. */
 815:Middlewares/FreeRTOS/source/timers.c ****             if( xMessage.xMessageID >= ( BaseType_t ) 0 )
ARM GAS  /tmp/ccIlBc3y.s 			page 16


 816:Middlewares/FreeRTOS/source/timers.c ****             {
 817:Middlewares/FreeRTOS/source/timers.c ****                 /* The messages uses the xTimerParameters member to work on a
 818:Middlewares/FreeRTOS/source/timers.c ****                  * software timer. */
 819:Middlewares/FreeRTOS/source/timers.c ****                 pxTimer = xMessage.u.xTimerParameters.pxTimer;
 820:Middlewares/FreeRTOS/source/timers.c **** 
 821:Middlewares/FreeRTOS/source/timers.c ****                 if( listIS_CONTAINED_WITHIN( NULL, &( pxTimer->xTimerListItem ) ) == pdFALSE ) /*li
 822:Middlewares/FreeRTOS/source/timers.c ****                 {
 823:Middlewares/FreeRTOS/source/timers.c ****                     /* The timer is in a list, remove it. */
 824:Middlewares/FreeRTOS/source/timers.c ****                     ( void ) uxListRemove( &( pxTimer->xTimerListItem ) );
 825:Middlewares/FreeRTOS/source/timers.c ****                 }
 826:Middlewares/FreeRTOS/source/timers.c ****                 else
 827:Middlewares/FreeRTOS/source/timers.c ****                 {
 828:Middlewares/FreeRTOS/source/timers.c ****                     mtCOVERAGE_TEST_MARKER();
 829:Middlewares/FreeRTOS/source/timers.c ****                 }
 830:Middlewares/FreeRTOS/source/timers.c **** 
 831:Middlewares/FreeRTOS/source/timers.c ****                 traceTIMER_COMMAND_RECEIVED( pxTimer, xMessage.xMessageID, xMessage.u.xTimerParamet
 832:Middlewares/FreeRTOS/source/timers.c **** 
 833:Middlewares/FreeRTOS/source/timers.c ****                 /* In this case the xTimerListsWereSwitched parameter is not used, but
 834:Middlewares/FreeRTOS/source/timers.c ****                  *  it must be present in the function call.  prvSampleTimeNow() must be
 835:Middlewares/FreeRTOS/source/timers.c ****                  *  called after the message is received from xTimerQueue so there is no
 836:Middlewares/FreeRTOS/source/timers.c ****                  *  possibility of a higher priority task adding a message to the message
 837:Middlewares/FreeRTOS/source/timers.c ****                  *  queue with a time that is ahead of the timer daemon task (because it
 838:Middlewares/FreeRTOS/source/timers.c ****                  *  pre-empted the timer daemon task after the xTimeNow value was set). */
 839:Middlewares/FreeRTOS/source/timers.c ****                 xTimeNow = prvSampleTimeNow( &xTimerListsWereSwitched );
 840:Middlewares/FreeRTOS/source/timers.c **** 
 841:Middlewares/FreeRTOS/source/timers.c ****                 switch( xMessage.xMessageID )
 842:Middlewares/FreeRTOS/source/timers.c ****                 {
 843:Middlewares/FreeRTOS/source/timers.c ****                     case tmrCOMMAND_START:
 844:Middlewares/FreeRTOS/source/timers.c ****                     case tmrCOMMAND_START_FROM_ISR:
 845:Middlewares/FreeRTOS/source/timers.c ****                     case tmrCOMMAND_RESET:
 846:Middlewares/FreeRTOS/source/timers.c ****                     case tmrCOMMAND_RESET_FROM_ISR:
 847:Middlewares/FreeRTOS/source/timers.c ****                         /* Start or restart a timer. */
 848:Middlewares/FreeRTOS/source/timers.c ****                         pxTimer->ucStatus |= tmrSTATUS_IS_ACTIVE;
 849:Middlewares/FreeRTOS/source/timers.c **** 
 850:Middlewares/FreeRTOS/source/timers.c ****                         if( prvInsertTimerInActiveList( pxTimer, xMessage.u.xTimerParameters.xMessa
 851:Middlewares/FreeRTOS/source/timers.c ****                         {
 852:Middlewares/FreeRTOS/source/timers.c ****                             /* The timer expired before it was added to the active
 853:Middlewares/FreeRTOS/source/timers.c ****                              * timer list.  Process it now. */
 854:Middlewares/FreeRTOS/source/timers.c ****                             if( ( pxTimer->ucStatus & tmrSTATUS_IS_AUTORELOAD ) != 0 )
 855:Middlewares/FreeRTOS/source/timers.c ****                             {
 856:Middlewares/FreeRTOS/source/timers.c ****                                 prvReloadTimer( pxTimer, xMessage.u.xTimerParameters.xMessageValue 
 857:Middlewares/FreeRTOS/source/timers.c ****                             }
 858:Middlewares/FreeRTOS/source/timers.c ****                             else
 859:Middlewares/FreeRTOS/source/timers.c ****                             {
 860:Middlewares/FreeRTOS/source/timers.c ****                                 pxTimer->ucStatus &= ( ( uint8_t ) ~tmrSTATUS_IS_ACTIVE );
 861:Middlewares/FreeRTOS/source/timers.c ****                             }
 862:Middlewares/FreeRTOS/source/timers.c **** 
 863:Middlewares/FreeRTOS/source/timers.c ****                             /* Call the timer callback. */
 864:Middlewares/FreeRTOS/source/timers.c ****                             traceTIMER_EXPIRED( pxTimer );
 865:Middlewares/FreeRTOS/source/timers.c ****                             pxTimer->pxCallbackFunction( ( TimerHandle_t ) pxTimer );
 866:Middlewares/FreeRTOS/source/timers.c ****                         }
 867:Middlewares/FreeRTOS/source/timers.c ****                         else
 868:Middlewares/FreeRTOS/source/timers.c ****                         {
 869:Middlewares/FreeRTOS/source/timers.c ****                             mtCOVERAGE_TEST_MARKER();
 870:Middlewares/FreeRTOS/source/timers.c ****                         }
 871:Middlewares/FreeRTOS/source/timers.c **** 
 872:Middlewares/FreeRTOS/source/timers.c ****                         break;
ARM GAS  /tmp/ccIlBc3y.s 			page 17


 873:Middlewares/FreeRTOS/source/timers.c **** 
 874:Middlewares/FreeRTOS/source/timers.c ****                     case tmrCOMMAND_STOP:
 875:Middlewares/FreeRTOS/source/timers.c ****                     case tmrCOMMAND_STOP_FROM_ISR:
 876:Middlewares/FreeRTOS/source/timers.c ****                         /* The timer has already been removed from the active list. */
 877:Middlewares/FreeRTOS/source/timers.c ****                         pxTimer->ucStatus &= ( ( uint8_t ) ~tmrSTATUS_IS_ACTIVE );
 878:Middlewares/FreeRTOS/source/timers.c ****                         break;
 879:Middlewares/FreeRTOS/source/timers.c **** 
 880:Middlewares/FreeRTOS/source/timers.c ****                     case tmrCOMMAND_CHANGE_PERIOD:
 881:Middlewares/FreeRTOS/source/timers.c ****                     case tmrCOMMAND_CHANGE_PERIOD_FROM_ISR:
 882:Middlewares/FreeRTOS/source/timers.c ****                         pxTimer->ucStatus |= tmrSTATUS_IS_ACTIVE;
 883:Middlewares/FreeRTOS/source/timers.c ****                         pxTimer->xTimerPeriodInTicks = xMessage.u.xTimerParameters.xMessageValue;
 884:Middlewares/FreeRTOS/source/timers.c ****                         configASSERT( ( pxTimer->xTimerPeriodInTicks > 0 ) );
 885:Middlewares/FreeRTOS/source/timers.c **** 
 886:Middlewares/FreeRTOS/source/timers.c ****                         /* The new period does not really have a reference, and can
 887:Middlewares/FreeRTOS/source/timers.c ****                          * be longer or shorter than the old one.  The command time is
 888:Middlewares/FreeRTOS/source/timers.c ****                          * therefore set to the current time, and as the period cannot
 889:Middlewares/FreeRTOS/source/timers.c ****                          * be zero the next expiry time can only be in the future,
 890:Middlewares/FreeRTOS/source/timers.c ****                          * meaning (unlike for the xTimerStart() case above) there is
 891:Middlewares/FreeRTOS/source/timers.c ****                          * no fail case that needs to be handled here. */
 892:Middlewares/FreeRTOS/source/timers.c ****                         ( void ) prvInsertTimerInActiveList( pxTimer, ( xTimeNow + pxTimer->xTimerP
 893:Middlewares/FreeRTOS/source/timers.c ****                         break;
 894:Middlewares/FreeRTOS/source/timers.c **** 
 895:Middlewares/FreeRTOS/source/timers.c ****                     case tmrCOMMAND_DELETE:
 896:Middlewares/FreeRTOS/source/timers.c ****                         #if ( configSUPPORT_DYNAMIC_ALLOCATION == 1 )
 897:Middlewares/FreeRTOS/source/timers.c ****                         {
 898:Middlewares/FreeRTOS/source/timers.c ****                             /* The timer has already been removed from the active list,
 899:Middlewares/FreeRTOS/source/timers.c ****                              * just free up the memory if the memory was dynamically
 900:Middlewares/FreeRTOS/source/timers.c ****                              * allocated. */
 901:Middlewares/FreeRTOS/source/timers.c ****                             if( ( pxTimer->ucStatus & tmrSTATUS_IS_STATICALLY_ALLOCATED ) == ( uint
 902:Middlewares/FreeRTOS/source/timers.c ****                             {
 903:Middlewares/FreeRTOS/source/timers.c ****                                 vPortFree( pxTimer );
 904:Middlewares/FreeRTOS/source/timers.c ****                             }
 905:Middlewares/FreeRTOS/source/timers.c ****                             else
 906:Middlewares/FreeRTOS/source/timers.c ****                             {
 907:Middlewares/FreeRTOS/source/timers.c ****                                 pxTimer->ucStatus &= ( ( uint8_t ) ~tmrSTATUS_IS_ACTIVE );
 908:Middlewares/FreeRTOS/source/timers.c ****                             }
 909:Middlewares/FreeRTOS/source/timers.c ****                         }
 910:Middlewares/FreeRTOS/source/timers.c ****                         #else /* if ( configSUPPORT_DYNAMIC_ALLOCATION == 1 ) */
 911:Middlewares/FreeRTOS/source/timers.c ****                         {
 912:Middlewares/FreeRTOS/source/timers.c ****                             /* If dynamic allocation is not enabled, the memory
 913:Middlewares/FreeRTOS/source/timers.c ****                              * could not have been dynamically allocated. So there is
 914:Middlewares/FreeRTOS/source/timers.c ****                              * no need to free the memory - just mark the timer as
 915:Middlewares/FreeRTOS/source/timers.c ****                              * "not active". */
 916:Middlewares/FreeRTOS/source/timers.c ****                             pxTimer->ucStatus &= ( ( uint8_t ) ~tmrSTATUS_IS_ACTIVE );
 917:Middlewares/FreeRTOS/source/timers.c ****                         }
 918:Middlewares/FreeRTOS/source/timers.c ****                         #endif /* configSUPPORT_DYNAMIC_ALLOCATION */
 919:Middlewares/FreeRTOS/source/timers.c ****                         break;
 920:Middlewares/FreeRTOS/source/timers.c **** 
 921:Middlewares/FreeRTOS/source/timers.c ****                     default:
 922:Middlewares/FreeRTOS/source/timers.c ****                         /* Don't expect to get here. */
 923:Middlewares/FreeRTOS/source/timers.c ****                         break;
 924:Middlewares/FreeRTOS/source/timers.c ****                 }
 925:Middlewares/FreeRTOS/source/timers.c ****             }
 926:Middlewares/FreeRTOS/source/timers.c ****         }
 927:Middlewares/FreeRTOS/source/timers.c ****     }
 928:Middlewares/FreeRTOS/source/timers.c **** /*-----------------------------------------------------------*/
 929:Middlewares/FreeRTOS/source/timers.c **** 
ARM GAS  /tmp/ccIlBc3y.s 			page 18


 930:Middlewares/FreeRTOS/source/timers.c ****     static void prvSwitchTimerLists( void )
 931:Middlewares/FreeRTOS/source/timers.c ****     {
 932:Middlewares/FreeRTOS/source/timers.c ****         TickType_t xNextExpireTime;
 933:Middlewares/FreeRTOS/source/timers.c ****         List_t * pxTemp;
 934:Middlewares/FreeRTOS/source/timers.c **** 
 935:Middlewares/FreeRTOS/source/timers.c ****         /* The tick count has overflowed.  The timer lists must be switched.
 936:Middlewares/FreeRTOS/source/timers.c ****          * If there are any timers still referenced from the current timer list
 937:Middlewares/FreeRTOS/source/timers.c ****          * then they must have expired and should be processed before the lists
 938:Middlewares/FreeRTOS/source/timers.c ****          * are switched. */
 939:Middlewares/FreeRTOS/source/timers.c ****         while( listLIST_IS_EMPTY( pxCurrentTimerList ) == pdFALSE )
 940:Middlewares/FreeRTOS/source/timers.c ****         {
 941:Middlewares/FreeRTOS/source/timers.c ****             xNextExpireTime = listGET_ITEM_VALUE_OF_HEAD_ENTRY( pxCurrentTimerList );
 942:Middlewares/FreeRTOS/source/timers.c **** 
 943:Middlewares/FreeRTOS/source/timers.c ****             /* Process the expired timer.  For auto-reload timers, be careful to
 944:Middlewares/FreeRTOS/source/timers.c ****              * process only expirations that occur on the current list.  Further
 945:Middlewares/FreeRTOS/source/timers.c ****              * expirations must wait until after the lists are switched. */
 946:Middlewares/FreeRTOS/source/timers.c ****             prvProcessExpiredTimer( xNextExpireTime, tmrMAX_TIME_BEFORE_OVERFLOW );
 947:Middlewares/FreeRTOS/source/timers.c ****         }
 948:Middlewares/FreeRTOS/source/timers.c **** 
 949:Middlewares/FreeRTOS/source/timers.c ****         pxTemp = pxCurrentTimerList;
 950:Middlewares/FreeRTOS/source/timers.c ****         pxCurrentTimerList = pxOverflowTimerList;
 951:Middlewares/FreeRTOS/source/timers.c ****         pxOverflowTimerList = pxTemp;
 952:Middlewares/FreeRTOS/source/timers.c ****     }
 953:Middlewares/FreeRTOS/source/timers.c **** /*-----------------------------------------------------------*/
 954:Middlewares/FreeRTOS/source/timers.c **** 
 955:Middlewares/FreeRTOS/source/timers.c ****     static void prvCheckForValidListAndQueue( void )
 956:Middlewares/FreeRTOS/source/timers.c ****     {
  41              		.loc 1 956 5 view -0
  42              		.cfi_startproc
  43              		@ args = 0, pretend = 0, frame = 0
  44              		@ frame_needed = 0, uses_anonymous_args = 0
 957:Middlewares/FreeRTOS/source/timers.c ****         /* Check that the list from which active timers are referenced, and the
 958:Middlewares/FreeRTOS/source/timers.c ****          * queue used to communicate with the timer service, have been
 959:Middlewares/FreeRTOS/source/timers.c ****          * initialised. */
 960:Middlewares/FreeRTOS/source/timers.c ****         taskENTER_CRITICAL();
  45              		.loc 1 960 9 view .LVU1
 956:Middlewares/FreeRTOS/source/timers.c ****         /* Check that the list from which active timers are referenced, and the
  46              		.loc 1 956 5 is_stmt 0 view .LVU2
  47 0000 F8B5     		push	{r3, r4, r5, r6, r7, lr}
  48              		.cfi_def_cfa_offset 24
  49              		.cfi_offset 3, -24
  50              		.cfi_offset 4, -20
  51              		.cfi_offset 5, -16
  52              		.cfi_offset 6, -12
  53              		.cfi_offset 7, -8
  54              		.cfi_offset 14, -4
 961:Middlewares/FreeRTOS/source/timers.c ****         {
 962:Middlewares/FreeRTOS/source/timers.c ****             if( xTimerQueue == NULL )
  55              		.loc 1 962 29 view .LVU3
  56 0002 104C     		ldr	r4, .L11
 960:Middlewares/FreeRTOS/source/timers.c ****         {
  57              		.loc 1 960 9 view .LVU4
  58 0004 FFF7FEFF 		bl	vPortEnterCritical
  59              	.LVL0:
  60              		.loc 1 962 13 is_stmt 1 view .LVU5
  61              		.loc 1 962 15 is_stmt 0 view .LVU6
  62 0008 2568     		ldr	r5, [r4]
ARM GAS  /tmp/ccIlBc3y.s 			page 19


  63 000a 1DB1     		cbz	r5, .L10
  64              	.L3:
 963:Middlewares/FreeRTOS/source/timers.c ****             {
 964:Middlewares/FreeRTOS/source/timers.c ****                 vListInitialise( &xActiveTimerList1 );
 965:Middlewares/FreeRTOS/source/timers.c ****                 vListInitialise( &xActiveTimerList2 );
 966:Middlewares/FreeRTOS/source/timers.c ****                 pxCurrentTimerList = &xActiveTimerList1;
 967:Middlewares/FreeRTOS/source/timers.c ****                 pxOverflowTimerList = &xActiveTimerList2;
 968:Middlewares/FreeRTOS/source/timers.c **** 
 969:Middlewares/FreeRTOS/source/timers.c ****                 #if ( configSUPPORT_STATIC_ALLOCATION == 1 )
 970:Middlewares/FreeRTOS/source/timers.c ****                 {
 971:Middlewares/FreeRTOS/source/timers.c ****                     /* The timer queue is allocated statically in case
 972:Middlewares/FreeRTOS/source/timers.c ****                      * configSUPPORT_DYNAMIC_ALLOCATION is 0. */
 973:Middlewares/FreeRTOS/source/timers.c ****                     PRIVILEGED_DATA static StaticQueue_t xStaticTimerQueue;                        
 974:Middlewares/FreeRTOS/source/timers.c ****                     PRIVILEGED_DATA static uint8_t ucStaticTimerQueueStorage[ ( size_t ) configTIME
 975:Middlewares/FreeRTOS/source/timers.c **** 
 976:Middlewares/FreeRTOS/source/timers.c ****                     xTimerQueue = xQueueCreateStatic( ( UBaseType_t ) configTIMER_QUEUE_LENGTH, ( U
 977:Middlewares/FreeRTOS/source/timers.c ****                 }
 978:Middlewares/FreeRTOS/source/timers.c ****                 #else
 979:Middlewares/FreeRTOS/source/timers.c ****                 {
 980:Middlewares/FreeRTOS/source/timers.c ****                     xTimerQueue = xQueueCreate( ( UBaseType_t ) configTIMER_QUEUE_LENGTH, sizeof( D
 981:Middlewares/FreeRTOS/source/timers.c ****                 }
 982:Middlewares/FreeRTOS/source/timers.c ****                 #endif /* if ( configSUPPORT_STATIC_ALLOCATION == 1 ) */
 983:Middlewares/FreeRTOS/source/timers.c **** 
 984:Middlewares/FreeRTOS/source/timers.c ****                 #if ( configQUEUE_REGISTRY_SIZE > 0 )
 985:Middlewares/FreeRTOS/source/timers.c ****                 {
 986:Middlewares/FreeRTOS/source/timers.c ****                     if( xTimerQueue != NULL )
 987:Middlewares/FreeRTOS/source/timers.c ****                     {
 988:Middlewares/FreeRTOS/source/timers.c ****                         vQueueAddToRegistry( xTimerQueue, "TmrQ" );
 989:Middlewares/FreeRTOS/source/timers.c ****                     }
 990:Middlewares/FreeRTOS/source/timers.c ****                     else
 991:Middlewares/FreeRTOS/source/timers.c ****                     {
 992:Middlewares/FreeRTOS/source/timers.c ****                         mtCOVERAGE_TEST_MARKER();
 993:Middlewares/FreeRTOS/source/timers.c ****                     }
 994:Middlewares/FreeRTOS/source/timers.c ****                 }
 995:Middlewares/FreeRTOS/source/timers.c ****                 #endif /* configQUEUE_REGISTRY_SIZE */
 996:Middlewares/FreeRTOS/source/timers.c ****             }
 997:Middlewares/FreeRTOS/source/timers.c ****             else
 998:Middlewares/FreeRTOS/source/timers.c ****             {
 999:Middlewares/FreeRTOS/source/timers.c ****                 mtCOVERAGE_TEST_MARKER();
  65              		.loc 1 999 41 is_stmt 1 view .LVU7
1000:Middlewares/FreeRTOS/source/timers.c ****             }
1001:Middlewares/FreeRTOS/source/timers.c ****         }
1002:Middlewares/FreeRTOS/source/timers.c ****         taskEXIT_CRITICAL();
  66              		.loc 1 1002 9 view .LVU8
1003:Middlewares/FreeRTOS/source/timers.c ****     }
  67              		.loc 1 1003 5 is_stmt 0 view .LVU9
  68 000c BDE8F840 		pop	{r3, r4, r5, r6, r7, lr}
  69              		.cfi_remember_state
  70              		.cfi_restore 14
  71              		.cfi_restore 7
  72              		.cfi_restore 6
  73              		.cfi_restore 5
  74              		.cfi_restore 4
  75              		.cfi_restore 3
  76              		.cfi_def_cfa_offset 0
1002:Middlewares/FreeRTOS/source/timers.c ****     }
  77              		.loc 1 1002 9 view .LVU10
ARM GAS  /tmp/ccIlBc3y.s 			page 20


  78 0010 FFF7FEBF 		b	vPortExitCritical
  79              	.LVL1:
  80              	.L10:
  81              		.cfi_restore_state
 964:Middlewares/FreeRTOS/source/timers.c ****                 vListInitialise( &xActiveTimerList2 );
  82              		.loc 1 964 17 is_stmt 1 view .LVU11
  83 0014 0C4F     		ldr	r7, .L11+4
 965:Middlewares/FreeRTOS/source/timers.c ****                 pxCurrentTimerList = &xActiveTimerList1;
  84              		.loc 1 965 17 is_stmt 0 view .LVU12
  85 0016 0D4E     		ldr	r6, .L11+8
 964:Middlewares/FreeRTOS/source/timers.c ****                 vListInitialise( &xActiveTimerList2 );
  86              		.loc 1 964 17 view .LVU13
  87 0018 3846     		mov	r0, r7
  88 001a FFF7FEFF 		bl	vListInitialise
  89              	.LVL2:
 965:Middlewares/FreeRTOS/source/timers.c ****                 pxCurrentTimerList = &xActiveTimerList1;
  90              		.loc 1 965 17 is_stmt 1 view .LVU14
  91 001e 3046     		mov	r0, r6
  92 0020 FFF7FEFF 		bl	vListInitialise
  93              	.LVL3:
 966:Middlewares/FreeRTOS/source/timers.c ****                 pxOverflowTimerList = &xActiveTimerList2;
  94              		.loc 1 966 17 view .LVU15
 966:Middlewares/FreeRTOS/source/timers.c ****                 pxOverflowTimerList = &xActiveTimerList2;
  95              		.loc 1 966 36 is_stmt 0 view .LVU16
  96 0024 0A4B     		ldr	r3, .L11+12
 980:Middlewares/FreeRTOS/source/timers.c ****                 }
  97              		.loc 1 980 35 view .LVU17
  98 0026 2A46     		mov	r2, r5
 966:Middlewares/FreeRTOS/source/timers.c ****                 pxOverflowTimerList = &xActiveTimerList2;
  99              		.loc 1 966 36 view .LVU18
 100 0028 1F60     		str	r7, [r3]
 967:Middlewares/FreeRTOS/source/timers.c **** 
 101              		.loc 1 967 17 is_stmt 1 view .LVU19
 967:Middlewares/FreeRTOS/source/timers.c **** 
 102              		.loc 1 967 37 is_stmt 0 view .LVU20
 103 002a 0A4B     		ldr	r3, .L11+16
 980:Middlewares/FreeRTOS/source/timers.c ****                 }
 104              		.loc 1 980 35 view .LVU21
 105 002c 1021     		movs	r1, #16
 106 002e 0A20     		movs	r0, #10
 967:Middlewares/FreeRTOS/source/timers.c **** 
 107              		.loc 1 967 37 view .LVU22
 108 0030 1E60     		str	r6, [r3]
 980:Middlewares/FreeRTOS/source/timers.c ****                 }
 109              		.loc 1 980 21 is_stmt 1 view .LVU23
 980:Middlewares/FreeRTOS/source/timers.c ****                 }
 110              		.loc 1 980 35 is_stmt 0 view .LVU24
 111 0032 FFF7FEFF 		bl	xQueueGenericCreate
 112              	.LVL4:
 980:Middlewares/FreeRTOS/source/timers.c ****                 }
 113              		.loc 1 980 33 view .LVU25
 114 0036 2060     		str	r0, [r4]
 986:Middlewares/FreeRTOS/source/timers.c ****                     {
 115              		.loc 1 986 21 is_stmt 1 view .LVU26
 986:Middlewares/FreeRTOS/source/timers.c ****                     {
 116              		.loc 1 986 23 is_stmt 0 view .LVU27
 117 0038 0028     		cmp	r0, #0
ARM GAS  /tmp/ccIlBc3y.s 			page 21


 118 003a E7D0     		beq	.L3
 988:Middlewares/FreeRTOS/source/timers.c ****                     }
 119              		.loc 1 988 25 is_stmt 1 view .LVU28
 120 003c 0649     		ldr	r1, .L11+20
 121 003e FFF7FEFF 		bl	vQueueAddToRegistry
 122              	.LVL5:
 123 0042 E3E7     		b	.L3
 124              	.L12:
 125              		.align	2
 126              	.L11:
 127 0044 00000000 		.word	.LANCHOR0
 128 0048 00000000 		.word	.LANCHOR1
 129 004c 00000000 		.word	.LANCHOR2
 130 0050 00000000 		.word	.LANCHOR3
 131 0054 00000000 		.word	.LANCHOR4
 132 0058 00000000 		.word	.LC0
 133              		.cfi_endproc
 134              	.LFE828:
 136              		.section	.text.prvReloadTimer,"ax",%progbits
 137              		.align	1
 138              		.p2align 2,,3
 139              		.syntax unified
 140              		.thumb
 141              		.thumb_func
 142              		.fpu fpv5-d16
 144              	prvReloadTimer:
 145              	.LVL6:
 146              	.LFB819:
 549:Middlewares/FreeRTOS/source/timers.c ****         /* Insert the timer into the appropriate list for the next expiry time.
 147              		.loc 1 549 5 view -0
 148              		.cfi_startproc
 149              		@ args = 0, pretend = 0, frame = 0
 150              		@ frame_needed = 0, uses_anonymous_args = 0
 549:Middlewares/FreeRTOS/source/timers.c ****         /* Insert the timer into the appropriate list for the next expiry time.
 151              		.loc 1 549 5 is_stmt 0 view .LVU30
 152 0000 70B5     		push	{r4, r5, r6, lr}
 153              		.cfi_def_cfa_offset 16
 154              		.cfi_offset 4, -16
 155              		.cfi_offset 5, -12
 156              		.cfi_offset 6, -8
 157              		.cfi_offset 14, -4
 549:Middlewares/FreeRTOS/source/timers.c ****         /* Insert the timer into the appropriate list for the next expiry time.
 158              		.loc 1 549 5 view .LVU31
 159 0002 0446     		mov	r4, r0
 553:Middlewares/FreeRTOS/source/timers.c ****         {
 160              		.loc 1 553 9 is_stmt 1 view .LVU32
 549:Middlewares/FreeRTOS/source/timers.c ****         /* Insert the timer into the appropriate list for the next expiry time.
 161              		.loc 1 549 5 is_stmt 0 view .LVU33
 162 0004 1646     		mov	r6, r2
 553:Middlewares/FreeRTOS/source/timers.c ****         {
 163              		.loc 1 553 14 view .LVU34
 164 0006 05E0     		b	.L14
 165              	.LVL7:
 166              	.L25:
 167              	.LBB10:
 168              	.LBB11:
 752:Middlewares/FreeRTOS/source/timers.c ****             {
ARM GAS  /tmp/ccIlBc3y.s 			page 22


 169              		.loc 1 752 15 view .LVU35
 170 0008 9342     		cmp	r3, r2
 171 000a 18D8     		bhi	.L24
 172              	.L18:
 752:Middlewares/FreeRTOS/source/timers.c ****             {
 173              		.loc 1 752 15 view .LVU36
 174              	.LBE11:
 175              	.LBE10:
 560:Middlewares/FreeRTOS/source/timers.c ****         }
 176              		.loc 1 560 13 view .LVU37
 177 000c 2046     		mov	r0, r4
 178 000e 236A     		ldr	r3, [r4, #32]
 179 0010 9847     		blx	r3
 180              	.LVL8:
 553:Middlewares/FreeRTOS/source/timers.c ****         {
 181              		.loc 1 553 16 view .LVU38
 182 0012 2946     		mov	r1, r5
 183              	.LVL9:
 184              	.L14:
 556:Middlewares/FreeRTOS/source/timers.c **** 
 185              		.loc 1 556 13 is_stmt 1 view .LVU39
 559:Middlewares/FreeRTOS/source/timers.c ****             pxTimer->pxCallbackFunction( ( TimerHandle_t ) pxTimer );
 186              		.loc 1 559 42 view .LVU40
 560:Middlewares/FreeRTOS/source/timers.c ****         }
 187              		.loc 1 560 13 view .LVU41
 553:Middlewares/FreeRTOS/source/timers.c ****         {
 188              		.loc 1 553 14 view .LVU42
 189              	.LBB21:
 190              	.LBB16:
 752:Middlewares/FreeRTOS/source/timers.c ****             {
 191              		.loc 1 752 13 view .LVU43
 765:Middlewares/FreeRTOS/source/timers.c ****             {
 192              		.loc 1 765 13 view .LVU44
 193              	.LBE16:
 194              	.LBE21:
 553:Middlewares/FreeRTOS/source/timers.c ****         {
 195              		.loc 1 553 77 is_stmt 0 view .LVU45
 196 0014 A369     		ldr	r3, [r4, #24]
 197              	.LBB22:
 198              	.LBB17:
 752:Middlewares/FreeRTOS/source/timers.c ****             {
 199              		.loc 1 752 19 view .LVU46
 200 0016 721A     		subs	r2, r6, r1
 201 0018 5D18     		adds	r5, r3, r1
 202 001a 2CBF     		ite	cs
 203 001c 0120     		movcs	r0, #1
 204 001e 0020     		movcc	r0, #0
 205              	.LVL10:
 752:Middlewares/FreeRTOS/source/timers.c ****             {
 206              		.loc 1 752 19 view .LVU47
 207              	.LBE17:
 208              	.LBI10:
 738:Middlewares/FreeRTOS/source/timers.c ****                                                   const TickType_t xNextExpiryTime,
 209              		.loc 1 738 23 is_stmt 1 view .LVU48
 210              	.LBB18:
 743:Middlewares/FreeRTOS/source/timers.c **** 
 211              		.loc 1 743 9 view .LVU49
ARM GAS  /tmp/ccIlBc3y.s 			page 23


 745:Middlewares/FreeRTOS/source/timers.c ****         listSET_LIST_ITEM_OWNER( &( pxTimer->xTimerListItem ), pxTimer );
 212              		.loc 1 745 9 view .LVU50
 746:Middlewares/FreeRTOS/source/timers.c **** 
 213              		.loc 1 746 9 view .LVU51
 748:Middlewares/FreeRTOS/source/timers.c ****         {
 214              		.loc 1 748 9 view .LVU52
 748:Middlewares/FreeRTOS/source/timers.c ****         {
 215              		.loc 1 748 11 is_stmt 0 view .LVU53
 216 0020 B542     		cmp	r5, r6
 745:Middlewares/FreeRTOS/source/timers.c ****         listSET_LIST_ITEM_OWNER( &( pxTimer->xTimerListItem ), pxTimer );
 217              		.loc 1 745 9 view .LVU54
 218 0022 6560     		str	r5, [r4, #4]
 746:Middlewares/FreeRTOS/source/timers.c **** 
 219              		.loc 1 746 9 view .LVU55
 220 0024 2461     		str	r4, [r4, #16]
 748:Middlewares/FreeRTOS/source/timers.c ****         {
 221              		.loc 1 748 11 view .LVU56
 222 0026 EFD9     		bls	.L25
 765:Middlewares/FreeRTOS/source/timers.c ****             {
 223              		.loc 1 765 15 view .LVU57
 224 0028 B142     		cmp	r1, r6
 225 002a 01D9     		bls	.L19
 765:Middlewares/FreeRTOS/source/timers.c ****             {
 226              		.loc 1 765 45 view .LVU58
 227 002c 0028     		cmp	r0, #0
 228 002e EDD0     		beq	.L18
 229              	.L19:
 774:Middlewares/FreeRTOS/source/timers.c ****             }
 230              		.loc 1 774 17 is_stmt 1 view .LVU59
 231 0030 064B     		ldr	r3, .L26
 232 0032 211D     		adds	r1, r4, #4
 233 0034 1868     		ldr	r0, [r3]
 234              	.LBE18:
 235              	.LBE22:
 562:Middlewares/FreeRTOS/source/timers.c **** /*-----------------------------------------------------------*/
 236              		.loc 1 562 5 is_stmt 0 view .LVU60
 237 0036 BDE87040 		pop	{r4, r5, r6, lr}
 238              		.cfi_remember_state
 239              		.cfi_restore 14
 240              		.cfi_restore 6
 241              		.cfi_restore 5
 242              		.cfi_restore 4
 243              		.cfi_def_cfa_offset 0
 244              	.LVL11:
 245              	.LBB23:
 246              	.LBB19:
 774:Middlewares/FreeRTOS/source/timers.c ****             }
 247              		.loc 1 774 17 view .LVU61
 248 003a FFF7FEBF 		b	vListInsert
 249              	.LVL12:
 250              	.L24:
 251              		.cfi_restore_state
 252              	.LBB12:
 253              	.LBI12:
 738:Middlewares/FreeRTOS/source/timers.c ****                                                   const TickType_t xNextExpiryTime,
 254              		.loc 1 738 23 is_stmt 1 view .LVU62
 255              	.LBB13:
ARM GAS  /tmp/ccIlBc3y.s 			page 24


 760:Middlewares/FreeRTOS/source/timers.c ****             }
 256              		.loc 1 760 17 view .LVU63
 257 003e 044B     		ldr	r3, .L26+4
 258 0040 211D     		adds	r1, r4, #4
 259 0042 1868     		ldr	r0, [r3]
 260              	.LBE13:
 261              	.LBE12:
 262              	.LBE19:
 263              	.LBE23:
 562:Middlewares/FreeRTOS/source/timers.c **** /*-----------------------------------------------------------*/
 264              		.loc 1 562 5 is_stmt 0 view .LVU64
 265 0044 BDE87040 		pop	{r4, r5, r6, lr}
 266              		.cfi_restore 14
 267              		.cfi_restore 6
 268              		.cfi_restore 5
 269              		.cfi_restore 4
 270              		.cfi_def_cfa_offset 0
 271              	.LVL13:
 272              	.LBB24:
 273              	.LBB20:
 274              	.LBB15:
 275              	.LBB14:
 760:Middlewares/FreeRTOS/source/timers.c ****             }
 276              		.loc 1 760 17 view .LVU65
 277 0048 FFF7FEBF 		b	vListInsert
 278              	.LVL14:
 279              	.L27:
 760:Middlewares/FreeRTOS/source/timers.c ****             }
 280              		.loc 1 760 17 view .LVU66
 281              		.align	2
 282              	.L26:
 283 004c 00000000 		.word	.LANCHOR3
 284 0050 00000000 		.word	.LANCHOR4
 285              	.LBE14:
 286              	.LBE15:
 287              	.LBE20:
 288              	.LBE24:
 289              		.cfi_endproc
 290              	.LFE819:
 292              		.section	.text.prvProcessExpiredTimer,"ax",%progbits
 293              		.align	1
 294              		.p2align 2,,3
 295              		.syntax unified
 296              		.thumb
 297              		.thumb_func
 298              		.fpu fpv5-d16
 300              	prvProcessExpiredTimer:
 301              	.LVL15:
 302              	.LFB820:
 567:Middlewares/FreeRTOS/source/timers.c ****         Timer_t * const pxTimer = ( Timer_t * ) listGET_OWNER_OF_HEAD_ENTRY( pxCurrentTimerList ); 
 303              		.loc 1 567 5 is_stmt 1 view -0
 304              		.cfi_startproc
 305              		@ args = 0, pretend = 0, frame = 0
 306              		@ frame_needed = 0, uses_anonymous_args = 0
 568:Middlewares/FreeRTOS/source/timers.c **** 
 307              		.loc 1 568 9 view .LVU68
 568:Middlewares/FreeRTOS/source/timers.c **** 
ARM GAS  /tmp/ccIlBc3y.s 			page 25


 308              		.loc 1 568 49 is_stmt 0 view .LVU69
 309 0000 104A     		ldr	r2, .L33
 567:Middlewares/FreeRTOS/source/timers.c ****         Timer_t * const pxTimer = ( Timer_t * ) listGET_OWNER_OF_HEAD_ENTRY( pxCurrentTimerList ); 
 310              		.loc 1 567 5 view .LVU70
 311 0002 70B5     		push	{r4, r5, r6, lr}
 312              		.cfi_def_cfa_offset 16
 313              		.cfi_offset 4, -16
 314              		.cfi_offset 5, -12
 315              		.cfi_offset 6, -8
 316              		.cfi_offset 14, -4
 568:Middlewares/FreeRTOS/source/timers.c **** 
 317              		.loc 1 568 49 view .LVU71
 318 0004 1268     		ldr	r2, [r2]
 567:Middlewares/FreeRTOS/source/timers.c ****         Timer_t * const pxTimer = ( Timer_t * ) listGET_OWNER_OF_HEAD_ENTRY( pxCurrentTimerList ); 
 319              		.loc 1 567 5 view .LVU72
 320 0006 0546     		mov	r5, r0
 568:Middlewares/FreeRTOS/source/timers.c **** 
 321              		.loc 1 568 25 view .LVU73
 322 0008 D268     		ldr	r2, [r2, #12]
 567:Middlewares/FreeRTOS/source/timers.c ****         Timer_t * const pxTimer = ( Timer_t * ) listGET_OWNER_OF_HEAD_ENTRY( pxCurrentTimerList ); 
 323              		.loc 1 567 5 view .LVU74
 324 000a 0E46     		mov	r6, r1
 568:Middlewares/FreeRTOS/source/timers.c **** 
 325              		.loc 1 568 25 view .LVU75
 326 000c D468     		ldr	r4, [r2, #12]
 327              	.LVL16:
 573:Middlewares/FreeRTOS/source/timers.c **** 
 328              		.loc 1 573 9 is_stmt 1 view .LVU76
 573:Middlewares/FreeRTOS/source/timers.c **** 
 329              		.loc 1 573 18 is_stmt 0 view .LVU77
 330 000e 201D     		adds	r0, r4, #4
 331              	.LVL17:
 573:Middlewares/FreeRTOS/source/timers.c **** 
 332              		.loc 1 573 18 view .LVU78
 333 0010 FFF7FEFF 		bl	uxListRemove
 334              	.LVL18:
 577:Middlewares/FreeRTOS/source/timers.c ****         {
 335              		.loc 1 577 9 is_stmt 1 view .LVU79
 577:Middlewares/FreeRTOS/source/timers.c ****         {
 336              		.loc 1 577 22 is_stmt 0 view .LVU80
 337 0014 94F82830 		ldrb	r3, [r4, #40]	@ zero_extendqisi2
 577:Middlewares/FreeRTOS/source/timers.c ****         {
 338              		.loc 1 577 11 view .LVU81
 339 0018 5A07     		lsls	r2, r3, #29
 340 001a 08D4     		bmi	.L32
 583:Middlewares/FreeRTOS/source/timers.c ****         }
 341              		.loc 1 583 13 is_stmt 1 view .LVU82
 583:Middlewares/FreeRTOS/source/timers.c ****         }
 342              		.loc 1 583 31 is_stmt 0 view .LVU83
 343 001c 23F00103 		bic	r3, r3, #1
 344 0020 84F82830 		strb	r3, [r4, #40]
 587:Middlewares/FreeRTOS/source/timers.c ****         pxTimer->pxCallbackFunction( ( TimerHandle_t ) pxTimer );
 345              		.loc 1 587 38 is_stmt 1 view .LVU84
 588:Middlewares/FreeRTOS/source/timers.c ****     }
 346              		.loc 1 588 9 view .LVU85
 347 0024 2046     		mov	r0, r4
 348 0026 236A     		ldr	r3, [r4, #32]
ARM GAS  /tmp/ccIlBc3y.s 			page 26


 589:Middlewares/FreeRTOS/source/timers.c **** /*-----------------------------------------------------------*/
 349              		.loc 1 589 5 is_stmt 0 view .LVU86
 350 0028 BDE87040 		pop	{r4, r5, r6, lr}
 351              		.cfi_remember_state
 352              		.cfi_restore 14
 353              		.cfi_restore 6
 354              		.cfi_restore 5
 355              		.cfi_restore 4
 356              		.cfi_def_cfa_offset 0
 357              	.LVL19:
 588:Middlewares/FreeRTOS/source/timers.c ****     }
 358              		.loc 1 588 9 view .LVU87
 359 002c 1847     		bx	r3	@ indirect register sibling call
 360              	.LVL20:
 361              	.L32:
 362              		.cfi_restore_state
 579:Middlewares/FreeRTOS/source/timers.c ****         }
 363              		.loc 1 579 13 is_stmt 1 view .LVU88
 364 002e 2046     		mov	r0, r4
 365 0030 3246     		mov	r2, r6
 366 0032 2946     		mov	r1, r5
 367 0034 FFF7FEFF 		bl	prvReloadTimer
 368              	.LVL21:
 587:Middlewares/FreeRTOS/source/timers.c ****         pxTimer->pxCallbackFunction( ( TimerHandle_t ) pxTimer );
 369              		.loc 1 587 38 view .LVU89
 588:Middlewares/FreeRTOS/source/timers.c ****     }
 370              		.loc 1 588 9 view .LVU90
 371 0038 2046     		mov	r0, r4
 372 003a 236A     		ldr	r3, [r4, #32]
 589:Middlewares/FreeRTOS/source/timers.c **** /*-----------------------------------------------------------*/
 373              		.loc 1 589 5 is_stmt 0 view .LVU91
 374 003c BDE87040 		pop	{r4, r5, r6, lr}
 375              		.cfi_restore 14
 376              		.cfi_restore 6
 377              		.cfi_restore 5
 378              		.cfi_restore 4
 379              		.cfi_def_cfa_offset 0
 380              	.LVL22:
 588:Middlewares/FreeRTOS/source/timers.c ****     }
 381              		.loc 1 588 9 view .LVU92
 382 0040 1847     		bx	r3	@ indirect register sibling call
 383              	.LVL23:
 384              	.L34:
 588:Middlewares/FreeRTOS/source/timers.c ****     }
 385              		.loc 1 588 9 view .LVU93
 386 0042 00BF     		.align	2
 387              	.L33:
 388 0044 00000000 		.word	.LANCHOR3
 389              		.cfi_endproc
 390              	.LFE820:
 392              		.section	.text.prvTimerTask,"ax",%progbits
 393              		.align	1
 394              		.p2align 2,,3
 395              		.syntax unified
 396              		.thumb
 397              		.thumb_func
 398              		.fpu fpv5-d16
ARM GAS  /tmp/ccIlBc3y.s 			page 27


 400              	prvTimerTask:
 401              	.LVL24:
 402              	.LFB821:
 593:Middlewares/FreeRTOS/source/timers.c ****         TickType_t xNextExpireTime;
 403              		.loc 1 593 5 is_stmt 1 view -0
 404              		.cfi_startproc
 405              		@ args = 0, pretend = 0, frame = 16
 406              		@ frame_needed = 0, uses_anonymous_args = 0
 593:Middlewares/FreeRTOS/source/timers.c ****         TickType_t xNextExpireTime;
 407              		.loc 1 593 5 is_stmt 0 view .LVU95
 408 0000 2DE9F043 		push	{r4, r5, r6, r7, r8, r9, lr}
 409              		.cfi_def_cfa_offset 28
 410              		.cfi_offset 4, -28
 411              		.cfi_offset 5, -24
 412              		.cfi_offset 6, -20
 413              		.cfi_offset 7, -16
 414              		.cfi_offset 8, -12
 415              		.cfi_offset 9, -8
 416              		.cfi_offset 14, -4
 417 0004 784D     		ldr	r5, .L98
 418 0006 794E     		ldr	r6, .L98+4
 419 0008 794F     		ldr	r7, .L98+8
 420 000a 7A4C     		ldr	r4, .L98+12
 421 000c 85B0     		sub	sp, sp, #20
 422              		.cfi_def_cfa_offset 48
 423              	.LVL25:
 424              	.L65:
 594:Middlewares/FreeRTOS/source/timers.c ****         BaseType_t xListWasEmpty;
 425              		.loc 1 594 9 is_stmt 1 discriminator 1 view .LVU96
 595:Middlewares/FreeRTOS/source/timers.c **** 
 426              		.loc 1 595 9 discriminator 1 view .LVU97
 598:Middlewares/FreeRTOS/source/timers.c **** 
 427              		.loc 1 598 9 discriminator 1 view .LVU98
 610:Middlewares/FreeRTOS/source/timers.c ****         {
 428              		.loc 1 610 9 discriminator 1 view .LVU99
 614:Middlewares/FreeRTOS/source/timers.c **** 
 429              		.loc 1 614 13 discriminator 1 view .LVU100
 430              	.LBB48:
 431              	.LBI48:
 688:Middlewares/FreeRTOS/source/timers.c ****     {
 432              		.loc 1 688 23 discriminator 1 view .LVU101
 433              	.LBB49:
 690:Middlewares/FreeRTOS/source/timers.c **** 
 434              		.loc 1 690 9 discriminator 1 view .LVU102
 699:Middlewares/FreeRTOS/source/timers.c **** 
 435              		.loc 1 699 9 discriminator 1 view .LVU103
 699:Middlewares/FreeRTOS/source/timers.c **** 
 436              		.loc 1 699 27 is_stmt 0 discriminator 1 view .LVU104
 437 000e 2B68     		ldr	r3, [r5]
 438 0010 D3F80090 		ldr	r9, [r3]
 439 0014 B9F1000F 		cmp	r9, #0
 440 0018 00F0B780 		beq	.L36
 441              	.LVL26:
 701:Middlewares/FreeRTOS/source/timers.c ****         {
 442              		.loc 1 701 9 is_stmt 1 view .LVU105
 703:Middlewares/FreeRTOS/source/timers.c ****         }
 443              		.loc 1 703 13 view .LVU106
ARM GAS  /tmp/ccIlBc3y.s 			page 28


 703:Middlewares/FreeRTOS/source/timers.c ****         }
 444              		.loc 1 703 29 is_stmt 0 view .LVU107
 445 001c DB68     		ldr	r3, [r3, #12]
 446 001e D3F80090 		ldr	r9, [r3]
 447              	.LVL27:
 711:Middlewares/FreeRTOS/source/timers.c ****     }
 448              		.loc 1 711 9 is_stmt 1 view .LVU108
 711:Middlewares/FreeRTOS/source/timers.c ****     }
 449              		.loc 1 711 9 is_stmt 0 view .LVU109
 450              	.LBE49:
 451              	.LBE48:
 618:Middlewares/FreeRTOS/source/timers.c **** 
 452              		.loc 1 618 13 is_stmt 1 view .LVU110
 453              	.LBB51:
 454              	.LBI51:
 626:Middlewares/FreeRTOS/source/timers.c ****                                             BaseType_t xListWasEmpty )
 455              		.loc 1 626 17 view .LVU111
 456              	.LBB52:
 629:Middlewares/FreeRTOS/source/timers.c ****         BaseType_t xTimerListsWereSwitched;
 457              		.loc 1 629 9 view .LVU112
 630:Middlewares/FreeRTOS/source/timers.c **** 
 458              		.loc 1 630 9 view .LVU113
 632:Middlewares/FreeRTOS/source/timers.c ****         {
 459              		.loc 1 632 9 view .LVU114
 460 0022 FFF7FEFF 		bl	vTaskSuspendAll
 461              	.LVL28:
 639:Middlewares/FreeRTOS/source/timers.c **** 
 462              		.loc 1 639 13 view .LVU115
 463              	.LBB53:
 464              	.LBI53:
 715:Middlewares/FreeRTOS/source/timers.c ****     {
 465              		.loc 1 715 23 view .LVU116
 466              	.LBB54:
 717:Middlewares/FreeRTOS/source/timers.c ****         PRIVILEGED_DATA static TickType_t xLastTime = ( TickType_t ) 0U; /*lint !e956 Variable is o
 467              		.loc 1 717 9 view .LVU117
 718:Middlewares/FreeRTOS/source/timers.c **** 
 468              		.loc 1 718 25 view .LVU118
 720:Middlewares/FreeRTOS/source/timers.c **** 
 469              		.loc 1 720 9 view .LVU119
 720:Middlewares/FreeRTOS/source/timers.c **** 
 470              		.loc 1 720 20 is_stmt 0 view .LVU120
 471 0026 FFF7FEFF 		bl	xTaskGetTickCount
 472              	.LVL29:
 722:Middlewares/FreeRTOS/source/timers.c ****         {
 473              		.loc 1 722 11 view .LVU121
 474 002a 3368     		ldr	r3, [r6]
 720:Middlewares/FreeRTOS/source/timers.c **** 
 475              		.loc 1 720 20 view .LVU122
 476 002c 8046     		mov	r8, r0
 477              	.LVL30:
 722:Middlewares/FreeRTOS/source/timers.c ****         {
 478              		.loc 1 722 9 is_stmt 1 view .LVU123
 722:Middlewares/FreeRTOS/source/timers.c ****         {
 479              		.loc 1 722 11 is_stmt 0 view .LVU124
 480 002e 9842     		cmp	r0, r3
 481 0030 3BD3     		bcc	.L91
 482              	.LVL31:
ARM GAS  /tmp/ccIlBc3y.s 			page 29


 732:Middlewares/FreeRTOS/source/timers.c **** 
 483              		.loc 1 732 9 is_stmt 1 view .LVU125
 484              	.LBE54:
 485              	.LBE53:
 644:Middlewares/FreeRTOS/source/timers.c ****                 {
 486              		.loc 1 644 50 is_stmt 0 view .LVU126
 487 0032 8145     		cmp	r9, r0
 488              	.LBB63:
 489              	.LBB59:
 732:Middlewares/FreeRTOS/source/timers.c **** 
 490              		.loc 1 732 19 view .LVU127
 491 0034 3060     		str	r0, [r6]
 734:Middlewares/FreeRTOS/source/timers.c ****     }
 492              		.loc 1 734 9 is_stmt 1 view .LVU128
 493              	.LVL32:
 734:Middlewares/FreeRTOS/source/timers.c ****     }
 494              		.loc 1 734 9 is_stmt 0 view .LVU129
 495              	.LBE59:
 496              	.LBE63:
 641:Middlewares/FreeRTOS/source/timers.c ****             {
 497              		.loc 1 641 13 is_stmt 1 view .LVU130
 644:Middlewares/FreeRTOS/source/timers.c ****                 {
 498              		.loc 1 644 17 view .LVU131
 644:Middlewares/FreeRTOS/source/timers.c ****                 {
 499              		.loc 1 644 50 is_stmt 0 view .LVU132
 500 0036 40F2C680 		bls	.L66
 501 003a 0022     		movs	r2, #0
 502              	.LVL33:
 503              	.L67:
 664:Middlewares/FreeRTOS/source/timers.c **** 
 504              		.loc 1 664 21 is_stmt 1 view .LVU133
 505 003c 2068     		ldr	r0, [r4]
 506              	.LVL34:
 664:Middlewares/FreeRTOS/source/timers.c **** 
 507              		.loc 1 664 21 is_stmt 0 view .LVU134
 508 003e A9EB0801 		sub	r1, r9, r8
 509 0042 FFF7FEFF 		bl	vQueueWaitForMessageRestricted
 510              	.LVL35:
 666:Middlewares/FreeRTOS/source/timers.c ****                     {
 511              		.loc 1 666 21 is_stmt 1 view .LVU135
 666:Middlewares/FreeRTOS/source/timers.c ****                     {
 512              		.loc 1 666 25 is_stmt 0 view .LVU136
 513 0046 FFF7FEFF 		bl	xTaskResumeAll
 514              	.LVL36:
 666:Middlewares/FreeRTOS/source/timers.c ****                     {
 515              		.loc 1 666 23 view .LVU137
 516 004a 0028     		cmp	r0, #0
 517 004c 00F0AD80 		beq	.L94
 518              	.LVL37:
 519              	.L42:
 666:Middlewares/FreeRTOS/source/timers.c ****                     {
 520              		.loc 1 666 23 view .LVU138
 521              	.LBE52:
 522              	.LBE51:
 523              	.LBB70:
 524              	.LBB71:
 789:Middlewares/FreeRTOS/source/timers.c ****         {
ARM GAS  /tmp/ccIlBc3y.s 			page 30


 525              		.loc 1 789 14 is_stmt 1 view .LVU139
 789:Middlewares/FreeRTOS/source/timers.c ****         {
 526              		.loc 1 789 16 is_stmt 0 view .LVU140
 527 0050 0022     		movs	r2, #0
 528 0052 6946     		mov	r1, sp
 529 0054 2068     		ldr	r0, [r4]
 530 0056 FFF7FEFF 		bl	xQueueReceive
 531              	.LVL38:
 789:Middlewares/FreeRTOS/source/timers.c ****         {
 532              		.loc 1 789 14 view .LVU141
 533 005a 0028     		cmp	r0, #0
 534 005c D7D0     		beq	.L65
 795:Middlewares/FreeRTOS/source/timers.c ****                 {
 535              		.loc 1 795 17 is_stmt 1 view .LVU142
 795:Middlewares/FreeRTOS/source/timers.c ****                 {
 536              		.loc 1 795 19 is_stmt 0 view .LVU143
 537 005e 009B     		ldr	r3, [sp]
 538 0060 002B     		cmp	r3, #0
 539 0062 C0F28980 		blt	.L95
 540              	.L41:
 819:Middlewares/FreeRTOS/source/timers.c **** 
 541              		.loc 1 819 17 is_stmt 1 view .LVU144
 819:Middlewares/FreeRTOS/source/timers.c **** 
 542              		.loc 1 819 25 is_stmt 0 view .LVU145
 543 0066 DDF80880 		ldr	r8, [sp, #8]
 544              	.LVL39:
 821:Middlewares/FreeRTOS/source/timers.c ****                 {
 545              		.loc 1 821 17 is_stmt 1 view .LVU146
 821:Middlewares/FreeRTOS/source/timers.c ****                 {
 546              		.loc 1 821 19 is_stmt 0 view .LVU147
 547 006a D8F81430 		ldr	r3, [r8, #20]
 548 006e 1BB1     		cbz	r3, .L43
 824:Middlewares/FreeRTOS/source/timers.c ****                 }
 549              		.loc 1 824 21 is_stmt 1 view .LVU148
 824:Middlewares/FreeRTOS/source/timers.c ****                 }
 550              		.loc 1 824 30 is_stmt 0 view .LVU149
 551 0070 08F10400 		add	r0, r8, #4
 552 0074 FFF7FEFF 		bl	uxListRemove
 553              	.LVL40:
 554              	.L43:
 828:Middlewares/FreeRTOS/source/timers.c ****                 }
 555              		.loc 1 828 45 is_stmt 1 view .LVU150
 831:Middlewares/FreeRTOS/source/timers.c **** 
 556              		.loc 1 831 119 view .LVU151
 839:Middlewares/FreeRTOS/source/timers.c **** 
 557              		.loc 1 839 17 view .LVU152
 558              	.LBB72:
 559              	.LBI72:
 715:Middlewares/FreeRTOS/source/timers.c ****     {
 560              		.loc 1 715 23 view .LVU153
 561              	.LBB73:
 717:Middlewares/FreeRTOS/source/timers.c ****         PRIVILEGED_DATA static TickType_t xLastTime = ( TickType_t ) 0U; /*lint !e956 Variable is o
 562              		.loc 1 717 9 view .LVU154
 718:Middlewares/FreeRTOS/source/timers.c **** 
 563              		.loc 1 718 25 view .LVU155
 720:Middlewares/FreeRTOS/source/timers.c **** 
 564              		.loc 1 720 9 view .LVU156
ARM GAS  /tmp/ccIlBc3y.s 			page 31


 720:Middlewares/FreeRTOS/source/timers.c **** 
 565              		.loc 1 720 20 is_stmt 0 view .LVU157
 566 0078 FFF7FEFF 		bl	xTaskGetTickCount
 567              	.LVL41:
 722:Middlewares/FreeRTOS/source/timers.c ****         {
 568              		.loc 1 722 11 view .LVU158
 569 007c 3368     		ldr	r3, [r6]
 720:Middlewares/FreeRTOS/source/timers.c **** 
 570              		.loc 1 720 20 view .LVU159
 571 007e 8146     		mov	r9, r0
 572              	.LVL42:
 722:Middlewares/FreeRTOS/source/timers.c ****         {
 573              		.loc 1 722 9 is_stmt 1 view .LVU160
 722:Middlewares/FreeRTOS/source/timers.c ****         {
 574              		.loc 1 722 11 is_stmt 0 view .LVU161
 575 0080 9842     		cmp	r0, r3
 576 0082 24D3     		bcc	.L92
 577              	.LVL43:
 578              	.L44:
 732:Middlewares/FreeRTOS/source/timers.c **** 
 579              		.loc 1 732 9 is_stmt 1 view .LVU162
 580              	.LBE73:
 581              	.LBE72:
 841:Middlewares/FreeRTOS/source/timers.c ****                 {
 582              		.loc 1 841 17 is_stmt 0 view .LVU163
 583 0084 009B     		ldr	r3, [sp]
 584              	.LBB78:
 585              	.LBB76:
 732:Middlewares/FreeRTOS/source/timers.c **** 
 586              		.loc 1 732 19 view .LVU164
 587 0086 C6F80090 		str	r9, [r6]
 734:Middlewares/FreeRTOS/source/timers.c ****     }
 588              		.loc 1 734 9 is_stmt 1 view .LVU165
 589              	.LVL44:
 734:Middlewares/FreeRTOS/source/timers.c ****     }
 590              		.loc 1 734 9 is_stmt 0 view .LVU166
 591              	.LBE76:
 592              	.LBE78:
 841:Middlewares/FreeRTOS/source/timers.c ****                 {
 593              		.loc 1 841 17 is_stmt 1 view .LVU167
 594 008a 013B     		subs	r3, r3, #1
 595 008c 082B     		cmp	r3, #8
 596 008e DFD8     		bhi	.L42
 597 0090 DFE803F0 		tbb	[pc, r3]
 598              	.L49:
 599 0094 25       		.byte	(.L51-.L49)/2
 600 0095 25       		.byte	(.L51-.L49)/2
 601 0096 62       		.byte	(.L50-.L49)/2
 602 0097 49       		.byte	(.L48-.L49)/2
 603 0098 69       		.byte	(.L52-.L49)/2
 604 0099 25       		.byte	(.L51-.L49)/2
 605 009a 25       		.byte	(.L51-.L49)/2
 606 009b 62       		.byte	(.L50-.L49)/2
 607 009c 49       		.byte	(.L48-.L49)/2
 608              	.LVL45:
 609 009d 00       		.p2align 1
 610              	.L39:
ARM GAS  /tmp/ccIlBc3y.s 			page 32


 841:Middlewares/FreeRTOS/source/timers.c ****                 {
 611              		.loc 1 841 17 is_stmt 0 view .LVU168
 612              	.LBE71:
 613              	.LBE70:
 614              	.LBB96:
 615              	.LBB67:
 616              	.LBB64:
 617              	.LBB60:
 618              	.LBB55:
 619              	.LBB56:
 941:Middlewares/FreeRTOS/source/timers.c **** 
 620              		.loc 1 941 13 is_stmt 1 view .LVU169
 946:Middlewares/FreeRTOS/source/timers.c ****         }
 621              		.loc 1 946 13 view .LVU170
 941:Middlewares/FreeRTOS/source/timers.c **** 
 622              		.loc 1 941 29 is_stmt 0 view .LVU171
 623 009e DB68     		ldr	r3, [r3, #12]
 624              	.LVL46:
 946:Middlewares/FreeRTOS/source/timers.c ****         }
 625              		.loc 1 946 13 view .LVU172
 626 00a0 4FF0FF31 		mov	r1, #-1
 627 00a4 1868     		ldr	r0, [r3]
 628 00a6 FFF7FEFF 		bl	prvProcessExpiredTimer
 629              	.LVL47:
 630              	.L91:
 939:Middlewares/FreeRTOS/source/timers.c ****         {
 631              		.loc 1 939 14 is_stmt 1 view .LVU173
 939:Middlewares/FreeRTOS/source/timers.c ****         {
 632              		.loc 1 939 16 is_stmt 0 view .LVU174
 633 00aa 2B68     		ldr	r3, [r5]
 634 00ac 1A68     		ldr	r2, [r3]
 939:Middlewares/FreeRTOS/source/timers.c ****         {
 635              		.loc 1 939 14 view .LVU175
 636 00ae 002A     		cmp	r2, #0
 637 00b0 F5D1     		bne	.L39
 949:Middlewares/FreeRTOS/source/timers.c ****         pxCurrentTimerList = pxOverflowTimerList;
 638              		.loc 1 949 9 is_stmt 1 view .LVU176
 639              	.LVL48:
 950:Middlewares/FreeRTOS/source/timers.c ****         pxOverflowTimerList = pxTemp;
 640              		.loc 1 950 9 view .LVU177
 950:Middlewares/FreeRTOS/source/timers.c ****         pxOverflowTimerList = pxTemp;
 641              		.loc 1 950 28 is_stmt 0 view .LVU178
 642 00b2 3A68     		ldr	r2, [r7]
 643              	.LBE56:
 644              	.LBE55:
 732:Middlewares/FreeRTOS/source/timers.c **** 
 645              		.loc 1 732 19 view .LVU179
 646 00b4 C6F80080 		str	r8, [r6]
 647              	.LBB58:
 648              	.LBB57:
 950:Middlewares/FreeRTOS/source/timers.c ****         pxOverflowTimerList = pxTemp;
 649              		.loc 1 950 28 view .LVU180
 650 00b8 2A60     		str	r2, [r5]
 951:Middlewares/FreeRTOS/source/timers.c ****     }
 651              		.loc 1 951 9 is_stmt 1 view .LVU181
 951:Middlewares/FreeRTOS/source/timers.c ****     }
 652              		.loc 1 951 29 is_stmt 0 view .LVU182
ARM GAS  /tmp/ccIlBc3y.s 			page 33


 653 00ba 3B60     		str	r3, [r7]
 654              	.LBE57:
 655              	.LBE58:
 725:Middlewares/FreeRTOS/source/timers.c ****         }
 656              		.loc 1 725 13 is_stmt 1 view .LVU183
 657              	.LVL49:
 732:Middlewares/FreeRTOS/source/timers.c **** 
 658              		.loc 1 732 9 view .LVU184
 734:Middlewares/FreeRTOS/source/timers.c ****     }
 659              		.loc 1 734 9 view .LVU185
 734:Middlewares/FreeRTOS/source/timers.c ****     }
 660              		.loc 1 734 9 is_stmt 0 view .LVU186
 661              	.LBE60:
 662              	.LBE64:
 641:Middlewares/FreeRTOS/source/timers.c ****             {
 663              		.loc 1 641 13 is_stmt 1 view .LVU187
 682:Middlewares/FreeRTOS/source/timers.c ****             }
 664              		.loc 1 682 17 view .LVU188
 682:Middlewares/FreeRTOS/source/timers.c ****             }
 665              		.loc 1 682 26 is_stmt 0 view .LVU189
 666 00bc FFF7FEFF 		bl	xTaskResumeAll
 667              	.LVL50:
 682:Middlewares/FreeRTOS/source/timers.c ****             }
 668              		.loc 1 682 26 view .LVU190
 669 00c0 C6E7     		b	.L42
 670              	.LVL51:
 671              	.L46:
 682:Middlewares/FreeRTOS/source/timers.c ****             }
 672              		.loc 1 682 26 view .LVU191
 673              	.LBE67:
 674              	.LBE96:
 675              	.LBB97:
 676              	.LBB93:
 677              	.LBB79:
 678              	.LBB77:
 679              	.LBB74:
 680              	.LBB75:
 941:Middlewares/FreeRTOS/source/timers.c **** 
 681              		.loc 1 941 13 is_stmt 1 view .LVU192
 946:Middlewares/FreeRTOS/source/timers.c ****         }
 682              		.loc 1 946 13 view .LVU193
 941:Middlewares/FreeRTOS/source/timers.c **** 
 683              		.loc 1 941 29 is_stmt 0 view .LVU194
 684 00c2 DB68     		ldr	r3, [r3, #12]
 685              	.LVL52:
 946:Middlewares/FreeRTOS/source/timers.c ****         }
 686              		.loc 1 946 13 view .LVU195
 687 00c4 4FF0FF31 		mov	r1, #-1
 688 00c8 1868     		ldr	r0, [r3]
 689 00ca FFF7FEFF 		bl	prvProcessExpiredTimer
 690              	.LVL53:
 691              	.L92:
 939:Middlewares/FreeRTOS/source/timers.c ****         {
 692              		.loc 1 939 14 is_stmt 1 view .LVU196
 939:Middlewares/FreeRTOS/source/timers.c ****         {
 693              		.loc 1 939 16 is_stmt 0 view .LVU197
 694 00ce 2B68     		ldr	r3, [r5]
ARM GAS  /tmp/ccIlBc3y.s 			page 34


 695 00d0 1A68     		ldr	r2, [r3]
 939:Middlewares/FreeRTOS/source/timers.c ****         {
 696              		.loc 1 939 14 view .LVU198
 697 00d2 002A     		cmp	r2, #0
 698 00d4 F5D1     		bne	.L46
 949:Middlewares/FreeRTOS/source/timers.c ****         pxCurrentTimerList = pxOverflowTimerList;
 699              		.loc 1 949 9 is_stmt 1 view .LVU199
 700              	.LVL54:
 950:Middlewares/FreeRTOS/source/timers.c ****         pxOverflowTimerList = pxTemp;
 701              		.loc 1 950 9 view .LVU200
 950:Middlewares/FreeRTOS/source/timers.c ****         pxOverflowTimerList = pxTemp;
 702              		.loc 1 950 28 is_stmt 0 view .LVU201
 703 00d6 3A68     		ldr	r2, [r7]
 951:Middlewares/FreeRTOS/source/timers.c ****     }
 704              		.loc 1 951 29 view .LVU202
 705 00d8 3B60     		str	r3, [r7]
 950:Middlewares/FreeRTOS/source/timers.c ****         pxOverflowTimerList = pxTemp;
 706              		.loc 1 950 28 view .LVU203
 707 00da 2A60     		str	r2, [r5]
 951:Middlewares/FreeRTOS/source/timers.c ****     }
 708              		.loc 1 951 9 is_stmt 1 view .LVU204
 709              	.LBE75:
 710              	.LBE74:
 725:Middlewares/FreeRTOS/source/timers.c ****         }
 711              		.loc 1 725 13 view .LVU205
 712              	.LVL55:
 725:Middlewares/FreeRTOS/source/timers.c ****         }
 713              		.loc 1 725 13 is_stmt 0 view .LVU206
 714 00dc D2E7     		b	.L44
 715              	.LVL56:
 716              	.L51:
 725:Middlewares/FreeRTOS/source/timers.c ****         }
 717              		.loc 1 725 13 view .LVU207
 718              	.LBE77:
 719              	.LBE79:
 848:Middlewares/FreeRTOS/source/timers.c **** 
 720              		.loc 1 848 25 is_stmt 1 view .LVU208
 848:Middlewares/FreeRTOS/source/timers.c **** 
 721              		.loc 1 848 43 is_stmt 0 view .LVU209
 722 00de 98F82800 		ldrb	r0, [r8, #40]	@ zero_extendqisi2
 850:Middlewares/FreeRTOS/source/timers.c ****                         {
 723              		.loc 1 850 93 view .LVU210
 724 00e2 019B     		ldr	r3, [sp, #4]
 850:Middlewares/FreeRTOS/source/timers.c ****                         {
 725              		.loc 1 850 117 view .LVU211
 726 00e4 D8F81820 		ldr	r2, [r8, #24]
 848:Middlewares/FreeRTOS/source/timers.c **** 
 727              		.loc 1 848 43 view .LVU212
 728 00e8 40F0010C 		orr	ip, r0, #1
 729 00ec 9918     		adds	r1, r3, r2
 730 00ee 88F828C0 		strb	ip, [r8, #40]
 850:Middlewares/FreeRTOS/source/timers.c ****                         {
 731              		.loc 1 850 25 is_stmt 1 view .LVU213
 732 00f2 2CBF     		ite	cs
 733 00f4 4FF0010C 		movcs	ip, #1
 734 00f8 4FF0000C 		movcc	ip, #0
 735              	.LVL57:
ARM GAS  /tmp/ccIlBc3y.s 			page 35


 736              	.LBB80:
 737              	.LBI80:
 738:Middlewares/FreeRTOS/source/timers.c ****                                                   const TickType_t xNextExpiryTime,
 738              		.loc 1 738 23 view .LVU214
 739              	.LBB81:
 743:Middlewares/FreeRTOS/source/timers.c **** 
 740              		.loc 1 743 9 view .LVU215
 745:Middlewares/FreeRTOS/source/timers.c ****         listSET_LIST_ITEM_OWNER( &( pxTimer->xTimerListItem ), pxTimer );
 741              		.loc 1 745 9 view .LVU216
 746:Middlewares/FreeRTOS/source/timers.c **** 
 742              		.loc 1 746 9 view .LVU217
 748:Middlewares/FreeRTOS/source/timers.c ****         {
 743              		.loc 1 748 9 view .LVU218
 748:Middlewares/FreeRTOS/source/timers.c ****         {
 744              		.loc 1 748 11 is_stmt 0 view .LVU219
 745 00fc 4945     		cmp	r1, r9
 745:Middlewares/FreeRTOS/source/timers.c ****         listSET_LIST_ITEM_OWNER( &( pxTimer->xTimerListItem ), pxTimer );
 746              		.loc 1 745 9 view .LVU220
 747 00fe C8F80410 		str	r1, [r8, #4]
 746:Middlewares/FreeRTOS/source/timers.c **** 
 748              		.loc 1 746 9 view .LVU221
 749 0102 C8F81080 		str	r8, [r8, #16]
 748:Middlewares/FreeRTOS/source/timers.c ****         {
 750              		.loc 1 748 11 view .LVU222
 751 0106 53D8     		bhi	.L55
 752:Middlewares/FreeRTOS/source/timers.c ****             {
 752              		.loc 1 752 13 is_stmt 1 view .LVU223
 752:Middlewares/FreeRTOS/source/timers.c ****             {
 753              		.loc 1 752 19 is_stmt 0 view .LVU224
 754 0108 A9EB0303 		sub	r3, r9, r3
 755              	.LVL58:
 752:Middlewares/FreeRTOS/source/timers.c ****             {
 756              		.loc 1 752 15 view .LVU225
 757 010c 9A42     		cmp	r2, r3
 758 010e 1DD8     		bhi	.L93
 759              	.L56:
 760              	.LVL59:
 752:Middlewares/FreeRTOS/source/timers.c ****             {
 761              		.loc 1 752 15 view .LVU226
 762              	.LBE81:
 763              	.LBE80:
 854:Middlewares/FreeRTOS/source/timers.c ****                             {
 764              		.loc 1 854 29 is_stmt 1 view .LVU227
 854:Middlewares/FreeRTOS/source/timers.c ****                             {
 765              		.loc 1 854 31 is_stmt 0 view .LVU228
 766 0110 4307     		lsls	r3, r0, #29
 767 0112 63D4     		bmi	.L96
 860:Middlewares/FreeRTOS/source/timers.c ****                             }
 768              		.loc 1 860 33 is_stmt 1 view .LVU229
 860:Middlewares/FreeRTOS/source/timers.c ****                             }
 769              		.loc 1 860 51 is_stmt 0 view .LVU230
 770 0114 20F00100 		bic	r0, r0, #1
 771 0118 88F82800 		strb	r0, [r8, #40]
 772              	.L60:
 864:Middlewares/FreeRTOS/source/timers.c ****                             pxTimer->pxCallbackFunction( ( TimerHandle_t ) pxTimer );
 773              		.loc 1 864 58 is_stmt 1 view .LVU231
 865:Middlewares/FreeRTOS/source/timers.c ****                         }
ARM GAS  /tmp/ccIlBc3y.s 			page 36


 774              		.loc 1 865 29 view .LVU232
 775 011c 4046     		mov	r0, r8
 776 011e D8F82030 		ldr	r3, [r8, #32]
 777 0122 9847     		blx	r3
 778              	.LVL60:
 779 0124 94E7     		b	.L42
 780              	.L48:
 882:Middlewares/FreeRTOS/source/timers.c ****                         pxTimer->xTimerPeriodInTicks = xMessage.u.xTimerParameters.xMessageValue;
 781              		.loc 1 882 25 view .LVU233
 883:Middlewares/FreeRTOS/source/timers.c ****                         configASSERT( ( pxTimer->xTimerPeriodInTicks > 0 ) );
 782              		.loc 1 883 83 is_stmt 0 view .LVU234
 783 0126 019A     		ldr	r2, [sp, #4]
 882:Middlewares/FreeRTOS/source/timers.c ****                         pxTimer->xTimerPeriodInTicks = xMessage.u.xTimerParameters.xMessageValue;
 784              		.loc 1 882 43 view .LVU235
 785 0128 98F82830 		ldrb	r3, [r8, #40]	@ zero_extendqisi2
 892:Middlewares/FreeRTOS/source/timers.c ****                         break;
 786              		.loc 1 892 34 view .LVU236
 787 012c 02EB0901 		add	r1, r2, r9
 882:Middlewares/FreeRTOS/source/timers.c ****                         pxTimer->xTimerPeriodInTicks = xMessage.u.xTimerParameters.xMessageValue;
 788              		.loc 1 882 43 view .LVU237
 789 0130 43F00103 		orr	r3, r3, #1
 790              	.LBB83:
 791              	.LBB84:
 748:Middlewares/FreeRTOS/source/timers.c ****         {
 792              		.loc 1 748 11 view .LVU238
 793 0134 4945     		cmp	r1, r9
 794              	.LBE84:
 795              	.LBE83:
 882:Middlewares/FreeRTOS/source/timers.c ****                         pxTimer->xTimerPeriodInTicks = xMessage.u.xTimerParameters.xMessageValue;
 796              		.loc 1 882 43 view .LVU239
 797 0136 88F82830 		strb	r3, [r8, #40]
 883:Middlewares/FreeRTOS/source/timers.c ****                         configASSERT( ( pxTimer->xTimerPeriodInTicks > 0 ) );
 798              		.loc 1 883 25 is_stmt 1 view .LVU240
 883:Middlewares/FreeRTOS/source/timers.c ****                         configASSERT( ( pxTimer->xTimerPeriodInTicks > 0 ) );
 799              		.loc 1 883 54 is_stmt 0 view .LVU241
 800 013a C8F81820 		str	r2, [r8, #24]
 884:Middlewares/FreeRTOS/source/timers.c **** 
 801              		.loc 1 884 77 is_stmt 1 view .LVU242
 892:Middlewares/FreeRTOS/source/timers.c ****                         break;
 802              		.loc 1 892 25 view .LVU243
 803              	.LVL61:
 804              	.LBB89:
 805              	.LBI83:
 738:Middlewares/FreeRTOS/source/timers.c ****                                                   const TickType_t xNextExpiryTime,
 806              		.loc 1 738 23 view .LVU244
 807              	.LBB87:
 743:Middlewares/FreeRTOS/source/timers.c **** 
 808              		.loc 1 743 9 view .LVU245
 745:Middlewares/FreeRTOS/source/timers.c ****         listSET_LIST_ITEM_OWNER( &( pxTimer->xTimerListItem ), pxTimer );
 809              		.loc 1 745 9 view .LVU246
 810 013e C8F80410 		str	r1, [r8, #4]
 746:Middlewares/FreeRTOS/source/timers.c **** 
 811              		.loc 1 746 9 view .LVU247
 812 0142 C8F81080 		str	r8, [r8, #16]
 748:Middlewares/FreeRTOS/source/timers.c ****         {
 813              		.loc 1 748 9 view .LVU248
 748:Middlewares/FreeRTOS/source/timers.c ****         {
ARM GAS  /tmp/ccIlBc3y.s 			page 37


 814              		.loc 1 748 11 is_stmt 0 view .LVU249
 815 0146 38D8     		bhi	.L61
 752:Middlewares/FreeRTOS/source/timers.c ****             {
 816              		.loc 1 752 13 is_stmt 1 view .LVU250
 752:Middlewares/FreeRTOS/source/timers.c ****             {
 817              		.loc 1 752 15 is_stmt 0 view .LVU251
 818 0148 002A     		cmp	r2, #0
 819 014a 81D0     		beq	.L42
 820              	.LVL62:
 821              	.L93:
 822              	.LBB85:
 823              	.LBI85:
 738:Middlewares/FreeRTOS/source/timers.c ****                                                   const TickType_t xNextExpiryTime,
 824              		.loc 1 738 23 is_stmt 1 view .LVU252
 825              	.LBB86:
 760:Middlewares/FreeRTOS/source/timers.c ****             }
 826              		.loc 1 760 17 view .LVU253
 827 014c 3868     		ldr	r0, [r7]
 828 014e 08F10401 		add	r1, r8, #4
 829 0152 FFF7FEFF 		bl	vListInsert
 830              	.LVL63:
 778:Middlewares/FreeRTOS/source/timers.c ****     }
 831              		.loc 1 778 9 view .LVU254
 778:Middlewares/FreeRTOS/source/timers.c ****     }
 832              		.loc 1 778 9 is_stmt 0 view .LVU255
 833 0156 7BE7     		b	.L42
 834              	.L50:
 778:Middlewares/FreeRTOS/source/timers.c ****     }
 835              		.loc 1 778 9 view .LVU256
 836              	.LBE86:
 837              	.LBE85:
 838              	.LBE87:
 839              	.LBE89:
 877:Middlewares/FreeRTOS/source/timers.c ****                         break;
 840              		.loc 1 877 25 is_stmt 1 view .LVU257
 877:Middlewares/FreeRTOS/source/timers.c ****                         break;
 841              		.loc 1 877 43 is_stmt 0 view .LVU258
 842 0158 98F82830 		ldrb	r3, [r8, #40]	@ zero_extendqisi2
 843 015c 23F00103 		bic	r3, r3, #1
 844 0160 88F82830 		strb	r3, [r8, #40]
 878:Middlewares/FreeRTOS/source/timers.c **** 
 845              		.loc 1 878 25 is_stmt 1 view .LVU259
 846 0164 74E7     		b	.L42
 847              	.L52:
 901:Middlewares/FreeRTOS/source/timers.c ****                             {
 848              		.loc 1 901 29 view .LVU260
 901:Middlewares/FreeRTOS/source/timers.c ****                             {
 849              		.loc 1 901 42 is_stmt 0 view .LVU261
 850 0166 98F82830 		ldrb	r3, [r8, #40]	@ zero_extendqisi2
 901:Middlewares/FreeRTOS/source/timers.c ****                             {
 851              		.loc 1 901 31 view .LVU262
 852 016a 9A07     		lsls	r2, r3, #30
 853 016c 32D5     		bpl	.L97
 907:Middlewares/FreeRTOS/source/timers.c ****                             }
 854              		.loc 1 907 33 is_stmt 1 view .LVU263
 907:Middlewares/FreeRTOS/source/timers.c ****                             }
 855              		.loc 1 907 51 is_stmt 0 view .LVU264
ARM GAS  /tmp/ccIlBc3y.s 			page 38


 856 016e 23F00103 		bic	r3, r3, #1
 857 0172 88F82830 		strb	r3, [r8, #40]
 858 0176 6BE7     		b	.L42
 859              	.LVL64:
 860              	.L95:
 861              	.LBB90:
 797:Middlewares/FreeRTOS/source/timers.c **** 
 862              		.loc 1 797 21 is_stmt 1 view .LVU265
 801:Middlewares/FreeRTOS/source/timers.c **** 
 863              		.loc 1 801 47 view .LVU266
 804:Middlewares/FreeRTOS/source/timers.c ****                 }
 864              		.loc 1 804 21 view .LVU267
 865 0178 019B     		ldr	r3, [sp, #4]
 866 017a DDE90201 		ldrd	r0, r1, [sp, #8]
 867 017e 9847     		blx	r3
 868              	.LVL65:
 869              	.LBE90:
 808:Middlewares/FreeRTOS/source/timers.c ****                 }
 870              		.loc 1 808 45 view .LVU268
 815:Middlewares/FreeRTOS/source/timers.c ****             {
 871              		.loc 1 815 13 view .LVU269
 815:Middlewares/FreeRTOS/source/timers.c ****             {
 872              		.loc 1 815 15 is_stmt 0 view .LVU270
 873 0180 009B     		ldr	r3, [sp]
 874 0182 002B     		cmp	r3, #0
 875 0184 FFF664AF 		blt	.L42
 876 0188 6DE7     		b	.L41
 877              	.LVL66:
 878              	.L36:
 815:Middlewares/FreeRTOS/source/timers.c ****             {
 879              		.loc 1 815 15 view .LVU271
 880              	.LBE93:
 881              	.LBE97:
 882              	.LBB98:
 883              	.LBB50:
 711:Middlewares/FreeRTOS/source/timers.c ****     }
 884              		.loc 1 711 9 is_stmt 1 view .LVU272
 711:Middlewares/FreeRTOS/source/timers.c ****     }
 885              		.loc 1 711 9 is_stmt 0 view .LVU273
 886              	.LBE50:
 887              	.LBE98:
 618:Middlewares/FreeRTOS/source/timers.c **** 
 888              		.loc 1 618 13 is_stmt 1 view .LVU274
 889              	.LBB99:
 626:Middlewares/FreeRTOS/source/timers.c ****                                             BaseType_t xListWasEmpty )
 890              		.loc 1 626 17 view .LVU275
 891              	.LBB68:
 629:Middlewares/FreeRTOS/source/timers.c ****         BaseType_t xTimerListsWereSwitched;
 892              		.loc 1 629 9 view .LVU276
 630:Middlewares/FreeRTOS/source/timers.c **** 
 893              		.loc 1 630 9 view .LVU277
 632:Middlewares/FreeRTOS/source/timers.c ****         {
 894              		.loc 1 632 9 view .LVU278
 895 018a FFF7FEFF 		bl	vTaskSuspendAll
 896              	.LVL67:
 639:Middlewares/FreeRTOS/source/timers.c **** 
 897              		.loc 1 639 13 view .LVU279
ARM GAS  /tmp/ccIlBc3y.s 			page 39


 898              	.LBB65:
 715:Middlewares/FreeRTOS/source/timers.c ****     {
 899              		.loc 1 715 23 view .LVU280
 900              	.LBB61:
 717:Middlewares/FreeRTOS/source/timers.c ****         PRIVILEGED_DATA static TickType_t xLastTime = ( TickType_t ) 0U; /*lint !e956 Variable is o
 901              		.loc 1 717 9 view .LVU281
 718:Middlewares/FreeRTOS/source/timers.c **** 
 902              		.loc 1 718 25 view .LVU282
 720:Middlewares/FreeRTOS/source/timers.c **** 
 903              		.loc 1 720 9 view .LVU283
 720:Middlewares/FreeRTOS/source/timers.c **** 
 904              		.loc 1 720 20 is_stmt 0 view .LVU284
 905 018e FFF7FEFF 		bl	xTaskGetTickCount
 906              	.LVL68:
 722:Middlewares/FreeRTOS/source/timers.c ****         {
 907              		.loc 1 722 11 view .LVU285
 908 0192 3368     		ldr	r3, [r6]
 720:Middlewares/FreeRTOS/source/timers.c **** 
 909              		.loc 1 720 20 view .LVU286
 910 0194 8046     		mov	r8, r0
 911              	.LVL69:
 722:Middlewares/FreeRTOS/source/timers.c ****         {
 912              		.loc 1 722 9 is_stmt 1 view .LVU287
 722:Middlewares/FreeRTOS/source/timers.c ****         {
 913              		.loc 1 722 11 is_stmt 0 view .LVU288
 914 0196 8342     		cmp	r3, r0
 915 0198 87D8     		bhi	.L91
 916              	.LVL70:
 732:Middlewares/FreeRTOS/source/timers.c **** 
 917              		.loc 1 732 9 is_stmt 1 view .LVU289
 918              	.LBE61:
 919              	.LBE65:
 661:Middlewares/FreeRTOS/source/timers.c ****                     }
 920              		.loc 1 661 41 is_stmt 0 view .LVU290
 921 019a 3B68     		ldr	r3, [r7]
 922              	.LBB66:
 923              	.LBB62:
 732:Middlewares/FreeRTOS/source/timers.c **** 
 924              		.loc 1 732 19 view .LVU291
 925 019c C6F80080 		str	r8, [r6]
 734:Middlewares/FreeRTOS/source/timers.c ****     }
 926              		.loc 1 734 9 is_stmt 1 view .LVU292
 927              	.LVL71:
 734:Middlewares/FreeRTOS/source/timers.c ****     }
 928              		.loc 1 734 9 is_stmt 0 view .LVU293
 929              	.LBE62:
 930              	.LBE66:
 641:Middlewares/FreeRTOS/source/timers.c ****             {
 931              		.loc 1 641 13 is_stmt 1 view .LVU294
 644:Middlewares/FreeRTOS/source/timers.c ****                 {
 932              		.loc 1 644 17 view .LVU295
 657:Middlewares/FreeRTOS/source/timers.c ****                     {
 933              		.loc 1 657 21 view .LVU296
 661:Middlewares/FreeRTOS/source/timers.c ****                     }
 934              		.loc 1 661 25 view .LVU297
 661:Middlewares/FreeRTOS/source/timers.c ****                     }
 935              		.loc 1 661 41 is_stmt 0 view .LVU298
ARM GAS  /tmp/ccIlBc3y.s 			page 40


 936 01a0 1A68     		ldr	r2, [r3]
 937 01a2 B2FA82F2 		clz	r2, r2
 938 01a6 5209     		lsrs	r2, r2, #5
 939 01a8 48E7     		b	.L67
 940              	.LVL72:
 941              	.L94:
 672:Middlewares/FreeRTOS/source/timers.c ****                     }
 942              		.loc 1 672 25 is_stmt 1 view .LVU299
 943 01aa FFF7FEFF 		bl	vPortYield
 944              	.LVL73:
 672:Middlewares/FreeRTOS/source/timers.c ****                     }
 945              		.loc 1 672 25 is_stmt 0 view .LVU300
 946 01ae 4FE7     		b	.L42
 947              	.LVL74:
 948              	.L55:
 672:Middlewares/FreeRTOS/source/timers.c ****                     }
 949              		.loc 1 672 25 view .LVU301
 950              	.LBE68:
 951              	.LBE99:
 952              	.LBB100:
 953              	.LBB94:
 954              	.LBB91:
 955              	.LBB82:
 765:Middlewares/FreeRTOS/source/timers.c ****             {
 956              		.loc 1 765 13 is_stmt 1 view .LVU302
 765:Middlewares/FreeRTOS/source/timers.c ****             {
 957              		.loc 1 765 15 is_stmt 0 view .LVU303
 958 01b0 4B45     		cmp	r3, r9
 959 01b2 02D9     		bls	.L61
 765:Middlewares/FreeRTOS/source/timers.c ****             {
 960              		.loc 1 765 45 view .LVU304
 961 01b4 BCF1000F 		cmp	ip, #0
 962 01b8 AAD0     		beq	.L56
 963              	.LVL75:
 964              	.L61:
 765:Middlewares/FreeRTOS/source/timers.c ****             {
 965              		.loc 1 765 45 view .LVU305
 966              	.LBE82:
 967              	.LBE91:
 968              	.LBB92:
 969              	.LBB88:
 765:Middlewares/FreeRTOS/source/timers.c ****             {
 970              		.loc 1 765 13 is_stmt 1 view .LVU306
 774:Middlewares/FreeRTOS/source/timers.c ****             }
 971              		.loc 1 774 17 view .LVU307
 972 01ba 2868     		ldr	r0, [r5]
 973 01bc 08F10401 		add	r1, r8, #4
 974 01c0 FFF7FEFF 		bl	vListInsert
 975              	.LVL76:
 976 01c4 44E7     		b	.L42
 977              	.LVL77:
 978              	.L66:
 774:Middlewares/FreeRTOS/source/timers.c ****             }
 979              		.loc 1 774 17 is_stmt 0 view .LVU308
 980              	.LBE88:
 981              	.LBE92:
 982              	.LBE94:
ARM GAS  /tmp/ccIlBc3y.s 			page 41


 983              	.LBE100:
 984              	.LBB101:
 985              	.LBB69:
 646:Middlewares/FreeRTOS/source/timers.c ****                     prvProcessExpiredTimer( xNextExpireTime, xTimeNow );
 986              		.loc 1 646 21 is_stmt 1 view .LVU309
 646:Middlewares/FreeRTOS/source/timers.c ****                     prvProcessExpiredTimer( xNextExpireTime, xTimeNow );
 987              		.loc 1 646 30 is_stmt 0 view .LVU310
 988 01c6 FFF7FEFF 		bl	xTaskResumeAll
 989              	.LVL78:
 647:Middlewares/FreeRTOS/source/timers.c ****                 }
 990              		.loc 1 647 21 is_stmt 1 view .LVU311
 991 01ca 4146     		mov	r1, r8
 992 01cc 4846     		mov	r0, r9
 993 01ce FFF7FEFF 		bl	prvProcessExpiredTimer
 994              	.LVL79:
 995 01d2 3DE7     		b	.L42
 996              	.LVL80:
 997              	.L97:
 647:Middlewares/FreeRTOS/source/timers.c ****                 }
 998              		.loc 1 647 21 is_stmt 0 view .LVU312
 999              	.LBE69:
 1000              	.LBE101:
 1001              	.LBB102:
 1002              	.LBB95:
 903:Middlewares/FreeRTOS/source/timers.c ****                             }
 1003              		.loc 1 903 33 is_stmt 1 view .LVU313
 1004 01d4 4046     		mov	r0, r8
 1005 01d6 FFF7FEFF 		bl	vPortFree
 1006              	.LVL81:
 1007 01da 39E7     		b	.L42
 1008              	.L96:
 856:Middlewares/FreeRTOS/source/timers.c ****                             }
 1009              		.loc 1 856 33 view .LVU314
 1010 01dc 4A46     		mov	r2, r9
 1011 01de 4046     		mov	r0, r8
 1012 01e0 FFF7FEFF 		bl	prvReloadTimer
 1013              	.LVL82:
 1014 01e4 9AE7     		b	.L60
 1015              	.L99:
 1016 01e6 00BF     		.align	2
 1017              	.L98:
 1018 01e8 00000000 		.word	.LANCHOR3
 1019 01ec 00000000 		.word	.LANCHOR5
 1020 01f0 00000000 		.word	.LANCHOR4
 1021 01f4 00000000 		.word	.LANCHOR0
 1022              	.LBE95:
 1023              	.LBE102:
 1024              		.cfi_endproc
 1025              	.LFE821:
 1027              		.section	.rodata.xTimerCreateTimerTask.str1.4,"aMS",%progbits,1
 1028              		.align	2
 1029              	.LC1:
 1030 0000 546D7220 		.ascii	"Tmr Svc\000"
 1030      53766300 
 1031              		.section	.text.xTimerCreateTimerTask,"ax",%progbits
 1032              		.align	1
 1033              		.p2align 2,,3
ARM GAS  /tmp/ccIlBc3y.s 			page 42


 1034              		.global	xTimerCreateTimerTask
 1035              		.syntax unified
 1036              		.thumb
 1037              		.thumb_func
 1038              		.fpu fpv5-d16
 1040              	xTimerCreateTimerTask:
 1041              	.LFB808:
 234:Middlewares/FreeRTOS/source/timers.c ****         BaseType_t xReturn = pdFAIL;
 1042              		.loc 1 234 5 view -0
 1043              		.cfi_startproc
 1044              		@ args = 0, pretend = 0, frame = 0
 1045              		@ frame_needed = 0, uses_anonymous_args = 0
 235:Middlewares/FreeRTOS/source/timers.c **** 
 1046              		.loc 1 235 9 view .LVU316
 1047              	.LVL83:
 241:Middlewares/FreeRTOS/source/timers.c **** 
 1048              		.loc 1 241 9 view .LVU317
 234:Middlewares/FreeRTOS/source/timers.c ****         BaseType_t xReturn = pdFAIL;
 1049              		.loc 1 234 5 is_stmt 0 view .LVU318
 1050 0000 10B5     		push	{r4, lr}
 1051              		.cfi_def_cfa_offset 8
 1052              		.cfi_offset 4, -8
 1053              		.cfi_offset 14, -4
 1054 0002 82B0     		sub	sp, sp, #8
 1055              		.cfi_def_cfa_offset 16
 241:Middlewares/FreeRTOS/source/timers.c **** 
 1056              		.loc 1 241 9 view .LVU319
 1057 0004 FFF7FEFF 		bl	prvCheckForValidListAndQueue
 1058              	.LVL84:
 243:Middlewares/FreeRTOS/source/timers.c ****         {
 1059              		.loc 1 243 9 is_stmt 1 view .LVU320
 243:Middlewares/FreeRTOS/source/timers.c ****         {
 1060              		.loc 1 243 25 is_stmt 0 view .LVU321
 1061 0008 074B     		ldr	r3, .L104
 243:Middlewares/FreeRTOS/source/timers.c ****         {
 1062              		.loc 1 243 11 view .LVU322
 1063 000a 1868     		ldr	r0, [r3]
 1064 000c 50B1     		cbz	r0, .L100
 267:Middlewares/FreeRTOS/source/timers.c ****                                        configTIMER_SERVICE_TASK_NAME,
 1065              		.loc 1 267 17 is_stmt 1 view .LVU323
 267:Middlewares/FreeRTOS/source/timers.c ****                                        configTIMER_SERVICE_TASK_NAME,
 1066              		.loc 1 267 27 is_stmt 0 view .LVU324
 1067 000e 0524     		movs	r4, #5
 1068 0010 0648     		ldr	r0, .L104+4
 1069 0012 0023     		movs	r3, #0
 1070 0014 0190     		str	r0, [sp, #4]
 1071 0016 4FF40072 		mov	r2, #512
 1072 001a 0549     		ldr	r1, .L104+8
 1073 001c 0548     		ldr	r0, .L104+12
 1074 001e 0094     		str	r4, [sp]
 1075 0020 FFF7FEFF 		bl	xTaskCreate
 1076              	.LVL85:
 1077              	.L100:
 283:Middlewares/FreeRTOS/source/timers.c **** /*-----------------------------------------------------------*/
 1078              		.loc 1 283 5 view .LVU325
 1079 0024 02B0     		add	sp, sp, #8
 1080              		.cfi_def_cfa_offset 8
ARM GAS  /tmp/ccIlBc3y.s 			page 43


 1081              		@ sp needed
 1082 0026 10BD     		pop	{r4, pc}
 1083              	.L105:
 1084              		.align	2
 1085              	.L104:
 1086 0028 00000000 		.word	.LANCHOR0
 1087 002c 00000000 		.word	.LANCHOR6
 1088 0030 00000000 		.word	.LC1
 1089 0034 00000000 		.word	prvTimerTask
 1090              		.cfi_endproc
 1091              	.LFE808:
 1093              		.section	.text.xTimerCreate,"ax",%progbits
 1094              		.align	1
 1095              		.p2align 2,,3
 1096              		.global	xTimerCreate
 1097              		.syntax unified
 1098              		.thumb
 1099              		.thumb_func
 1100              		.fpu fpv5-d16
 1102              	xTimerCreate:
 1103              	.LVL86:
 1104              	.LFB809:
 293:Middlewares/FreeRTOS/source/timers.c ****             Timer_t * pxNewTimer;
 1105              		.loc 1 293 9 is_stmt 1 view -0
 1106              		.cfi_startproc
 1107              		@ args = 4, pretend = 0, frame = 0
 1108              		@ frame_needed = 0, uses_anonymous_args = 0
 294:Middlewares/FreeRTOS/source/timers.c **** 
 1109              		.loc 1 294 13 view .LVU327
 296:Middlewares/FreeRTOS/source/timers.c **** 
 1110              		.loc 1 296 13 view .LVU328
 293:Middlewares/FreeRTOS/source/timers.c ****             Timer_t * pxNewTimer;
 1111              		.loc 1 293 9 is_stmt 0 view .LVU329
 1112 0000 2DE9F041 		push	{r4, r5, r6, r7, r8, lr}
 1113              		.cfi_def_cfa_offset 24
 1114              		.cfi_offset 4, -24
 1115              		.cfi_offset 5, -20
 1116              		.cfi_offset 6, -16
 1117              		.cfi_offset 7, -12
 1118              		.cfi_offset 8, -8
 1119              		.cfi_offset 14, -4
 293:Middlewares/FreeRTOS/source/timers.c ****             Timer_t * pxNewTimer;
 1120              		.loc 1 293 9 view .LVU330
 1121 0004 0746     		mov	r7, r0
 296:Middlewares/FreeRTOS/source/timers.c **** 
 1122              		.loc 1 296 40 view .LVU331
 1123 0006 2C20     		movs	r0, #44
 1124              	.LVL87:
 293:Middlewares/FreeRTOS/source/timers.c ****             Timer_t * pxNewTimer;
 1125              		.loc 1 293 9 view .LVU332
 1126 0008 8846     		mov	r8, r1
 1127 000a 1546     		mov	r5, r2
 1128 000c 1E46     		mov	r6, r3
 296:Middlewares/FreeRTOS/source/timers.c **** 
 1129              		.loc 1 296 40 view .LVU333
 1130 000e FFF7FEFF 		bl	pvPortMalloc
 1131              	.LVL88:
ARM GAS  /tmp/ccIlBc3y.s 			page 44


 298:Middlewares/FreeRTOS/source/timers.c ****             {
 1132              		.loc 1 298 13 is_stmt 1 view .LVU334
 298:Middlewares/FreeRTOS/source/timers.c ****             {
 1133              		.loc 1 298 15 is_stmt 0 view .LVU335
 1134 0012 0446     		mov	r4, r0
 1135 0014 98B1     		cbz	r0, .L106
 303:Middlewares/FreeRTOS/source/timers.c ****                 prvInitialiseNewTimer( pcTimerName, xTimerPeriodInTicks, xAutoReload, pvTimerID, px
 1136              		.loc 1 303 17 is_stmt 1 view .LVU336
 303:Middlewares/FreeRTOS/source/timers.c ****                 prvInitialiseNewTimer( pcTimerName, xTimerPeriodInTicks, xAutoReload, pvTimerID, px
 1137              		.loc 1 303 38 is_stmt 0 view .LVU337
 1138 0016 0023     		movs	r3, #0
 1139 0018 80F82830 		strb	r3, [r0, #40]
 304:Middlewares/FreeRTOS/source/timers.c ****             }
 1140              		.loc 1 304 17 is_stmt 1 view .LVU338
 1141              	.LVL89:
 1142              	.LBB103:
 1143              	.LBI103:
 355:Middlewares/FreeRTOS/source/timers.c ****                                        const TickType_t xTimerPeriodInTicks,
 1144              		.loc 1 355 17 view .LVU339
 1145              	.LBB104:
 363:Middlewares/FreeRTOS/source/timers.c **** 
 1146              		.loc 1 363 52 view .LVU340
 367:Middlewares/FreeRTOS/source/timers.c **** 
 1147              		.loc 1 367 9 view .LVU341
 1148 001c FFF7FEFF 		bl	prvCheckForValidListAndQueue
 1149              	.LVL90:
 371:Middlewares/FreeRTOS/source/timers.c ****         pxNewTimer->xTimerPeriodInTicks = xTimerPeriodInTicks;
 1150              		.loc 1 371 9 view .LVU342
 374:Middlewares/FreeRTOS/source/timers.c ****         vListInitialiseItem( &( pxNewTimer->xTimerListItem ) );
 1151              		.loc 1 374 40 is_stmt 0 view .LVU343
 1152 0020 069B     		ldr	r3, [sp, #24]
 373:Middlewares/FreeRTOS/source/timers.c ****         pxNewTimer->pxCallbackFunction = pxCallbackFunction;
 1153              		.loc 1 373 31 view .LVU344
 1154 0022 C4E90686 		strd	r8, r6, [r4, #24]
 371:Middlewares/FreeRTOS/source/timers.c ****         pxNewTimer->xTimerPeriodInTicks = xTimerPeriodInTicks;
 1155              		.loc 1 371 33 view .LVU345
 1156 0026 2760     		str	r7, [r4]
 372:Middlewares/FreeRTOS/source/timers.c ****         pxNewTimer->pvTimerID = pvTimerID;
 1157              		.loc 1 372 9 is_stmt 1 view .LVU346
 374:Middlewares/FreeRTOS/source/timers.c ****         vListInitialiseItem( &( pxNewTimer->xTimerListItem ) );
 1158              		.loc 1 374 9 view .LVU347
 374:Middlewares/FreeRTOS/source/timers.c ****         vListInitialiseItem( &( pxNewTimer->xTimerListItem ) );
 1159              		.loc 1 374 40 is_stmt 0 view .LVU348
 1160 0028 2362     		str	r3, [r4, #32]
 375:Middlewares/FreeRTOS/source/timers.c **** 
 1161              		.loc 1 375 9 is_stmt 1 view .LVU349
 1162 002a 201D     		adds	r0, r4, #4
 1163 002c FFF7FEFF 		bl	vListInitialiseItem
 1164              	.LVL91:
 377:Middlewares/FreeRTOS/source/timers.c ****         {
 1165              		.loc 1 377 9 view .LVU350
 377:Middlewares/FreeRTOS/source/timers.c ****         {
 1166              		.loc 1 377 11 is_stmt 0 view .LVU351
 1167 0030 2DB1     		cbz	r5, .L106
 379:Middlewares/FreeRTOS/source/timers.c ****         }
 1168              		.loc 1 379 13 is_stmt 1 view .LVU352
 379:Middlewares/FreeRTOS/source/timers.c ****         }
ARM GAS  /tmp/ccIlBc3y.s 			page 45


 1169              		.loc 1 379 34 is_stmt 0 view .LVU353
 1170 0032 94F82830 		ldrb	r3, [r4, #40]	@ zero_extendqisi2
 1171 0036 43F00403 		orr	r3, r3, #4
 1172 003a 84F82830 		strb	r3, [r4, #40]
 1173              	.LVL92:
 379:Middlewares/FreeRTOS/source/timers.c ****         }
 1174              		.loc 1 379 34 view .LVU354
 1175              	.LBE104:
 1176              	.LBE103:
 307:Middlewares/FreeRTOS/source/timers.c ****         }
 1177              		.loc 1 307 13 is_stmt 1 view .LVU355
 1178              	.L106:
 308:Middlewares/FreeRTOS/source/timers.c **** 
 1179              		.loc 1 308 9 is_stmt 0 view .LVU356
 1180 003e 2046     		mov	r0, r4
 1181 0040 BDE8F081 		pop	{r4, r5, r6, r7, r8, pc}
 308:Middlewares/FreeRTOS/source/timers.c **** 
 1182              		.loc 1 308 9 view .LVU357
 1183              		.cfi_endproc
 1184              	.LFE809:
 1186              		.section	.text.xTimerGenericCommand,"ax",%progbits
 1187              		.align	1
 1188              		.p2align 2,,3
 1189              		.global	xTimerGenericCommand
 1190              		.syntax unified
 1191              		.thumb
 1192              		.thumb_func
 1193              		.fpu fpv5-d16
 1195              	xTimerGenericCommand:
 1196              	.LVL93:
 1197              	.LFB811:
 391:Middlewares/FreeRTOS/source/timers.c ****         BaseType_t xReturn = pdFAIL;
 1198              		.loc 1 391 5 is_stmt 1 view -0
 1199              		.cfi_startproc
 1200              		@ args = 4, pretend = 0, frame = 16
 1201              		@ frame_needed = 0, uses_anonymous_args = 0
 392:Middlewares/FreeRTOS/source/timers.c ****         DaemonTaskMessage_t xMessage;
 1202              		.loc 1 392 9 view .LVU359
 393:Middlewares/FreeRTOS/source/timers.c **** 
 1203              		.loc 1 393 9 view .LVU360
 395:Middlewares/FreeRTOS/source/timers.c **** 
 1204              		.loc 1 395 31 view .LVU361
 399:Middlewares/FreeRTOS/source/timers.c ****         {
 1205              		.loc 1 399 9 view .LVU362
 391:Middlewares/FreeRTOS/source/timers.c ****         BaseType_t xReturn = pdFAIL;
 1206              		.loc 1 391 5 is_stmt 0 view .LVU363
 1207 0000 30B5     		push	{r4, r5, lr}
 1208              		.cfi_def_cfa_offset 12
 1209              		.cfi_offset 4, -12
 1210              		.cfi_offset 5, -8
 1211              		.cfi_offset 14, -4
 399:Middlewares/FreeRTOS/source/timers.c ****         {
 1212              		.loc 1 399 25 view .LVU364
 1213 0002 144D     		ldr	r5, .L121
 391:Middlewares/FreeRTOS/source/timers.c ****         BaseType_t xReturn = pdFAIL;
 1214              		.loc 1 391 5 view .LVU365
 1215 0004 85B0     		sub	sp, sp, #20
ARM GAS  /tmp/ccIlBc3y.s 			page 46


 1216              		.cfi_def_cfa_offset 32
 399:Middlewares/FreeRTOS/source/timers.c ****         {
 1217              		.loc 1 399 25 view .LVU366
 1218 0006 2C68     		ldr	r4, [r5]
 399:Middlewares/FreeRTOS/source/timers.c ****         {
 1219              		.loc 1 399 11 view .LVU367
 1220 0008 D4B1     		cbz	r4, .L118
 402:Middlewares/FreeRTOS/source/timers.c ****             xMessage.u.xTimerParameters.xMessageValue = xOptionalValue;
 1221              		.loc 1 402 13 is_stmt 1 view .LVU368
 406:Middlewares/FreeRTOS/source/timers.c ****             {
 1222              		.loc 1 406 15 is_stmt 0 view .LVU369
 1223 000a 0529     		cmp	r1, #5
 402:Middlewares/FreeRTOS/source/timers.c ****             xMessage.u.xTimerParameters.xMessageValue = xOptionalValue;
 1224              		.loc 1 402 33 view .LVU370
 1225 000c CDE90012 		strd	r1, r2, [sp]
 403:Middlewares/FreeRTOS/source/timers.c ****             xMessage.u.xTimerParameters.pxTimer = xTimer;
 1226              		.loc 1 403 13 is_stmt 1 view .LVU371
 404:Middlewares/FreeRTOS/source/timers.c **** 
 1227              		.loc 1 404 13 view .LVU372
 404:Middlewares/FreeRTOS/source/timers.c **** 
 1228              		.loc 1 404 49 is_stmt 0 view .LVU373
 1229 0010 0290     		str	r0, [sp, #8]
 406:Middlewares/FreeRTOS/source/timers.c ****             {
 1230              		.loc 1 406 13 is_stmt 1 view .LVU374
 406:Middlewares/FreeRTOS/source/timers.c ****             {
 1231              		.loc 1 406 15 is_stmt 0 view .LVU375
 1232 0012 0CDC     		bgt	.L116
 408:Middlewares/FreeRTOS/source/timers.c ****                 {
 1233              		.loc 1 408 17 is_stmt 1 view .LVU376
 408:Middlewares/FreeRTOS/source/timers.c ****                 {
 1234              		.loc 1 408 21 is_stmt 0 view .LVU377
 1235 0014 FFF7FEFF 		bl	xTaskGetSchedulerState
 1236              	.LVL94:
 408:Middlewares/FreeRTOS/source/timers.c ****                 {
 1237              		.loc 1 408 19 view .LVU378
 1238 0018 0228     		cmp	r0, #2
 410:Middlewares/FreeRTOS/source/timers.c ****                 }
 1239              		.loc 1 410 31 view .LVU379
 1240 001a 4FF00003 		mov	r3, #0
 408:Middlewares/FreeRTOS/source/timers.c ****                 {
 1241              		.loc 1 408 19 view .LVU380
 1242 001e 12D0     		beq	.L120
 414:Middlewares/FreeRTOS/source/timers.c ****                 }
 1243              		.loc 1 414 21 is_stmt 1 view .LVU381
 414:Middlewares/FreeRTOS/source/timers.c ****                 }
 1244              		.loc 1 414 31 is_stmt 0 view .LVU382
 1245 0020 6946     		mov	r1, sp
 1246 0022 1A46     		mov	r2, r3
 1247 0024 2868     		ldr	r0, [r5]
 1248 0026 FFF7FEFF 		bl	xQueueGenericSend
 1249              	.LVL95:
 430:Middlewares/FreeRTOS/source/timers.c **** /*-----------------------------------------------------------*/
 1250              		.loc 1 430 5 view .LVU383
 1251 002a 05B0     		add	sp, sp, #20
 1252              		.cfi_remember_state
 1253              		.cfi_def_cfa_offset 12
 1254              		@ sp needed
ARM GAS  /tmp/ccIlBc3y.s 			page 47


 1255 002c 30BD     		pop	{r4, r5, pc}
 1256              	.LVL96:
 1257              	.L116:
 1258              		.cfi_restore_state
 419:Middlewares/FreeRTOS/source/timers.c ****             }
 1259              		.loc 1 419 17 is_stmt 1 view .LVU384
 1260 002e 9C46     		mov	ip, r3
 419:Middlewares/FreeRTOS/source/timers.c ****             }
 1261              		.loc 1 419 27 is_stmt 0 view .LVU385
 1262 0030 2046     		mov	r0, r4
 1263              	.LVL97:
 419:Middlewares/FreeRTOS/source/timers.c ****             }
 1264              		.loc 1 419 27 view .LVU386
 1265 0032 0023     		movs	r3, #0
 1266              	.LVL98:
 419:Middlewares/FreeRTOS/source/timers.c ****             }
 1267              		.loc 1 419 27 view .LVU387
 1268 0034 6246     		mov	r2, ip
 1269              	.LVL99:
 419:Middlewares/FreeRTOS/source/timers.c ****             }
 1270              		.loc 1 419 27 view .LVU388
 1271 0036 6946     		mov	r1, sp
 1272              	.LVL100:
 419:Middlewares/FreeRTOS/source/timers.c ****             }
 1273              		.loc 1 419 27 view .LVU389
 1274 0038 FFF7FEFF 		bl	xQueueGenericSendFromISR
 1275              	.LVL101:
 430:Middlewares/FreeRTOS/source/timers.c **** /*-----------------------------------------------------------*/
 1276              		.loc 1 430 5 view .LVU390
 1277 003c 05B0     		add	sp, sp, #20
 1278              		.cfi_remember_state
 1279              		.cfi_def_cfa_offset 12
 1280              		@ sp needed
 1281 003e 30BD     		pop	{r4, r5, pc}
 1282              	.LVL102:
 1283              	.L118:
 1284              		.cfi_restore_state
 392:Middlewares/FreeRTOS/source/timers.c ****         DaemonTaskMessage_t xMessage;
 1285              		.loc 1 392 20 view .LVU391
 1286 0040 2046     		mov	r0, r4
 1287              	.LVL103:
 426:Middlewares/FreeRTOS/source/timers.c ****         }
 1288              		.loc 1 426 37 is_stmt 1 view .LVU392
 429:Middlewares/FreeRTOS/source/timers.c ****     }
 1289              		.loc 1 429 9 view .LVU393
 430:Middlewares/FreeRTOS/source/timers.c **** /*-----------------------------------------------------------*/
 1290              		.loc 1 430 5 is_stmt 0 view .LVU394
 1291 0042 05B0     		add	sp, sp, #20
 1292              		.cfi_remember_state
 1293              		.cfi_def_cfa_offset 12
 1294              		@ sp needed
 1295 0044 30BD     		pop	{r4, r5, pc}
 1296              	.LVL104:
 1297              	.L120:
 1298              		.cfi_restore_state
 410:Middlewares/FreeRTOS/source/timers.c ****                 }
 1299              		.loc 1 410 21 is_stmt 1 view .LVU395
ARM GAS  /tmp/ccIlBc3y.s 			page 48


 410:Middlewares/FreeRTOS/source/timers.c ****                 }
 1300              		.loc 1 410 31 is_stmt 0 view .LVU396
 1301 0046 6946     		mov	r1, sp
 1302 0048 089A     		ldr	r2, [sp, #32]
 1303 004a 2868     		ldr	r0, [r5]
 1304 004c FFF7FEFF 		bl	xQueueGenericSend
 1305              	.LVL105:
 430:Middlewares/FreeRTOS/source/timers.c **** /*-----------------------------------------------------------*/
 1306              		.loc 1 430 5 view .LVU397
 1307 0050 05B0     		add	sp, sp, #20
 1308              		.cfi_def_cfa_offset 12
 1309              		@ sp needed
 1310 0052 30BD     		pop	{r4, r5, pc}
 1311              	.LVL106:
 1312              	.L122:
 430:Middlewares/FreeRTOS/source/timers.c **** /*-----------------------------------------------------------*/
 1313              		.loc 1 430 5 view .LVU398
 1314              		.align	2
 1315              	.L121:
 1316 0054 00000000 		.word	.LANCHOR0
 1317              		.cfi_endproc
 1318              	.LFE811:
 1320              		.section	.text.xTimerGetTimerDaemonTaskHandle,"ax",%progbits
 1321              		.align	1
 1322              		.p2align 2,,3
 1323              		.global	xTimerGetTimerDaemonTaskHandle
 1324              		.syntax unified
 1325              		.thumb
 1326              		.thumb_func
 1327              		.fpu fpv5-d16
 1329              	xTimerGetTimerDaemonTaskHandle:
 1330              	.LFB812:
 434:Middlewares/FreeRTOS/source/timers.c ****         /* If xTimerGetTimerDaemonTaskHandle() is called before the scheduler has been
 1331              		.loc 1 434 5 is_stmt 1 view -0
 1332              		.cfi_startproc
 1333              		@ args = 0, pretend = 0, frame = 0
 1334              		@ frame_needed = 0, uses_anonymous_args = 0
 1335              		@ link register save eliminated.
 437:Middlewares/FreeRTOS/source/timers.c ****         return xTimerTaskHandle;
 1336              		.loc 1 437 53 view .LVU400
 438:Middlewares/FreeRTOS/source/timers.c ****     }
 1337              		.loc 1 438 9 view .LVU401
 438:Middlewares/FreeRTOS/source/timers.c ****     }
 1338              		.loc 1 438 16 is_stmt 0 view .LVU402
 1339 0000 014B     		ldr	r3, .L124
 439:Middlewares/FreeRTOS/source/timers.c **** /*-----------------------------------------------------------*/
 1340              		.loc 1 439 5 view .LVU403
 1341 0002 1868     		ldr	r0, [r3]
 1342 0004 7047     		bx	lr
 1343              	.L125:
 1344 0006 00BF     		.align	2
 1345              	.L124:
 1346 0008 00000000 		.word	.LANCHOR6
 1347              		.cfi_endproc
 1348              	.LFE812:
 1350              		.section	.text.xTimerGetPeriod,"ax",%progbits
 1351              		.align	1
ARM GAS  /tmp/ccIlBc3y.s 			page 49


 1352              		.p2align 2,,3
 1353              		.global	xTimerGetPeriod
 1354              		.syntax unified
 1355              		.thumb
 1356              		.thumb_func
 1357              		.fpu fpv5-d16
 1359              	xTimerGetPeriod:
 1360              	.LVL107:
 1361              	.LFB813:
 443:Middlewares/FreeRTOS/source/timers.c ****         Timer_t * pxTimer = xTimer;
 1362              		.loc 1 443 5 is_stmt 1 view -0
 1363              		.cfi_startproc
 1364              		@ args = 0, pretend = 0, frame = 0
 1365              		@ frame_needed = 0, uses_anonymous_args = 0
 1366              		@ link register save eliminated.
 444:Middlewares/FreeRTOS/source/timers.c **** 
 1367              		.loc 1 444 9 view .LVU405
 446:Middlewares/FreeRTOS/source/timers.c ****         return pxTimer->xTimerPeriodInTicks;
 1368              		.loc 1 446 31 view .LVU406
 447:Middlewares/FreeRTOS/source/timers.c ****     }
 1369              		.loc 1 447 9 view .LVU407
 448:Middlewares/FreeRTOS/source/timers.c **** /*-----------------------------------------------------------*/
 1370              		.loc 1 448 5 is_stmt 0 view .LVU408
 1371 0000 8069     		ldr	r0, [r0, #24]
 1372              	.LVL108:
 448:Middlewares/FreeRTOS/source/timers.c **** /*-----------------------------------------------------------*/
 1373              		.loc 1 448 5 view .LVU409
 1374 0002 7047     		bx	lr
 1375              		.cfi_endproc
 1376              	.LFE813:
 1378              		.section	.text.vTimerSetReloadMode,"ax",%progbits
 1379              		.align	1
 1380              		.p2align 2,,3
 1381              		.global	vTimerSetReloadMode
 1382              		.syntax unified
 1383              		.thumb
 1384              		.thumb_func
 1385              		.fpu fpv5-d16
 1387              	vTimerSetReloadMode:
 1388              	.LVL109:
 1389              	.LFB814:
 453:Middlewares/FreeRTOS/source/timers.c ****         Timer_t * pxTimer = xTimer;
 1390              		.loc 1 453 5 is_stmt 1 view -0
 1391              		.cfi_startproc
 1392              		@ args = 0, pretend = 0, frame = 0
 1393              		@ frame_needed = 0, uses_anonymous_args = 0
 454:Middlewares/FreeRTOS/source/timers.c **** 
 1394              		.loc 1 454 9 view .LVU411
 453:Middlewares/FreeRTOS/source/timers.c ****         Timer_t * pxTimer = xTimer;
 1395              		.loc 1 453 5 is_stmt 0 view .LVU412
 1396 0000 38B5     		push	{r3, r4, r5, lr}
 1397              		.cfi_def_cfa_offset 16
 1398              		.cfi_offset 3, -16
 1399              		.cfi_offset 4, -12
 1400              		.cfi_offset 5, -8
 1401              		.cfi_offset 14, -4
 453:Middlewares/FreeRTOS/source/timers.c ****         Timer_t * pxTimer = xTimer;
ARM GAS  /tmp/ccIlBc3y.s 			page 50


 1402              		.loc 1 453 5 view .LVU413
 1403 0002 0446     		mov	r4, r0
 1404              	.LVL110:
 456:Middlewares/FreeRTOS/source/timers.c ****         taskENTER_CRITICAL();
 1405              		.loc 1 456 31 is_stmt 1 view .LVU414
 457:Middlewares/FreeRTOS/source/timers.c ****         {
 1406              		.loc 1 457 9 view .LVU415
 453:Middlewares/FreeRTOS/source/timers.c ****         Timer_t * pxTimer = xTimer;
 1407              		.loc 1 453 5 is_stmt 0 view .LVU416
 1408 0004 0D46     		mov	r5, r1
 457:Middlewares/FreeRTOS/source/timers.c ****         {
 1409              		.loc 1 457 9 view .LVU417
 1410 0006 FFF7FEFF 		bl	vPortEnterCritical
 1411              	.LVL111:
 459:Middlewares/FreeRTOS/source/timers.c ****             {
 1412              		.loc 1 459 13 is_stmt 1 view .LVU418
 461:Middlewares/FreeRTOS/source/timers.c ****             }
 1413              		.loc 1 461 35 is_stmt 0 view .LVU419
 1414 000a 94F82830 		ldrb	r3, [r4, #40]	@ zero_extendqisi2
 459:Middlewares/FreeRTOS/source/timers.c ****             {
 1415              		.loc 1 459 15 view .LVU420
 1416 000e 3DB1     		cbz	r5, .L128
 461:Middlewares/FreeRTOS/source/timers.c ****             }
 1417              		.loc 1 461 17 is_stmt 1 view .LVU421
 461:Middlewares/FreeRTOS/source/timers.c ****             }
 1418              		.loc 1 461 35 is_stmt 0 view .LVU422
 1419 0010 43F00403 		orr	r3, r3, #4
 1420 0014 84F82830 		strb	r3, [r4, #40]
 468:Middlewares/FreeRTOS/source/timers.c ****     }
 1421              		.loc 1 468 9 is_stmt 1 view .LVU423
 469:Middlewares/FreeRTOS/source/timers.c **** /*-----------------------------------------------------------*/
 1422              		.loc 1 469 5 is_stmt 0 view .LVU424
 1423 0018 BDE83840 		pop	{r3, r4, r5, lr}
 1424              		.cfi_remember_state
 1425              		.cfi_restore 14
 1426              		.cfi_restore 5
 1427              		.cfi_restore 4
 1428              		.cfi_restore 3
 1429              		.cfi_def_cfa_offset 0
 1430              	.LVL112:
 468:Middlewares/FreeRTOS/source/timers.c ****     }
 1431              		.loc 1 468 9 view .LVU425
 1432 001c FFF7FEBF 		b	vPortExitCritical
 1433              	.LVL113:
 1434              	.L128:
 1435              		.cfi_restore_state
 465:Middlewares/FreeRTOS/source/timers.c ****             }
 1436              		.loc 1 465 17 is_stmt 1 view .LVU426
 465:Middlewares/FreeRTOS/source/timers.c ****             }
 1437              		.loc 1 465 35 is_stmt 0 view .LVU427
 1438 0020 03F0FB03 		and	r3, r3, #251
 1439 0024 84F82830 		strb	r3, [r4, #40]
 468:Middlewares/FreeRTOS/source/timers.c ****     }
 1440              		.loc 1 468 9 is_stmt 1 view .LVU428
 469:Middlewares/FreeRTOS/source/timers.c **** /*-----------------------------------------------------------*/
 1441              		.loc 1 469 5 is_stmt 0 view .LVU429
 1442 0028 BDE83840 		pop	{r3, r4, r5, lr}
ARM GAS  /tmp/ccIlBc3y.s 			page 51


 1443              		.cfi_restore 14
 1444              		.cfi_restore 5
 1445              		.cfi_restore 4
 1446              		.cfi_restore 3
 1447              		.cfi_def_cfa_offset 0
 1448              	.LVL114:
 468:Middlewares/FreeRTOS/source/timers.c ****     }
 1449              		.loc 1 468 9 view .LVU430
 1450 002c FFF7FEBF 		b	vPortExitCritical
 1451              	.LVL115:
 1452              		.cfi_endproc
 1453              	.LFE814:
 1455              		.section	.text.xTimerGetReloadMode,"ax",%progbits
 1456              		.align	1
 1457              		.p2align 2,,3
 1458              		.global	xTimerGetReloadMode
 1459              		.syntax unified
 1460              		.thumb
 1461              		.thumb_func
 1462              		.fpu fpv5-d16
 1464              	xTimerGetReloadMode:
 1465              	.LVL116:
 1466              	.LFB815:
 473:Middlewares/FreeRTOS/source/timers.c ****         Timer_t * pxTimer = xTimer;
 1467              		.loc 1 473 5 is_stmt 1 view -0
 1468              		.cfi_startproc
 1469              		@ args = 0, pretend = 0, frame = 8
 1470              		@ frame_needed = 0, uses_anonymous_args = 0
 474:Middlewares/FreeRTOS/source/timers.c ****         BaseType_t xReturn;
 1471              		.loc 1 474 9 view .LVU432
 473:Middlewares/FreeRTOS/source/timers.c ****         Timer_t * pxTimer = xTimer;
 1472              		.loc 1 473 5 is_stmt 0 view .LVU433
 1473 0000 10B5     		push	{r4, lr}
 1474              		.cfi_def_cfa_offset 8
 1475              		.cfi_offset 4, -8
 1476              		.cfi_offset 14, -4
 1477 0002 0446     		mov	r4, r0
 1478              	.LVL117:
 475:Middlewares/FreeRTOS/source/timers.c **** 
 1479              		.loc 1 475 9 is_stmt 1 view .LVU434
 477:Middlewares/FreeRTOS/source/timers.c ****         taskENTER_CRITICAL();
 1480              		.loc 1 477 31 view .LVU435
 478:Middlewares/FreeRTOS/source/timers.c ****         {
 1481              		.loc 1 478 9 view .LVU436
 473:Middlewares/FreeRTOS/source/timers.c ****         Timer_t * pxTimer = xTimer;
 1482              		.loc 1 473 5 is_stmt 0 view .LVU437
 1483 0004 82B0     		sub	sp, sp, #8
 1484              		.cfi_def_cfa_offset 16
 478:Middlewares/FreeRTOS/source/timers.c ****         {
 1485              		.loc 1 478 9 view .LVU438
 1486 0006 FFF7FEFF 		bl	vPortEnterCritical
 1487              	.LVL118:
 480:Middlewares/FreeRTOS/source/timers.c ****             {
 1488              		.loc 1 480 13 is_stmt 1 view .LVU439
 480:Middlewares/FreeRTOS/source/timers.c ****             {
 1489              		.loc 1 480 15 is_stmt 0 view .LVU440
 1490 000a 94F82800 		ldrb	r0, [r4, #40]	@ zero_extendqisi2
ARM GAS  /tmp/ccIlBc3y.s 			page 52


 1491 000e C0F38000 		ubfx	r0, r0, #2, #1
 1492 0012 0190     		str	r0, [sp, #4]
 1493              	.LVL119:
 491:Middlewares/FreeRTOS/source/timers.c **** 
 1494              		.loc 1 491 9 is_stmt 1 view .LVU441
 1495 0014 FFF7FEFF 		bl	vPortExitCritical
 1496              	.LVL120:
 493:Middlewares/FreeRTOS/source/timers.c ****     }
 1497              		.loc 1 493 9 view .LVU442
 494:Middlewares/FreeRTOS/source/timers.c **** 
 1498              		.loc 1 494 5 is_stmt 0 view .LVU443
 1499 0018 0198     		ldr	r0, [sp, #4]
 1500 001a 02B0     		add	sp, sp, #8
 1501              		.cfi_def_cfa_offset 8
 1502              		@ sp needed
 1503 001c 10BD     		pop	{r4, pc}
 494:Middlewares/FreeRTOS/source/timers.c **** 
 1504              		.loc 1 494 5 view .LVU444
 1505              		.cfi_endproc
 1506              	.LFE815:
 1508 001e 00BF     		.section	.text.uxTimerGetReloadMode,"ax",%progbits
 1509              		.align	1
 1510              		.p2align 2,,3
 1511              		.global	uxTimerGetReloadMode
 1512              		.syntax unified
 1513              		.thumb
 1514              		.thumb_func
 1515              		.fpu fpv5-d16
 1517              	uxTimerGetReloadMode:
 1518              	.LVL121:
 1519              	.LFB816:
 497:Middlewares/FreeRTOS/source/timers.c ****         return ( UBaseType_t ) xTimerGetReloadMode( xTimer );
 1520              		.loc 1 497 5 is_stmt 1 view -0
 1521              		.cfi_startproc
 1522              		@ args = 0, pretend = 0, frame = 8
 1523              		@ frame_needed = 0, uses_anonymous_args = 0
 498:Middlewares/FreeRTOS/source/timers.c ****     }
 1524              		.loc 1 498 9 view .LVU446
 497:Middlewares/FreeRTOS/source/timers.c ****         return ( UBaseType_t ) xTimerGetReloadMode( xTimer );
 1525              		.loc 1 497 5 is_stmt 0 view .LVU447
 1526 0000 10B5     		push	{r4, lr}
 1527              		.cfi_def_cfa_offset 8
 1528              		.cfi_offset 4, -8
 1529              		.cfi_offset 14, -4
 1530 0002 0446     		mov	r4, r0
 1531              	.LVL122:
 1532              	.LBB107:
 1533              	.LBI107:
 472:Middlewares/FreeRTOS/source/timers.c ****     {
 1534              		.loc 1 472 16 is_stmt 1 view .LVU448
 1535              	.LBB108:
 474:Middlewares/FreeRTOS/source/timers.c ****         BaseType_t xReturn;
 1536              		.loc 1 474 9 view .LVU449
 475:Middlewares/FreeRTOS/source/timers.c **** 
 1537              		.loc 1 475 9 view .LVU450
 477:Middlewares/FreeRTOS/source/timers.c ****         taskENTER_CRITICAL();
 1538              		.loc 1 477 31 view .LVU451
ARM GAS  /tmp/ccIlBc3y.s 			page 53


 478:Middlewares/FreeRTOS/source/timers.c ****         {
 1539              		.loc 1 478 9 view .LVU452
 1540              	.LBE108:
 1541              	.LBE107:
 497:Middlewares/FreeRTOS/source/timers.c ****         return ( UBaseType_t ) xTimerGetReloadMode( xTimer );
 1542              		.loc 1 497 5 is_stmt 0 view .LVU453
 1543 0004 82B0     		sub	sp, sp, #8
 1544              		.cfi_def_cfa_offset 16
 1545              	.LBB110:
 1546              	.LBB109:
 478:Middlewares/FreeRTOS/source/timers.c ****         {
 1547              		.loc 1 478 9 view .LVU454
 1548 0006 FFF7FEFF 		bl	vPortEnterCritical
 1549              	.LVL123:
 480:Middlewares/FreeRTOS/source/timers.c ****             {
 1550              		.loc 1 480 13 is_stmt 1 view .LVU455
 480:Middlewares/FreeRTOS/source/timers.c ****             {
 1551              		.loc 1 480 15 is_stmt 0 view .LVU456
 1552 000a 94F82800 		ldrb	r0, [r4, #40]	@ zero_extendqisi2
 1553 000e C0F38000 		ubfx	r0, r0, #2, #1
 1554 0012 0190     		str	r0, [sp, #4]
 1555              	.LVL124:
 491:Middlewares/FreeRTOS/source/timers.c **** 
 1556              		.loc 1 491 9 is_stmt 1 view .LVU457
 1557 0014 FFF7FEFF 		bl	vPortExitCritical
 1558              	.LVL125:
 493:Middlewares/FreeRTOS/source/timers.c ****     }
 1559              		.loc 1 493 9 view .LVU458
 493:Middlewares/FreeRTOS/source/timers.c ****     }
 1560              		.loc 1 493 9 is_stmt 0 view .LVU459
 1561              	.LBE109:
 1562              	.LBE110:
 499:Middlewares/FreeRTOS/source/timers.c **** /*-----------------------------------------------------------*/
 1563              		.loc 1 499 5 view .LVU460
 1564 0018 0198     		ldr	r0, [sp, #4]
 1565 001a 02B0     		add	sp, sp, #8
 1566              		.cfi_def_cfa_offset 8
 1567              		@ sp needed
 1568 001c 10BD     		pop	{r4, pc}
 499:Middlewares/FreeRTOS/source/timers.c **** /*-----------------------------------------------------------*/
 1569              		.loc 1 499 5 view .LVU461
 1570              		.cfi_endproc
 1571              	.LFE816:
 1573 001e 00BF     		.section	.text.xTimerGetExpiryTime,"ax",%progbits
 1574              		.align	1
 1575              		.p2align 2,,3
 1576              		.global	xTimerGetExpiryTime
 1577              		.syntax unified
 1578              		.thumb
 1579              		.thumb_func
 1580              		.fpu fpv5-d16
 1582              	xTimerGetExpiryTime:
 1583              	.LVL126:
 1584              	.LFB817:
 503:Middlewares/FreeRTOS/source/timers.c ****         Timer_t * pxTimer = xTimer;
 1585              		.loc 1 503 5 is_stmt 1 view -0
 1586              		.cfi_startproc
ARM GAS  /tmp/ccIlBc3y.s 			page 54


 1587              		@ args = 0, pretend = 0, frame = 0
 1588              		@ frame_needed = 0, uses_anonymous_args = 0
 1589              		@ link register save eliminated.
 504:Middlewares/FreeRTOS/source/timers.c ****         TickType_t xReturn;
 1590              		.loc 1 504 9 view .LVU463
 505:Middlewares/FreeRTOS/source/timers.c **** 
 1591              		.loc 1 505 9 view .LVU464
 507:Middlewares/FreeRTOS/source/timers.c ****         xReturn = listGET_LIST_ITEM_VALUE( &( pxTimer->xTimerListItem ) );
 1592              		.loc 1 507 31 view .LVU465
 508:Middlewares/FreeRTOS/source/timers.c ****         return xReturn;
 1593              		.loc 1 508 9 view .LVU466
 509:Middlewares/FreeRTOS/source/timers.c ****     }
 1594              		.loc 1 509 9 view .LVU467
 510:Middlewares/FreeRTOS/source/timers.c **** /*-----------------------------------------------------------*/
 1595              		.loc 1 510 5 is_stmt 0 view .LVU468
 1596 0000 4068     		ldr	r0, [r0, #4]
 1597              	.LVL127:
 510:Middlewares/FreeRTOS/source/timers.c **** /*-----------------------------------------------------------*/
 1598              		.loc 1 510 5 view .LVU469
 1599 0002 7047     		bx	lr
 1600              		.cfi_endproc
 1601              	.LFE817:
 1603              		.section	.text.pcTimerGetName,"ax",%progbits
 1604              		.align	1
 1605              		.p2align 2,,3
 1606              		.global	pcTimerGetName
 1607              		.syntax unified
 1608              		.thumb
 1609              		.thumb_func
 1610              		.fpu fpv5-d16
 1612              	pcTimerGetName:
 1613              	.LVL128:
 1614              	.LFB818:
 538:Middlewares/FreeRTOS/source/timers.c ****         Timer_t * pxTimer = xTimer;
 1615              		.loc 1 538 5 is_stmt 1 view -0
 1616              		.cfi_startproc
 1617              		@ args = 0, pretend = 0, frame = 0
 1618              		@ frame_needed = 0, uses_anonymous_args = 0
 1619              		@ link register save eliminated.
 539:Middlewares/FreeRTOS/source/timers.c **** 
 1620              		.loc 1 539 9 view .LVU471
 541:Middlewares/FreeRTOS/source/timers.c ****         return pxTimer->pcTimerName;
 1621              		.loc 1 541 31 view .LVU472
 542:Middlewares/FreeRTOS/source/timers.c ****     }
 1622              		.loc 1 542 9 view .LVU473
 543:Middlewares/FreeRTOS/source/timers.c **** /*-----------------------------------------------------------*/
 1623              		.loc 1 543 5 is_stmt 0 view .LVU474
 1624 0000 0068     		ldr	r0, [r0]
 1625              	.LVL129:
 543:Middlewares/FreeRTOS/source/timers.c **** /*-----------------------------------------------------------*/
 1626              		.loc 1 543 5 view .LVU475
 1627 0002 7047     		bx	lr
 1628              		.cfi_endproc
 1629              	.LFE818:
 1631              		.section	.text.xTimerIsTimerActive,"ax",%progbits
 1632              		.align	1
 1633              		.p2align 2,,3
ARM GAS  /tmp/ccIlBc3y.s 			page 55


 1634              		.global	xTimerIsTimerActive
 1635              		.syntax unified
 1636              		.thumb
 1637              		.thumb_func
 1638              		.fpu fpv5-d16
 1640              	xTimerIsTimerActive:
 1641              	.LVL130:
 1642              	.LFB829:
1004:Middlewares/FreeRTOS/source/timers.c **** /*-----------------------------------------------------------*/
1005:Middlewares/FreeRTOS/source/timers.c **** 
1006:Middlewares/FreeRTOS/source/timers.c ****     BaseType_t xTimerIsTimerActive( TimerHandle_t xTimer )
1007:Middlewares/FreeRTOS/source/timers.c ****     {
 1643              		.loc 1 1007 5 is_stmt 1 view -0
 1644              		.cfi_startproc
 1645              		@ args = 0, pretend = 0, frame = 8
 1646              		@ frame_needed = 0, uses_anonymous_args = 0
1008:Middlewares/FreeRTOS/source/timers.c ****         BaseType_t xReturn;
 1647              		.loc 1 1008 9 view .LVU477
1009:Middlewares/FreeRTOS/source/timers.c ****         Timer_t * pxTimer = xTimer;
 1648              		.loc 1 1009 9 view .LVU478
1007:Middlewares/FreeRTOS/source/timers.c ****         BaseType_t xReturn;
 1649              		.loc 1 1007 5 is_stmt 0 view .LVU479
 1650 0000 10B5     		push	{r4, lr}
 1651              		.cfi_def_cfa_offset 8
 1652              		.cfi_offset 4, -8
 1653              		.cfi_offset 14, -4
 1654 0002 0446     		mov	r4, r0
 1655              	.LVL131:
1010:Middlewares/FreeRTOS/source/timers.c **** 
1011:Middlewares/FreeRTOS/source/timers.c ****         configASSERT( xTimer );
 1656              		.loc 1 1011 31 is_stmt 1 view .LVU480
1012:Middlewares/FreeRTOS/source/timers.c **** 
1013:Middlewares/FreeRTOS/source/timers.c ****         /* Is the timer in the list of active timers? */
1014:Middlewares/FreeRTOS/source/timers.c ****         taskENTER_CRITICAL();
 1657              		.loc 1 1014 9 view .LVU481
1007:Middlewares/FreeRTOS/source/timers.c ****         BaseType_t xReturn;
 1658              		.loc 1 1007 5 is_stmt 0 view .LVU482
 1659 0004 82B0     		sub	sp, sp, #8
 1660              		.cfi_def_cfa_offset 16
 1661              		.loc 1 1014 9 view .LVU483
 1662 0006 FFF7FEFF 		bl	vPortEnterCritical
 1663              	.LVL132:
1015:Middlewares/FreeRTOS/source/timers.c ****         {
1016:Middlewares/FreeRTOS/source/timers.c ****             if( ( pxTimer->ucStatus & tmrSTATUS_IS_ACTIVE ) == 0 )
 1664              		.loc 1 1016 13 is_stmt 1 view .LVU484
 1665              		.loc 1 1016 15 is_stmt 0 view .LVU485
 1666 000a 94F82800 		ldrb	r0, [r4, #40]	@ zero_extendqisi2
 1667 000e 00F00100 		and	r0, r0, #1
 1668 0012 0190     		str	r0, [sp, #4]
 1669              	.LVL133:
1017:Middlewares/FreeRTOS/source/timers.c ****             {
1018:Middlewares/FreeRTOS/source/timers.c ****                 xReturn = pdFALSE;
1019:Middlewares/FreeRTOS/source/timers.c ****             }
1020:Middlewares/FreeRTOS/source/timers.c ****             else
1021:Middlewares/FreeRTOS/source/timers.c ****             {
1022:Middlewares/FreeRTOS/source/timers.c ****                 xReturn = pdTRUE;
1023:Middlewares/FreeRTOS/source/timers.c ****             }
ARM GAS  /tmp/ccIlBc3y.s 			page 56


1024:Middlewares/FreeRTOS/source/timers.c ****         }
1025:Middlewares/FreeRTOS/source/timers.c ****         taskEXIT_CRITICAL();
 1670              		.loc 1 1025 9 is_stmt 1 view .LVU486
 1671 0014 FFF7FEFF 		bl	vPortExitCritical
 1672              	.LVL134:
1026:Middlewares/FreeRTOS/source/timers.c **** 
1027:Middlewares/FreeRTOS/source/timers.c ****         return xReturn;
 1673              		.loc 1 1027 9 view .LVU487
1028:Middlewares/FreeRTOS/source/timers.c ****     } /*lint !e818 Can't be pointer to const due to the typedef. */
 1674              		.loc 1 1028 5 is_stmt 0 view .LVU488
 1675 0018 0198     		ldr	r0, [sp, #4]
 1676 001a 02B0     		add	sp, sp, #8
 1677              		.cfi_def_cfa_offset 8
 1678              		@ sp needed
 1679 001c 10BD     		pop	{r4, pc}
 1680              		.loc 1 1028 5 view .LVU489
 1681              		.cfi_endproc
 1682              	.LFE829:
 1684 001e 00BF     		.section	.text.pvTimerGetTimerID,"ax",%progbits
 1685              		.align	1
 1686              		.p2align 2,,3
 1687              		.global	pvTimerGetTimerID
 1688              		.syntax unified
 1689              		.thumb
 1690              		.thumb_func
 1691              		.fpu fpv5-d16
 1693              	pvTimerGetTimerID:
 1694              	.LVL135:
 1695              	.LFB830:
1029:Middlewares/FreeRTOS/source/timers.c **** /*-----------------------------------------------------------*/
1030:Middlewares/FreeRTOS/source/timers.c **** 
1031:Middlewares/FreeRTOS/source/timers.c ****     void * pvTimerGetTimerID( const TimerHandle_t xTimer )
1032:Middlewares/FreeRTOS/source/timers.c ****     {
 1696              		.loc 1 1032 5 is_stmt 1 view -0
 1697              		.cfi_startproc
 1698              		@ args = 0, pretend = 0, frame = 8
 1699              		@ frame_needed = 0, uses_anonymous_args = 0
1033:Middlewares/FreeRTOS/source/timers.c ****         Timer_t * const pxTimer = xTimer;
 1700              		.loc 1 1033 9 view .LVU491
1032:Middlewares/FreeRTOS/source/timers.c ****         Timer_t * const pxTimer = xTimer;
 1701              		.loc 1 1032 5 is_stmt 0 view .LVU492
 1702 0000 10B5     		push	{r4, lr}
 1703              		.cfi_def_cfa_offset 8
 1704              		.cfi_offset 4, -8
 1705              		.cfi_offset 14, -4
 1706 0002 0446     		mov	r4, r0
 1707              	.LVL136:
1034:Middlewares/FreeRTOS/source/timers.c ****         void * pvReturn;
 1708              		.loc 1 1034 9 is_stmt 1 view .LVU493
1035:Middlewares/FreeRTOS/source/timers.c **** 
1036:Middlewares/FreeRTOS/source/timers.c ****         configASSERT( xTimer );
 1709              		.loc 1 1036 31 view .LVU494
1037:Middlewares/FreeRTOS/source/timers.c **** 
1038:Middlewares/FreeRTOS/source/timers.c ****         taskENTER_CRITICAL();
 1710              		.loc 1 1038 9 view .LVU495
1032:Middlewares/FreeRTOS/source/timers.c ****         Timer_t * const pxTimer = xTimer;
 1711              		.loc 1 1032 5 is_stmt 0 view .LVU496
ARM GAS  /tmp/ccIlBc3y.s 			page 57


 1712 0004 82B0     		sub	sp, sp, #8
 1713              		.cfi_def_cfa_offset 16
 1714              		.loc 1 1038 9 view .LVU497
 1715 0006 FFF7FEFF 		bl	vPortEnterCritical
 1716              	.LVL137:
1039:Middlewares/FreeRTOS/source/timers.c ****         {
1040:Middlewares/FreeRTOS/source/timers.c ****             pvReturn = pxTimer->pvTimerID;
 1717              		.loc 1 1040 13 is_stmt 1 view .LVU498
 1718              		.loc 1 1040 22 is_stmt 0 view .LVU499
 1719 000a E069     		ldr	r0, [r4, #28]
 1720 000c 0190     		str	r0, [sp, #4]
 1721              	.LVL138:
1041:Middlewares/FreeRTOS/source/timers.c ****         }
1042:Middlewares/FreeRTOS/source/timers.c ****         taskEXIT_CRITICAL();
 1722              		.loc 1 1042 9 is_stmt 1 view .LVU500
 1723 000e FFF7FEFF 		bl	vPortExitCritical
 1724              	.LVL139:
1043:Middlewares/FreeRTOS/source/timers.c **** 
1044:Middlewares/FreeRTOS/source/timers.c ****         return pvReturn;
 1725              		.loc 1 1044 9 view .LVU501
1045:Middlewares/FreeRTOS/source/timers.c ****     }
 1726              		.loc 1 1045 5 is_stmt 0 view .LVU502
 1727 0012 0198     		ldr	r0, [sp, #4]
 1728 0014 02B0     		add	sp, sp, #8
 1729              		.cfi_def_cfa_offset 8
 1730              		@ sp needed
 1731 0016 10BD     		pop	{r4, pc}
 1732              		.loc 1 1045 5 view .LVU503
 1733              		.cfi_endproc
 1734              	.LFE830:
 1736              		.section	.text.vTimerSetTimerID,"ax",%progbits
 1737              		.align	1
 1738              		.p2align 2,,3
 1739              		.global	vTimerSetTimerID
 1740              		.syntax unified
 1741              		.thumb
 1742              		.thumb_func
 1743              		.fpu fpv5-d16
 1745              	vTimerSetTimerID:
 1746              	.LVL140:
 1747              	.LFB831:
1046:Middlewares/FreeRTOS/source/timers.c **** /*-----------------------------------------------------------*/
1047:Middlewares/FreeRTOS/source/timers.c **** 
1048:Middlewares/FreeRTOS/source/timers.c ****     void vTimerSetTimerID( TimerHandle_t xTimer,
1049:Middlewares/FreeRTOS/source/timers.c ****                            void * pvNewID )
1050:Middlewares/FreeRTOS/source/timers.c ****     {
 1748              		.loc 1 1050 5 is_stmt 1 view -0
 1749              		.cfi_startproc
 1750              		@ args = 0, pretend = 0, frame = 0
 1751              		@ frame_needed = 0, uses_anonymous_args = 0
1051:Middlewares/FreeRTOS/source/timers.c ****         Timer_t * const pxTimer = xTimer;
 1752              		.loc 1 1051 9 view .LVU505
1050:Middlewares/FreeRTOS/source/timers.c ****         Timer_t * const pxTimer = xTimer;
 1753              		.loc 1 1050 5 is_stmt 0 view .LVU506
 1754 0000 38B5     		push	{r3, r4, r5, lr}
 1755              		.cfi_def_cfa_offset 16
 1756              		.cfi_offset 3, -16
ARM GAS  /tmp/ccIlBc3y.s 			page 58


 1757              		.cfi_offset 4, -12
 1758              		.cfi_offset 5, -8
 1759              		.cfi_offset 14, -4
1050:Middlewares/FreeRTOS/source/timers.c ****         Timer_t * const pxTimer = xTimer;
 1760              		.loc 1 1050 5 view .LVU507
 1761 0002 0446     		mov	r4, r0
 1762              	.LVL141:
1052:Middlewares/FreeRTOS/source/timers.c **** 
1053:Middlewares/FreeRTOS/source/timers.c ****         configASSERT( xTimer );
 1763              		.loc 1 1053 31 is_stmt 1 view .LVU508
1054:Middlewares/FreeRTOS/source/timers.c **** 
1055:Middlewares/FreeRTOS/source/timers.c ****         taskENTER_CRITICAL();
 1764              		.loc 1 1055 9 view .LVU509
1050:Middlewares/FreeRTOS/source/timers.c ****         Timer_t * const pxTimer = xTimer;
 1765              		.loc 1 1050 5 is_stmt 0 view .LVU510
 1766 0004 0D46     		mov	r5, r1
 1767              		.loc 1 1055 9 view .LVU511
 1768 0006 FFF7FEFF 		bl	vPortEnterCritical
 1769              	.LVL142:
1056:Middlewares/FreeRTOS/source/timers.c ****         {
1057:Middlewares/FreeRTOS/source/timers.c ****             pxTimer->pvTimerID = pvNewID;
 1770              		.loc 1 1057 13 is_stmt 1 view .LVU512
 1771              		.loc 1 1057 32 is_stmt 0 view .LVU513
 1772 000a E561     		str	r5, [r4, #28]
1058:Middlewares/FreeRTOS/source/timers.c ****         }
1059:Middlewares/FreeRTOS/source/timers.c ****         taskEXIT_CRITICAL();
 1773              		.loc 1 1059 9 is_stmt 1 view .LVU514
1060:Middlewares/FreeRTOS/source/timers.c ****     }
 1774              		.loc 1 1060 5 is_stmt 0 view .LVU515
 1775 000c BDE83840 		pop	{r3, r4, r5, lr}
 1776              		.cfi_restore 14
 1777              		.cfi_restore 5
 1778              		.cfi_restore 4
 1779              		.cfi_restore 3
 1780              		.cfi_def_cfa_offset 0
 1781              	.LVL143:
1059:Middlewares/FreeRTOS/source/timers.c ****     }
 1782              		.loc 1 1059 9 view .LVU516
 1783 0010 FFF7FEBF 		b	vPortExitCritical
 1784              	.LVL144:
1059:Middlewares/FreeRTOS/source/timers.c ****     }
 1785              		.loc 1 1059 9 view .LVU517
 1786              		.cfi_endproc
 1787              	.LFE831:
 1789              		.section	.text.xTimerPendFunctionCallFromISR,"ax",%progbits
 1790              		.align	1
 1791              		.p2align 2,,3
 1792              		.global	xTimerPendFunctionCallFromISR
 1793              		.syntax unified
 1794              		.thumb
 1795              		.thumb_func
 1796              		.fpu fpv5-d16
 1798              	xTimerPendFunctionCallFromISR:
 1799              	.LVL145:
 1800              	.LFB832:
1061:Middlewares/FreeRTOS/source/timers.c **** /*-----------------------------------------------------------*/
1062:Middlewares/FreeRTOS/source/timers.c **** 
ARM GAS  /tmp/ccIlBc3y.s 			page 59


1063:Middlewares/FreeRTOS/source/timers.c ****     #if ( INCLUDE_xTimerPendFunctionCall == 1 )
1064:Middlewares/FreeRTOS/source/timers.c **** 
1065:Middlewares/FreeRTOS/source/timers.c ****         BaseType_t xTimerPendFunctionCallFromISR( PendedFunction_t xFunctionToPend,
1066:Middlewares/FreeRTOS/source/timers.c ****                                                   void * pvParameter1,
1067:Middlewares/FreeRTOS/source/timers.c ****                                                   uint32_t ulParameter2,
1068:Middlewares/FreeRTOS/source/timers.c ****                                                   BaseType_t * pxHigherPriorityTaskWoken )
1069:Middlewares/FreeRTOS/source/timers.c ****         {
 1801              		.loc 1 1069 9 is_stmt 1 view -0
 1802              		.cfi_startproc
 1803              		@ args = 0, pretend = 0, frame = 16
 1804              		@ frame_needed = 0, uses_anonymous_args = 0
1070:Middlewares/FreeRTOS/source/timers.c ****             DaemonTaskMessage_t xMessage;
 1805              		.loc 1 1070 13 view .LVU519
1071:Middlewares/FreeRTOS/source/timers.c ****             BaseType_t xReturn;
 1806              		.loc 1 1071 13 view .LVU520
1072:Middlewares/FreeRTOS/source/timers.c **** 
1073:Middlewares/FreeRTOS/source/timers.c ****             /* Complete the message with the function parameters and post it to the
1074:Middlewares/FreeRTOS/source/timers.c ****              * daemon task. */
1075:Middlewares/FreeRTOS/source/timers.c ****             xMessage.xMessageID = tmrCOMMAND_EXECUTE_CALLBACK_FROM_ISR;
 1807              		.loc 1 1075 13 view .LVU521
1069:Middlewares/FreeRTOS/source/timers.c ****             DaemonTaskMessage_t xMessage;
 1808              		.loc 1 1069 9 is_stmt 0 view .LVU522
 1809 0000 9C46     		mov	ip, r3
 1810 0002 F0B5     		push	{r4, r5, r6, r7, lr}
 1811              		.cfi_def_cfa_offset 20
 1812              		.cfi_offset 4, -20
 1813              		.cfi_offset 5, -16
 1814              		.cfi_offset 6, -12
 1815              		.cfi_offset 7, -8
 1816              		.cfi_offset 14, -4
 1817 0004 0746     		mov	r7, r0
 1818 0006 0E46     		mov	r6, r1
 1819 0008 1546     		mov	r5, r2
 1820              		.loc 1 1075 33 view .LVU523
 1821 000a 6FF00104 		mvn	r4, #1
1076:Middlewares/FreeRTOS/source/timers.c ****             xMessage.u.xCallbackParameters.pxCallbackFunction = xFunctionToPend;
1077:Middlewares/FreeRTOS/source/timers.c ****             xMessage.u.xCallbackParameters.pvParameter1 = pvParameter1;
1078:Middlewares/FreeRTOS/source/timers.c ****             xMessage.u.xCallbackParameters.ulParameter2 = ulParameter2;
1079:Middlewares/FreeRTOS/source/timers.c **** 
1080:Middlewares/FreeRTOS/source/timers.c ****             xReturn = xQueueSendFromISR( xTimerQueue, &xMessage, pxHigherPriorityTaskWoken );
 1822              		.loc 1 1080 23 view .LVU524
 1823 000e 074B     		ldr	r3, .L145
 1824              	.LVL146:
1069:Middlewares/FreeRTOS/source/timers.c ****             DaemonTaskMessage_t xMessage;
 1825              		.loc 1 1069 9 view .LVU525
 1826 0010 85B0     		sub	sp, sp, #20
 1827              		.cfi_def_cfa_offset 40
 1828              		.loc 1 1080 23 view .LVU526
 1829 0012 6946     		mov	r1, sp
 1830              	.LVL147:
 1831              		.loc 1 1080 23 view .LVU527
 1832 0014 6246     		mov	r2, ip
 1833              	.LVL148:
 1834              		.loc 1 1080 23 view .LVU528
 1835 0016 1868     		ldr	r0, [r3]
 1836              	.LVL149:
 1837              		.loc 1 1080 23 view .LVU529
ARM GAS  /tmp/ccIlBc3y.s 			page 60


 1838 0018 0023     		movs	r3, #0
1077:Middlewares/FreeRTOS/source/timers.c ****             xMessage.u.xCallbackParameters.ulParameter2 = ulParameter2;
 1839              		.loc 1 1077 57 view .LVU530
 1840 001a CDE90176 		strd	r7, r6, [sp, #4]
1078:Middlewares/FreeRTOS/source/timers.c **** 
 1841              		.loc 1 1078 57 view .LVU531
 1842 001e 0395     		str	r5, [sp, #12]
1075:Middlewares/FreeRTOS/source/timers.c ****             xMessage.u.xCallbackParameters.pxCallbackFunction = xFunctionToPend;
 1843              		.loc 1 1075 33 view .LVU532
 1844 0020 0094     		str	r4, [sp]
1076:Middlewares/FreeRTOS/source/timers.c ****             xMessage.u.xCallbackParameters.pvParameter1 = pvParameter1;
 1845              		.loc 1 1076 13 is_stmt 1 view .LVU533
1077:Middlewares/FreeRTOS/source/timers.c ****             xMessage.u.xCallbackParameters.ulParameter2 = ulParameter2;
 1846              		.loc 1 1077 13 view .LVU534
1078:Middlewares/FreeRTOS/source/timers.c **** 
 1847              		.loc 1 1078 13 view .LVU535
 1848              		.loc 1 1080 13 view .LVU536
 1849              		.loc 1 1080 23 is_stmt 0 view .LVU537
 1850 0022 FFF7FEFF 		bl	xQueueGenericSendFromISR
 1851              	.LVL150:
1081:Middlewares/FreeRTOS/source/timers.c **** 
1082:Middlewares/FreeRTOS/source/timers.c ****             tracePEND_FUNC_CALL_FROM_ISR( xFunctionToPend, pvParameter1, ulParameter2, xReturn );
 1852              		.loc 1 1082 97 is_stmt 1 view .LVU538
1083:Middlewares/FreeRTOS/source/timers.c **** 
1084:Middlewares/FreeRTOS/source/timers.c ****             return xReturn;
 1853              		.loc 1 1084 13 view .LVU539
1085:Middlewares/FreeRTOS/source/timers.c ****         }
 1854              		.loc 1 1085 9 is_stmt 0 view .LVU540
 1855 0026 05B0     		add	sp, sp, #20
 1856              		.cfi_def_cfa_offset 20
 1857              		@ sp needed
 1858 0028 F0BD     		pop	{r4, r5, r6, r7, pc}
 1859              	.LVL151:
 1860              	.L146:
 1861              		.loc 1 1085 9 view .LVU541
 1862 002a 00BF     		.align	2
 1863              	.L145:
 1864 002c 00000000 		.word	.LANCHOR0
 1865              		.cfi_endproc
 1866              	.LFE832:
 1868              		.section	.text.xTimerPendFunctionCall,"ax",%progbits
 1869              		.align	1
 1870              		.p2align 2,,3
 1871              		.global	xTimerPendFunctionCall
 1872              		.syntax unified
 1873              		.thumb
 1874              		.thumb_func
 1875              		.fpu fpv5-d16
 1877              	xTimerPendFunctionCall:
 1878              	.LVL152:
 1879              	.LFB833:
1086:Middlewares/FreeRTOS/source/timers.c **** 
1087:Middlewares/FreeRTOS/source/timers.c ****     #endif /* INCLUDE_xTimerPendFunctionCall */
1088:Middlewares/FreeRTOS/source/timers.c **** /*-----------------------------------------------------------*/
1089:Middlewares/FreeRTOS/source/timers.c **** 
1090:Middlewares/FreeRTOS/source/timers.c ****     #if ( INCLUDE_xTimerPendFunctionCall == 1 )
1091:Middlewares/FreeRTOS/source/timers.c **** 
ARM GAS  /tmp/ccIlBc3y.s 			page 61


1092:Middlewares/FreeRTOS/source/timers.c ****         BaseType_t xTimerPendFunctionCall( PendedFunction_t xFunctionToPend,
1093:Middlewares/FreeRTOS/source/timers.c ****                                            void * pvParameter1,
1094:Middlewares/FreeRTOS/source/timers.c ****                                            uint32_t ulParameter2,
1095:Middlewares/FreeRTOS/source/timers.c ****                                            TickType_t xTicksToWait )
1096:Middlewares/FreeRTOS/source/timers.c ****         {
 1880              		.loc 1 1096 9 is_stmt 1 view -0
 1881              		.cfi_startproc
 1882              		@ args = 0, pretend = 0, frame = 16
 1883              		@ frame_needed = 0, uses_anonymous_args = 0
1097:Middlewares/FreeRTOS/source/timers.c ****             DaemonTaskMessage_t xMessage;
 1884              		.loc 1 1097 13 view .LVU543
1098:Middlewares/FreeRTOS/source/timers.c ****             BaseType_t xReturn;
 1885              		.loc 1 1098 13 view .LVU544
1099:Middlewares/FreeRTOS/source/timers.c **** 
1100:Middlewares/FreeRTOS/source/timers.c ****             /* This function can only be called after a timer has been created or
1101:Middlewares/FreeRTOS/source/timers.c ****              * after the scheduler has been started because, until then, the timer
1102:Middlewares/FreeRTOS/source/timers.c ****              * queue does not exist. */
1103:Middlewares/FreeRTOS/source/timers.c ****             configASSERT( xTimerQueue );
 1886              		.loc 1 1103 40 view .LVU545
1104:Middlewares/FreeRTOS/source/timers.c **** 
1105:Middlewares/FreeRTOS/source/timers.c ****             /* Complete the message with the function parameters and post it to the
1106:Middlewares/FreeRTOS/source/timers.c ****              * daemon task. */
1107:Middlewares/FreeRTOS/source/timers.c ****             xMessage.xMessageID = tmrCOMMAND_EXECUTE_CALLBACK;
 1887              		.loc 1 1107 13 view .LVU546
1096:Middlewares/FreeRTOS/source/timers.c ****             DaemonTaskMessage_t xMessage;
 1888              		.loc 1 1096 9 is_stmt 0 view .LVU547
 1889 0000 9C46     		mov	ip, r3
 1890 0002 F0B5     		push	{r4, r5, r6, r7, lr}
 1891              		.cfi_def_cfa_offset 20
 1892              		.cfi_offset 4, -20
 1893              		.cfi_offset 5, -16
 1894              		.cfi_offset 6, -12
 1895              		.cfi_offset 7, -8
 1896              		.cfi_offset 14, -4
 1897 0004 0746     		mov	r7, r0
 1898 0006 0E46     		mov	r6, r1
 1899 0008 1546     		mov	r5, r2
 1900              		.loc 1 1107 33 view .LVU548
 1901 000a 4FF0FF34 		mov	r4, #-1
1108:Middlewares/FreeRTOS/source/timers.c ****             xMessage.u.xCallbackParameters.pxCallbackFunction = xFunctionToPend;
1109:Middlewares/FreeRTOS/source/timers.c ****             xMessage.u.xCallbackParameters.pvParameter1 = pvParameter1;
1110:Middlewares/FreeRTOS/source/timers.c ****             xMessage.u.xCallbackParameters.ulParameter2 = ulParameter2;
1111:Middlewares/FreeRTOS/source/timers.c **** 
1112:Middlewares/FreeRTOS/source/timers.c ****             xReturn = xQueueSendToBack( xTimerQueue, &xMessage, xTicksToWait );
 1902              		.loc 1 1112 23 view .LVU549
 1903 000e 074B     		ldr	r3, .L149
 1904              	.LVL153:
1096:Middlewares/FreeRTOS/source/timers.c ****             DaemonTaskMessage_t xMessage;
 1905              		.loc 1 1096 9 view .LVU550
 1906 0010 85B0     		sub	sp, sp, #20
 1907              		.cfi_def_cfa_offset 40
 1908              		.loc 1 1112 23 view .LVU551
 1909 0012 6946     		mov	r1, sp
 1910              	.LVL154:
 1911              		.loc 1 1112 23 view .LVU552
 1912 0014 6246     		mov	r2, ip
 1913              	.LVL155:
ARM GAS  /tmp/ccIlBc3y.s 			page 62


 1914              		.loc 1 1112 23 view .LVU553
 1915 0016 1868     		ldr	r0, [r3]
 1916              	.LVL156:
 1917              		.loc 1 1112 23 view .LVU554
 1918 0018 0023     		movs	r3, #0
1109:Middlewares/FreeRTOS/source/timers.c ****             xMessage.u.xCallbackParameters.ulParameter2 = ulParameter2;
 1919              		.loc 1 1109 57 view .LVU555
 1920 001a CDE90176 		strd	r7, r6, [sp, #4]
1110:Middlewares/FreeRTOS/source/timers.c **** 
 1921              		.loc 1 1110 57 view .LVU556
 1922 001e 0395     		str	r5, [sp, #12]
1107:Middlewares/FreeRTOS/source/timers.c ****             xMessage.u.xCallbackParameters.pxCallbackFunction = xFunctionToPend;
 1923              		.loc 1 1107 33 view .LVU557
 1924 0020 0094     		str	r4, [sp]
1108:Middlewares/FreeRTOS/source/timers.c ****             xMessage.u.xCallbackParameters.pvParameter1 = pvParameter1;
 1925              		.loc 1 1108 13 is_stmt 1 view .LVU558
1109:Middlewares/FreeRTOS/source/timers.c ****             xMessage.u.xCallbackParameters.ulParameter2 = ulParameter2;
 1926              		.loc 1 1109 13 view .LVU559
1110:Middlewares/FreeRTOS/source/timers.c **** 
 1927              		.loc 1 1110 13 view .LVU560
 1928              		.loc 1 1112 13 view .LVU561
 1929              		.loc 1 1112 23 is_stmt 0 view .LVU562
 1930 0022 FFF7FEFF 		bl	xQueueGenericSend
 1931              	.LVL157:
1113:Middlewares/FreeRTOS/source/timers.c **** 
1114:Middlewares/FreeRTOS/source/timers.c ****             tracePEND_FUNC_CALL( xFunctionToPend, pvParameter1, ulParameter2, xReturn );
 1932              		.loc 1 1114 88 is_stmt 1 view .LVU563
1115:Middlewares/FreeRTOS/source/timers.c **** 
1116:Middlewares/FreeRTOS/source/timers.c ****             return xReturn;
 1933              		.loc 1 1116 13 view .LVU564
1117:Middlewares/FreeRTOS/source/timers.c ****         }
 1934              		.loc 1 1117 9 is_stmt 0 view .LVU565
 1935 0026 05B0     		add	sp, sp, #20
 1936              		.cfi_def_cfa_offset 20
 1937              		@ sp needed
 1938 0028 F0BD     		pop	{r4, r5, r6, r7, pc}
 1939              	.LVL158:
 1940              	.L150:
 1941              		.loc 1 1117 9 view .LVU566
 1942 002a 00BF     		.align	2
 1943              	.L149:
 1944 002c 00000000 		.word	.LANCHOR0
 1945              		.cfi_endproc
 1946              	.LFE833:
 1948              		.section	.text.uxTimerGetTimerNumber,"ax",%progbits
 1949              		.align	1
 1950              		.p2align 2,,3
 1951              		.global	uxTimerGetTimerNumber
 1952              		.syntax unified
 1953              		.thumb
 1954              		.thumb_func
 1955              		.fpu fpv5-d16
 1957              	uxTimerGetTimerNumber:
 1958              	.LVL159:
 1959              	.LFB834:
1118:Middlewares/FreeRTOS/source/timers.c **** 
1119:Middlewares/FreeRTOS/source/timers.c ****     #endif /* INCLUDE_xTimerPendFunctionCall */
ARM GAS  /tmp/ccIlBc3y.s 			page 63


1120:Middlewares/FreeRTOS/source/timers.c **** /*-----------------------------------------------------------*/
1121:Middlewares/FreeRTOS/source/timers.c **** 
1122:Middlewares/FreeRTOS/source/timers.c ****     #if ( configUSE_TRACE_FACILITY == 1 )
1123:Middlewares/FreeRTOS/source/timers.c **** 
1124:Middlewares/FreeRTOS/source/timers.c ****         UBaseType_t uxTimerGetTimerNumber( TimerHandle_t xTimer )
1125:Middlewares/FreeRTOS/source/timers.c ****         {
 1960              		.loc 1 1125 9 is_stmt 1 view -0
 1961              		.cfi_startproc
 1962              		@ args = 0, pretend = 0, frame = 0
 1963              		@ frame_needed = 0, uses_anonymous_args = 0
 1964              		@ link register save eliminated.
1126:Middlewares/FreeRTOS/source/timers.c ****             return ( ( Timer_t * ) xTimer )->uxTimerNumber;
 1965              		.loc 1 1126 13 view .LVU568
1127:Middlewares/FreeRTOS/source/timers.c ****         }
 1966              		.loc 1 1127 9 is_stmt 0 view .LVU569
 1967 0000 406A     		ldr	r0, [r0, #36]
 1968              	.LVL160:
 1969              		.loc 1 1127 9 view .LVU570
 1970 0002 7047     		bx	lr
 1971              		.cfi_endproc
 1972              	.LFE834:
 1974              		.section	.text.vTimerSetTimerNumber,"ax",%progbits
 1975              		.align	1
 1976              		.p2align 2,,3
 1977              		.global	vTimerSetTimerNumber
 1978              		.syntax unified
 1979              		.thumb
 1980              		.thumb_func
 1981              		.fpu fpv5-d16
 1983              	vTimerSetTimerNumber:
 1984              	.LVL161:
 1985              	.LFB835:
1128:Middlewares/FreeRTOS/source/timers.c **** 
1129:Middlewares/FreeRTOS/source/timers.c ****     #endif /* configUSE_TRACE_FACILITY */
1130:Middlewares/FreeRTOS/source/timers.c **** /*-----------------------------------------------------------*/
1131:Middlewares/FreeRTOS/source/timers.c **** 
1132:Middlewares/FreeRTOS/source/timers.c ****     #if ( configUSE_TRACE_FACILITY == 1 )
1133:Middlewares/FreeRTOS/source/timers.c **** 
1134:Middlewares/FreeRTOS/source/timers.c ****         void vTimerSetTimerNumber( TimerHandle_t xTimer,
1135:Middlewares/FreeRTOS/source/timers.c ****                                    UBaseType_t uxTimerNumber )
1136:Middlewares/FreeRTOS/source/timers.c ****         {
 1986              		.loc 1 1136 9 is_stmt 1 view -0
 1987              		.cfi_startproc
 1988              		@ args = 0, pretend = 0, frame = 0
 1989              		@ frame_needed = 0, uses_anonymous_args = 0
 1990              		@ link register save eliminated.
1137:Middlewares/FreeRTOS/source/timers.c ****             ( ( Timer_t * ) xTimer )->uxTimerNumber = uxTimerNumber;
 1991              		.loc 1 1137 13 view .LVU572
 1992              		.loc 1 1137 53 is_stmt 0 view .LVU573
 1993 0000 4162     		str	r1, [r0, #36]
1138:Middlewares/FreeRTOS/source/timers.c ****         }
 1994              		.loc 1 1138 9 view .LVU574
 1995 0002 7047     		bx	lr
 1996              		.cfi_endproc
 1997              	.LFE835:
 1999              		.section	.bss.pxCurrentTimerList,"aw",%nobits
 2000              		.align	2
ARM GAS  /tmp/ccIlBc3y.s 			page 64


 2001              		.set	.LANCHOR3,. + 0
 2004              	pxCurrentTimerList:
 2005 0000 00000000 		.space	4
 2006              		.section	.bss.pxOverflowTimerList,"aw",%nobits
 2007              		.align	2
 2008              		.set	.LANCHOR4,. + 0
 2011              	pxOverflowTimerList:
 2012 0000 00000000 		.space	4
 2013              		.section	.bss.xActiveTimerList1,"aw",%nobits
 2014              		.align	2
 2015              		.set	.LANCHOR1,. + 0
 2018              	xActiveTimerList1:
 2019 0000 00000000 		.space	20
 2019      00000000 
 2019      00000000 
 2019      00000000 
 2019      00000000 
 2020              		.section	.bss.xActiveTimerList2,"aw",%nobits
 2021              		.align	2
 2022              		.set	.LANCHOR2,. + 0
 2025              	xActiveTimerList2:
 2026 0000 00000000 		.space	20
 2026      00000000 
 2026      00000000 
 2026      00000000 
 2026      00000000 
 2027              		.section	.bss.xLastTime.0,"aw",%nobits
 2028              		.align	2
 2029              		.set	.LANCHOR5,. + 0
 2032              	xLastTime.0:
 2033 0000 00000000 		.space	4
 2034              		.section	.bss.xTimerQueue,"aw",%nobits
 2035              		.align	2
 2036              		.set	.LANCHOR0,. + 0
 2039              	xTimerQueue:
 2040 0000 00000000 		.space	4
 2041              		.section	.bss.xTimerTaskHandle,"aw",%nobits
 2042              		.align	2
 2043              		.set	.LANCHOR6,. + 0
 2046              	xTimerTaskHandle:
 2047 0000 00000000 		.space	4
 2048              		.text
 2049              	.Letext0:
 2050              		.file 2 "/usr/lib/gcc/arm-none-eabi/10.3.1/include/stdint.h"
 2051              		.file 3 "Core/Inc/portmacrocommon.h"
 2052              		.file 4 "Core/Inc/list.h"
 2053              		.file 5 "Core/Inc/task.h"
 2054              		.file 6 "Core/Inc/queue.h"
 2055              		.file 7 "Core/Inc/timers.h"
 2056              		.file 8 "Core/Inc/portable.h"
ARM GAS  /tmp/ccIlBc3y.s 			page 65

